ARM GAS  /tmp/ccUJvcf6.s 			page 1


   1              		.cpu cortex-m3
   2              		.eabi_attribute 20, 1
   3              		.eabi_attribute 21, 1
   4              		.eabi_attribute 23, 3
   5              		.eabi_attribute 24, 1
   6              		.eabi_attribute 25, 1
   7              		.eabi_attribute 26, 1
   8              		.eabi_attribute 30, 2
   9              		.eabi_attribute 34, 1
  10              		.eabi_attribute 18, 4
  11              		.file	"stm32f1xx_hal_dma.c"
  12              		.text
  13              	.Ltext0:
  14              		.cfi_sections	.debug_frame
  15              		.section	.text.HAL_DMA_Init,"ax",%progbits
  16              		.align	1
  17              		.p2align 2,,3
  18              		.global	HAL_DMA_Init
  19              		.syntax unified
  20              		.thumb
  21              		.thumb_func
  22              		.fpu softvfp
  24              	HAL_DMA_Init:
  25              	.LFB66:
  26              		.file 1 "Drivers/STM32F1xx_HAL_Driver/Src/stm32f1xx_hal_dma.c"
   1:Drivers/STM32F1xx_HAL_Driver/Src/stm32f1xx_hal_dma.c **** /**
   2:Drivers/STM32F1xx_HAL_Driver/Src/stm32f1xx_hal_dma.c ****   ******************************************************************************
   3:Drivers/STM32F1xx_HAL_Driver/Src/stm32f1xx_hal_dma.c ****   * @file    stm32f1xx_hal_dma.c
   4:Drivers/STM32F1xx_HAL_Driver/Src/stm32f1xx_hal_dma.c ****   * @author  MCD Application Team
   5:Drivers/STM32F1xx_HAL_Driver/Src/stm32f1xx_hal_dma.c ****   * @version V1.1.1
   6:Drivers/STM32F1xx_HAL_Driver/Src/stm32f1xx_hal_dma.c ****   * @date    12-May-2017
   7:Drivers/STM32F1xx_HAL_Driver/Src/stm32f1xx_hal_dma.c ****   * @brief   DMA HAL module driver.
   8:Drivers/STM32F1xx_HAL_Driver/Src/stm32f1xx_hal_dma.c ****   *         This file provides firmware functions to manage the following
   9:Drivers/STM32F1xx_HAL_Driver/Src/stm32f1xx_hal_dma.c ****   *         functionalities of the Direct Memory Access (DMA) peripheral:
  10:Drivers/STM32F1xx_HAL_Driver/Src/stm32f1xx_hal_dma.c ****   *           + Initialization and de-initialization functions
  11:Drivers/STM32F1xx_HAL_Driver/Src/stm32f1xx_hal_dma.c ****   *           + IO operation functions
  12:Drivers/STM32F1xx_HAL_Driver/Src/stm32f1xx_hal_dma.c ****   *           + Peripheral State and errors functions
  13:Drivers/STM32F1xx_HAL_Driver/Src/stm32f1xx_hal_dma.c ****   @verbatim
  14:Drivers/STM32F1xx_HAL_Driver/Src/stm32f1xx_hal_dma.c ****   ==============================================================================
  15:Drivers/STM32F1xx_HAL_Driver/Src/stm32f1xx_hal_dma.c ****                         ##### How to use this driver #####
  16:Drivers/STM32F1xx_HAL_Driver/Src/stm32f1xx_hal_dma.c ****   ==============================================================================
  17:Drivers/STM32F1xx_HAL_Driver/Src/stm32f1xx_hal_dma.c ****   [..]
  18:Drivers/STM32F1xx_HAL_Driver/Src/stm32f1xx_hal_dma.c ****    (#) Enable and configure the peripheral to be connected to the DMA Channel
  19:Drivers/STM32F1xx_HAL_Driver/Src/stm32f1xx_hal_dma.c ****        (except for internal SRAM / FLASH memories: no initialization is 
  20:Drivers/STM32F1xx_HAL_Driver/Src/stm32f1xx_hal_dma.c ****        necessary). Please refer to the Reference manual for connection between peripherals
  21:Drivers/STM32F1xx_HAL_Driver/Src/stm32f1xx_hal_dma.c ****        and DMA requests.
  22:Drivers/STM32F1xx_HAL_Driver/Src/stm32f1xx_hal_dma.c **** 
  23:Drivers/STM32F1xx_HAL_Driver/Src/stm32f1xx_hal_dma.c ****    (#) For a given Channel, program the required configuration through the following parameters:
  24:Drivers/STM32F1xx_HAL_Driver/Src/stm32f1xx_hal_dma.c ****        Channel request, Transfer Direction, Source and Destination data formats,
  25:Drivers/STM32F1xx_HAL_Driver/Src/stm32f1xx_hal_dma.c ****        Circular or Normal mode, Channel Priority level, Source and Destination Increment mode
  26:Drivers/STM32F1xx_HAL_Driver/Src/stm32f1xx_hal_dma.c ****        using HAL_DMA_Init() function.
  27:Drivers/STM32F1xx_HAL_Driver/Src/stm32f1xx_hal_dma.c **** 
  28:Drivers/STM32F1xx_HAL_Driver/Src/stm32f1xx_hal_dma.c ****    (#) Use HAL_DMA_GetState() function to return the DMA state and HAL_DMA_GetError() in case of er
  29:Drivers/STM32F1xx_HAL_Driver/Src/stm32f1xx_hal_dma.c ****        detection.
  30:Drivers/STM32F1xx_HAL_Driver/Src/stm32f1xx_hal_dma.c ****                     
  31:Drivers/STM32F1xx_HAL_Driver/Src/stm32f1xx_hal_dma.c ****    (#) Use HAL_DMA_Abort() function to abort the current transfer
  32:Drivers/STM32F1xx_HAL_Driver/Src/stm32f1xx_hal_dma.c ****                    
ARM GAS  /tmp/ccUJvcf6.s 			page 2


  33:Drivers/STM32F1xx_HAL_Driver/Src/stm32f1xx_hal_dma.c ****      -@-   In Memory-to-Memory transfer mode, Circular mode is not allowed.
  34:Drivers/STM32F1xx_HAL_Driver/Src/stm32f1xx_hal_dma.c ****      *** Polling mode IO operation ***
  35:Drivers/STM32F1xx_HAL_Driver/Src/stm32f1xx_hal_dma.c ****      =================================
  36:Drivers/STM32F1xx_HAL_Driver/Src/stm32f1xx_hal_dma.c ****     [..]
  37:Drivers/STM32F1xx_HAL_Driver/Src/stm32f1xx_hal_dma.c ****           (+) Use HAL_DMA_Start() to start DMA transfer after the configuration of Source
  38:Drivers/STM32F1xx_HAL_Driver/Src/stm32f1xx_hal_dma.c ****               address and destination address and the Length of data to be transferred
  39:Drivers/STM32F1xx_HAL_Driver/Src/stm32f1xx_hal_dma.c ****           (+) Use HAL_DMA_PollForTransfer() to poll for the end of current transfer, in this
  40:Drivers/STM32F1xx_HAL_Driver/Src/stm32f1xx_hal_dma.c ****               case a fixed Timeout can be configured by User depending from his application.
  41:Drivers/STM32F1xx_HAL_Driver/Src/stm32f1xx_hal_dma.c **** 
  42:Drivers/STM32F1xx_HAL_Driver/Src/stm32f1xx_hal_dma.c ****      *** Interrupt mode IO operation ***
  43:Drivers/STM32F1xx_HAL_Driver/Src/stm32f1xx_hal_dma.c ****      ===================================
  44:Drivers/STM32F1xx_HAL_Driver/Src/stm32f1xx_hal_dma.c ****     [..]
  45:Drivers/STM32F1xx_HAL_Driver/Src/stm32f1xx_hal_dma.c ****           (+) Configure the DMA interrupt priority using HAL_NVIC_SetPriority()
  46:Drivers/STM32F1xx_HAL_Driver/Src/stm32f1xx_hal_dma.c ****           (+) Enable the DMA IRQ handler using HAL_NVIC_EnableIRQ()
  47:Drivers/STM32F1xx_HAL_Driver/Src/stm32f1xx_hal_dma.c ****           (+) Use HAL_DMA_Start_IT() to start DMA transfer after the configuration of
  48:Drivers/STM32F1xx_HAL_Driver/Src/stm32f1xx_hal_dma.c ****               Source address and destination address and the Length of data to be transferred.
  49:Drivers/STM32F1xx_HAL_Driver/Src/stm32f1xx_hal_dma.c ****               In this case the DMA interrupt is configured
  50:Drivers/STM32F1xx_HAL_Driver/Src/stm32f1xx_hal_dma.c ****           (+) Use HAL_DMA_IRQHandler() called under DMA_IRQHandler() Interrupt subroutine
  51:Drivers/STM32F1xx_HAL_Driver/Src/stm32f1xx_hal_dma.c ****           (+) At the end of data transfer HAL_DMA_IRQHandler() function is executed and user can
  52:Drivers/STM32F1xx_HAL_Driver/Src/stm32f1xx_hal_dma.c ****               add his own function by customization of function pointer XferCpltCallback and
  53:Drivers/STM32F1xx_HAL_Driver/Src/stm32f1xx_hal_dma.c ****               XferErrorCallback (i.e. a member of DMA handle structure).
  54:Drivers/STM32F1xx_HAL_Driver/Src/stm32f1xx_hal_dma.c **** 
  55:Drivers/STM32F1xx_HAL_Driver/Src/stm32f1xx_hal_dma.c ****      *** DMA HAL driver macros list ***
  56:Drivers/STM32F1xx_HAL_Driver/Src/stm32f1xx_hal_dma.c ****      ============================================= 
  57:Drivers/STM32F1xx_HAL_Driver/Src/stm32f1xx_hal_dma.c ****       [..]
  58:Drivers/STM32F1xx_HAL_Driver/Src/stm32f1xx_hal_dma.c ****        Below the list of most used macros in DMA HAL driver.
  59:Drivers/STM32F1xx_HAL_Driver/Src/stm32f1xx_hal_dma.c **** 
  60:Drivers/STM32F1xx_HAL_Driver/Src/stm32f1xx_hal_dma.c ****        (+) __HAL_DMA_ENABLE: Enable the specified DMA Channel.
  61:Drivers/STM32F1xx_HAL_Driver/Src/stm32f1xx_hal_dma.c ****        (+) __HAL_DMA_DISABLE: Disable the specified DMA Channel.
  62:Drivers/STM32F1xx_HAL_Driver/Src/stm32f1xx_hal_dma.c ****        (+) __HAL_DMA_GET_FLAG: Get the DMA Channel pending flags.
  63:Drivers/STM32F1xx_HAL_Driver/Src/stm32f1xx_hal_dma.c ****        (+) __HAL_DMA_CLEAR_FLAG: Clear the DMA Channel pending flags.
  64:Drivers/STM32F1xx_HAL_Driver/Src/stm32f1xx_hal_dma.c ****        (+) __HAL_DMA_ENABLE_IT: Enable the specified DMA Channel interrupts.
  65:Drivers/STM32F1xx_HAL_Driver/Src/stm32f1xx_hal_dma.c ****        (+) __HAL_DMA_DISABLE_IT: Disable the specified DMA Channel interrupts.
  66:Drivers/STM32F1xx_HAL_Driver/Src/stm32f1xx_hal_dma.c ****        (+) __HAL_DMA_GET_IT_SOURCE: Check whether the specified DMA Channel interrupt has occurred 
  67:Drivers/STM32F1xx_HAL_Driver/Src/stm32f1xx_hal_dma.c **** 
  68:Drivers/STM32F1xx_HAL_Driver/Src/stm32f1xx_hal_dma.c ****      [..] 
  69:Drivers/STM32F1xx_HAL_Driver/Src/stm32f1xx_hal_dma.c ****       (@) You can refer to the DMA HAL driver header file for more useful macros  
  70:Drivers/STM32F1xx_HAL_Driver/Src/stm32f1xx_hal_dma.c **** 
  71:Drivers/STM32F1xx_HAL_Driver/Src/stm32f1xx_hal_dma.c ****   @endverbatim
  72:Drivers/STM32F1xx_HAL_Driver/Src/stm32f1xx_hal_dma.c ****   ******************************************************************************
  73:Drivers/STM32F1xx_HAL_Driver/Src/stm32f1xx_hal_dma.c ****   * @attention
  74:Drivers/STM32F1xx_HAL_Driver/Src/stm32f1xx_hal_dma.c ****   *
  75:Drivers/STM32F1xx_HAL_Driver/Src/stm32f1xx_hal_dma.c ****   * <h2><center>&copy; COPYRIGHT(c) 2017 STMicroelectronics</center></h2>
  76:Drivers/STM32F1xx_HAL_Driver/Src/stm32f1xx_hal_dma.c ****   *
  77:Drivers/STM32F1xx_HAL_Driver/Src/stm32f1xx_hal_dma.c ****   * Redistribution and use in source and binary forms, with or without modification,
  78:Drivers/STM32F1xx_HAL_Driver/Src/stm32f1xx_hal_dma.c ****   * are permitted provided that the following conditions are met:
  79:Drivers/STM32F1xx_HAL_Driver/Src/stm32f1xx_hal_dma.c ****   *   1. Redistributions of source code must retain the above copyright notice,
  80:Drivers/STM32F1xx_HAL_Driver/Src/stm32f1xx_hal_dma.c ****   *      this list of conditions and the following disclaimer.
  81:Drivers/STM32F1xx_HAL_Driver/Src/stm32f1xx_hal_dma.c ****   *   2. Redistributions in binary form must reproduce the above copyright notice,
  82:Drivers/STM32F1xx_HAL_Driver/Src/stm32f1xx_hal_dma.c ****   *      this list of conditions and the following disclaimer in the documentation
  83:Drivers/STM32F1xx_HAL_Driver/Src/stm32f1xx_hal_dma.c ****   *      and/or other materials provided with the distribution.
  84:Drivers/STM32F1xx_HAL_Driver/Src/stm32f1xx_hal_dma.c ****   *   3. Neither the name of STMicroelectronics nor the names of its contributors
  85:Drivers/STM32F1xx_HAL_Driver/Src/stm32f1xx_hal_dma.c ****   *      may be used to endorse or promote products derived from this software
  86:Drivers/STM32F1xx_HAL_Driver/Src/stm32f1xx_hal_dma.c ****   *      without specific prior written permission.
  87:Drivers/STM32F1xx_HAL_Driver/Src/stm32f1xx_hal_dma.c ****   *
  88:Drivers/STM32F1xx_HAL_Driver/Src/stm32f1xx_hal_dma.c ****   * THIS SOFTWARE IS PROVIDED BY THE COPYRIGHT HOLDERS AND CONTRIBUTORS "AS IS"
  89:Drivers/STM32F1xx_HAL_Driver/Src/stm32f1xx_hal_dma.c ****   * AND ANY EXPRESS OR IMPLIED WARRANTIES, INCLUDING, BUT NOT LIMITED TO, THE
ARM GAS  /tmp/ccUJvcf6.s 			page 3


  90:Drivers/STM32F1xx_HAL_Driver/Src/stm32f1xx_hal_dma.c ****   * IMPLIED WARRANTIES OF MERCHANTABILITY AND FITNESS FOR A PARTICULAR PURPOSE ARE
  91:Drivers/STM32F1xx_HAL_Driver/Src/stm32f1xx_hal_dma.c ****   * DISCLAIMED. IN NO EVENT SHALL THE COPYRIGHT HOLDER OR CONTRIBUTORS BE LIABLE
  92:Drivers/STM32F1xx_HAL_Driver/Src/stm32f1xx_hal_dma.c ****   * FOR ANY DIRECT, INDIRECT, INCIDENTAL, SPECIAL, EXEMPLARY, OR CONSEQUENTIAL
  93:Drivers/STM32F1xx_HAL_Driver/Src/stm32f1xx_hal_dma.c ****   * DAMAGES (INCLUDING, BUT NOT LIMITED TO, PROCUREMENT OF SUBSTITUTE GOODS OR
  94:Drivers/STM32F1xx_HAL_Driver/Src/stm32f1xx_hal_dma.c ****   * SERVICES; LOSS OF USE, DATA, OR PROFITS; OR BUSINESS INTERRUPTION) HOWEVER
  95:Drivers/STM32F1xx_HAL_Driver/Src/stm32f1xx_hal_dma.c ****   * CAUSED AND ON ANY THEORY OF LIABILITY, WHETHER IN CONTRACT, STRICT LIABILITY,
  96:Drivers/STM32F1xx_HAL_Driver/Src/stm32f1xx_hal_dma.c ****   * OR TORT (INCLUDING NEGLIGENCE OR OTHERWISE) ARISING IN ANY WAY OUT OF THE USE
  97:Drivers/STM32F1xx_HAL_Driver/Src/stm32f1xx_hal_dma.c ****   * OF THIS SOFTWARE, EVEN IF ADVISED OF THE POSSIBILITY OF SUCH DAMAGE.
  98:Drivers/STM32F1xx_HAL_Driver/Src/stm32f1xx_hal_dma.c ****   *
  99:Drivers/STM32F1xx_HAL_Driver/Src/stm32f1xx_hal_dma.c ****   ******************************************************************************
 100:Drivers/STM32F1xx_HAL_Driver/Src/stm32f1xx_hal_dma.c ****   */
 101:Drivers/STM32F1xx_HAL_Driver/Src/stm32f1xx_hal_dma.c **** 
 102:Drivers/STM32F1xx_HAL_Driver/Src/stm32f1xx_hal_dma.c **** /* Includes ------------------------------------------------------------------*/
 103:Drivers/STM32F1xx_HAL_Driver/Src/stm32f1xx_hal_dma.c **** #include "stm32f1xx_hal.h"
 104:Drivers/STM32F1xx_HAL_Driver/Src/stm32f1xx_hal_dma.c **** 
 105:Drivers/STM32F1xx_HAL_Driver/Src/stm32f1xx_hal_dma.c **** /** @addtogroup STM32F1xx_HAL_Driver
 106:Drivers/STM32F1xx_HAL_Driver/Src/stm32f1xx_hal_dma.c ****   * @{
 107:Drivers/STM32F1xx_HAL_Driver/Src/stm32f1xx_hal_dma.c ****   */
 108:Drivers/STM32F1xx_HAL_Driver/Src/stm32f1xx_hal_dma.c **** 
 109:Drivers/STM32F1xx_HAL_Driver/Src/stm32f1xx_hal_dma.c **** /** @defgroup DMA DMA
 110:Drivers/STM32F1xx_HAL_Driver/Src/stm32f1xx_hal_dma.c ****   * @brief DMA HAL module driver
 111:Drivers/STM32F1xx_HAL_Driver/Src/stm32f1xx_hal_dma.c ****   * @{
 112:Drivers/STM32F1xx_HAL_Driver/Src/stm32f1xx_hal_dma.c ****   */
 113:Drivers/STM32F1xx_HAL_Driver/Src/stm32f1xx_hal_dma.c **** 
 114:Drivers/STM32F1xx_HAL_Driver/Src/stm32f1xx_hal_dma.c **** #ifdef HAL_DMA_MODULE_ENABLED
 115:Drivers/STM32F1xx_HAL_Driver/Src/stm32f1xx_hal_dma.c **** 
 116:Drivers/STM32F1xx_HAL_Driver/Src/stm32f1xx_hal_dma.c **** /* Private typedef -----------------------------------------------------------*/
 117:Drivers/STM32F1xx_HAL_Driver/Src/stm32f1xx_hal_dma.c **** /* Private define ------------------------------------------------------------*/
 118:Drivers/STM32F1xx_HAL_Driver/Src/stm32f1xx_hal_dma.c **** /* Private macro -------------------------------------------------------------*/
 119:Drivers/STM32F1xx_HAL_Driver/Src/stm32f1xx_hal_dma.c **** /* Private variables ---------------------------------------------------------*/
 120:Drivers/STM32F1xx_HAL_Driver/Src/stm32f1xx_hal_dma.c **** /* Private function prototypes -----------------------------------------------*/
 121:Drivers/STM32F1xx_HAL_Driver/Src/stm32f1xx_hal_dma.c **** /** @defgroup DMA_Private_Functions DMA Private Functions
 122:Drivers/STM32F1xx_HAL_Driver/Src/stm32f1xx_hal_dma.c ****   * @{
 123:Drivers/STM32F1xx_HAL_Driver/Src/stm32f1xx_hal_dma.c ****   */
 124:Drivers/STM32F1xx_HAL_Driver/Src/stm32f1xx_hal_dma.c **** static void DMA_SetConfig(DMA_HandleTypeDef *hdma, uint32_t SrcAddress, uint32_t DstAddress, uint32
 125:Drivers/STM32F1xx_HAL_Driver/Src/stm32f1xx_hal_dma.c **** /**
 126:Drivers/STM32F1xx_HAL_Driver/Src/stm32f1xx_hal_dma.c ****   * @}
 127:Drivers/STM32F1xx_HAL_Driver/Src/stm32f1xx_hal_dma.c ****   */
 128:Drivers/STM32F1xx_HAL_Driver/Src/stm32f1xx_hal_dma.c **** 
 129:Drivers/STM32F1xx_HAL_Driver/Src/stm32f1xx_hal_dma.c **** /* Exported functions ---------------------------------------------------------*/
 130:Drivers/STM32F1xx_HAL_Driver/Src/stm32f1xx_hal_dma.c **** 
 131:Drivers/STM32F1xx_HAL_Driver/Src/stm32f1xx_hal_dma.c **** /** @defgroup DMA_Exported_Functions DMA Exported Functions
 132:Drivers/STM32F1xx_HAL_Driver/Src/stm32f1xx_hal_dma.c ****   * @{
 133:Drivers/STM32F1xx_HAL_Driver/Src/stm32f1xx_hal_dma.c ****   */
 134:Drivers/STM32F1xx_HAL_Driver/Src/stm32f1xx_hal_dma.c **** 
 135:Drivers/STM32F1xx_HAL_Driver/Src/stm32f1xx_hal_dma.c **** /** @defgroup DMA_Exported_Functions_Group1 Initialization and de-initialization functions
 136:Drivers/STM32F1xx_HAL_Driver/Src/stm32f1xx_hal_dma.c ****   *  @brief   Initialization and de-initialization functions 
 137:Drivers/STM32F1xx_HAL_Driver/Src/stm32f1xx_hal_dma.c ****   *
 138:Drivers/STM32F1xx_HAL_Driver/Src/stm32f1xx_hal_dma.c **** @verbatim
 139:Drivers/STM32F1xx_HAL_Driver/Src/stm32f1xx_hal_dma.c ****  ===============================================================================
 140:Drivers/STM32F1xx_HAL_Driver/Src/stm32f1xx_hal_dma.c ****              ##### Initialization and de-initialization functions  #####
 141:Drivers/STM32F1xx_HAL_Driver/Src/stm32f1xx_hal_dma.c ****  ===============================================================================
 142:Drivers/STM32F1xx_HAL_Driver/Src/stm32f1xx_hal_dma.c ****     [..]
 143:Drivers/STM32F1xx_HAL_Driver/Src/stm32f1xx_hal_dma.c ****     This section provides functions allowing to initialize the DMA Channel source
 144:Drivers/STM32F1xx_HAL_Driver/Src/stm32f1xx_hal_dma.c ****     and destination addresses, incrementation and data sizes, transfer direction, 
 145:Drivers/STM32F1xx_HAL_Driver/Src/stm32f1xx_hal_dma.c ****     circular/normal mode selection, memory-to-memory mode selection and Channel priority value.
 146:Drivers/STM32F1xx_HAL_Driver/Src/stm32f1xx_hal_dma.c ****     [..]
ARM GAS  /tmp/ccUJvcf6.s 			page 4


 147:Drivers/STM32F1xx_HAL_Driver/Src/stm32f1xx_hal_dma.c ****     The HAL_DMA_Init() function follows the DMA configuration procedures as described in
 148:Drivers/STM32F1xx_HAL_Driver/Src/stm32f1xx_hal_dma.c ****     reference manual.  
 149:Drivers/STM32F1xx_HAL_Driver/Src/stm32f1xx_hal_dma.c **** 
 150:Drivers/STM32F1xx_HAL_Driver/Src/stm32f1xx_hal_dma.c **** @endverbatim
 151:Drivers/STM32F1xx_HAL_Driver/Src/stm32f1xx_hal_dma.c ****   * @{
 152:Drivers/STM32F1xx_HAL_Driver/Src/stm32f1xx_hal_dma.c ****   */
 153:Drivers/STM32F1xx_HAL_Driver/Src/stm32f1xx_hal_dma.c **** 
 154:Drivers/STM32F1xx_HAL_Driver/Src/stm32f1xx_hal_dma.c **** /**
 155:Drivers/STM32F1xx_HAL_Driver/Src/stm32f1xx_hal_dma.c ****   * @brief  Initialize the DMA according to the specified
 156:Drivers/STM32F1xx_HAL_Driver/Src/stm32f1xx_hal_dma.c ****   *         parameters in the DMA_InitTypeDef and initialize the associated handle.
 157:Drivers/STM32F1xx_HAL_Driver/Src/stm32f1xx_hal_dma.c ****   * @param  hdma: Pointer to a DMA_HandleTypeDef structure that contains
 158:Drivers/STM32F1xx_HAL_Driver/Src/stm32f1xx_hal_dma.c ****   *               the configuration information for the specified DMA Channel.
 159:Drivers/STM32F1xx_HAL_Driver/Src/stm32f1xx_hal_dma.c ****   * @retval HAL status
 160:Drivers/STM32F1xx_HAL_Driver/Src/stm32f1xx_hal_dma.c ****   */
 161:Drivers/STM32F1xx_HAL_Driver/Src/stm32f1xx_hal_dma.c **** HAL_StatusTypeDef HAL_DMA_Init(DMA_HandleTypeDef *hdma)
 162:Drivers/STM32F1xx_HAL_Driver/Src/stm32f1xx_hal_dma.c **** {
  27              		.loc 1 162 0
  28              		.cfi_startproc
  29              		@ args = 0, pretend = 0, frame = 0
  30              		@ frame_needed = 0, uses_anonymous_args = 0
  31              		@ link register save eliminated.
  32              	.LVL0:
 163:Drivers/STM32F1xx_HAL_Driver/Src/stm32f1xx_hal_dma.c ****   uint32_t tmp = 0U;
 164:Drivers/STM32F1xx_HAL_Driver/Src/stm32f1xx_hal_dma.c **** 
 165:Drivers/STM32F1xx_HAL_Driver/Src/stm32f1xx_hal_dma.c ****   /* Check the DMA handle allocation */
 166:Drivers/STM32F1xx_HAL_Driver/Src/stm32f1xx_hal_dma.c ****   if(hdma == NULL)
  33              		.loc 1 166 0
  34 0000 0028     		cmp	r0, #0
  35 0002 3AD0     		beq	.L5
  36 0004 0346     		mov	r3, r0
 167:Drivers/STM32F1xx_HAL_Driver/Src/stm32f1xx_hal_dma.c ****   {
 168:Drivers/STM32F1xx_HAL_Driver/Src/stm32f1xx_hal_dma.c ****     return HAL_ERROR;
 169:Drivers/STM32F1xx_HAL_Driver/Src/stm32f1xx_hal_dma.c ****   }
 170:Drivers/STM32F1xx_HAL_Driver/Src/stm32f1xx_hal_dma.c **** 
 171:Drivers/STM32F1xx_HAL_Driver/Src/stm32f1xx_hal_dma.c ****   /* Check the parameters */
 172:Drivers/STM32F1xx_HAL_Driver/Src/stm32f1xx_hal_dma.c ****   assert_param(IS_DMA_ALL_INSTANCE(hdma->Instance));
 173:Drivers/STM32F1xx_HAL_Driver/Src/stm32f1xx_hal_dma.c ****   assert_param(IS_DMA_DIRECTION(hdma->Init.Direction));
 174:Drivers/STM32F1xx_HAL_Driver/Src/stm32f1xx_hal_dma.c ****   assert_param(IS_DMA_PERIPHERAL_INC_STATE(hdma->Init.PeriphInc));
 175:Drivers/STM32F1xx_HAL_Driver/Src/stm32f1xx_hal_dma.c ****   assert_param(IS_DMA_MEMORY_INC_STATE(hdma->Init.MemInc));
 176:Drivers/STM32F1xx_HAL_Driver/Src/stm32f1xx_hal_dma.c ****   assert_param(IS_DMA_PERIPHERAL_DATA_SIZE(hdma->Init.PeriphDataAlignment));
 177:Drivers/STM32F1xx_HAL_Driver/Src/stm32f1xx_hal_dma.c ****   assert_param(IS_DMA_MEMORY_DATA_SIZE(hdma->Init.MemDataAlignment));
 178:Drivers/STM32F1xx_HAL_Driver/Src/stm32f1xx_hal_dma.c ****   assert_param(IS_DMA_MODE(hdma->Init.Mode));
 179:Drivers/STM32F1xx_HAL_Driver/Src/stm32f1xx_hal_dma.c ****   assert_param(IS_DMA_PRIORITY(hdma->Init.Priority));
 180:Drivers/STM32F1xx_HAL_Driver/Src/stm32f1xx_hal_dma.c **** 
 181:Drivers/STM32F1xx_HAL_Driver/Src/stm32f1xx_hal_dma.c **** #if defined (STM32F101xE) || defined (STM32F101xG) || defined (STM32F103xE) || defined (STM32F103xG
 182:Drivers/STM32F1xx_HAL_Driver/Src/stm32f1xx_hal_dma.c ****   /* calculation of the channel index */
 183:Drivers/STM32F1xx_HAL_Driver/Src/stm32f1xx_hal_dma.c ****   if ((uint32_t)(hdma->Instance) < (uint32_t)(DMA2_Channel1))
  37              		.loc 1 183 0
  38 0006 1E4A     		ldr	r2, .L12
  39 0008 0068     		ldr	r0, [r0]
  40              	.LVL1:
 162:Drivers/STM32F1xx_HAL_Driver/Src/stm32f1xx_hal_dma.c ****   uint32_t tmp = 0U;
  41              		.loc 1 162 0
  42 000a F0B4     		push	{r4, r5, r6, r7}
  43              	.LCFI0:
  44              		.cfi_def_cfa_offset 16
  45              		.cfi_offset 4, -16
ARM GAS  /tmp/ccUJvcf6.s 			page 5


  46              		.cfi_offset 5, -12
  47              		.cfi_offset 6, -8
  48              		.cfi_offset 7, -4
  49              		.loc 1 183 0
  50 000c 9042     		cmp	r0, r2
  51 000e 2BD9     		bls	.L11
 184:Drivers/STM32F1xx_HAL_Driver/Src/stm32f1xx_hal_dma.c ****   {
 185:Drivers/STM32F1xx_HAL_Driver/Src/stm32f1xx_hal_dma.c ****     /* DMA1 */
 186:Drivers/STM32F1xx_HAL_Driver/Src/stm32f1xx_hal_dma.c ****     hdma->ChannelIndex = (((uint32_t)hdma->Instance - (uint32_t)DMA1_Channel1) / ((uint32_t)DMA1_Ch
 187:Drivers/STM32F1xx_HAL_Driver/Src/stm32f1xx_hal_dma.c ****     hdma->DmaBaseAddress = DMA1;
 188:Drivers/STM32F1xx_HAL_Driver/Src/stm32f1xx_hal_dma.c ****   }
 189:Drivers/STM32F1xx_HAL_Driver/Src/stm32f1xx_hal_dma.c ****   else 
 190:Drivers/STM32F1xx_HAL_Driver/Src/stm32f1xx_hal_dma.c ****   {
 191:Drivers/STM32F1xx_HAL_Driver/Src/stm32f1xx_hal_dma.c ****     /* DMA2 */
 192:Drivers/STM32F1xx_HAL_Driver/Src/stm32f1xx_hal_dma.c ****     hdma->ChannelIndex = (((uint32_t)hdma->Instance - (uint32_t)DMA2_Channel1) / ((uint32_t)DMA2_Ch
  52              		.loc 1 192 0
  53 0010 1C49     		ldr	r1, .L12+4
  54 0012 1D4A     		ldr	r2, .L12+8
  55 0014 0144     		add	r1, r1, r0
  56 0016 A2FB0121 		umull	r2, r1, r2, r1
 193:Drivers/STM32F1xx_HAL_Driver/Src/stm32f1xx_hal_dma.c ****     hdma->DmaBaseAddress = DMA2;
  57              		.loc 1 193 0
  58 001a 1C4F     		ldr	r7, .L12+12
 192:Drivers/STM32F1xx_HAL_Driver/Src/stm32f1xx_hal_dma.c ****     hdma->DmaBaseAddress = DMA2;
  59              		.loc 1 192 0
  60 001c 0909     		lsrs	r1, r1, #4
  61 001e 8900     		lsls	r1, r1, #2
  62              	.L4:
 194:Drivers/STM32F1xx_HAL_Driver/Src/stm32f1xx_hal_dma.c ****   }
 195:Drivers/STM32F1xx_HAL_Driver/Src/stm32f1xx_hal_dma.c **** #else
 196:Drivers/STM32F1xx_HAL_Driver/Src/stm32f1xx_hal_dma.c ****   /* DMA1 */
 197:Drivers/STM32F1xx_HAL_Driver/Src/stm32f1xx_hal_dma.c ****   hdma->ChannelIndex = (((uint32_t)hdma->Instance - (uint32_t)DMA1_Channel1) / ((uint32_t)DMA1_Chan
 198:Drivers/STM32F1xx_HAL_Driver/Src/stm32f1xx_hal_dma.c ****   hdma->DmaBaseAddress = DMA1;
 199:Drivers/STM32F1xx_HAL_Driver/Src/stm32f1xx_hal_dma.c **** #endif /* STM32F101xE || STM32F101xG || STM32F103xE || STM32F103xG || STM32F100xE || STM32F105xC ||
 200:Drivers/STM32F1xx_HAL_Driver/Src/stm32f1xx_hal_dma.c **** 
 201:Drivers/STM32F1xx_HAL_Driver/Src/stm32f1xx_hal_dma.c ****   /* Change DMA peripheral state */
 202:Drivers/STM32F1xx_HAL_Driver/Src/stm32f1xx_hal_dma.c ****   hdma->State = HAL_DMA_STATE_BUSY;
 203:Drivers/STM32F1xx_HAL_Driver/Src/stm32f1xx_hal_dma.c **** 
 204:Drivers/STM32F1xx_HAL_Driver/Src/stm32f1xx_hal_dma.c ****   /* Get the CR register value */
 205:Drivers/STM32F1xx_HAL_Driver/Src/stm32f1xx_hal_dma.c ****   tmp = hdma->Instance->CCR;
 206:Drivers/STM32F1xx_HAL_Driver/Src/stm32f1xx_hal_dma.c **** 
 207:Drivers/STM32F1xx_HAL_Driver/Src/stm32f1xx_hal_dma.c ****   /* Clear PL, MSIZE, PSIZE, MINC, PINC, CIRC and DIR bits */
 208:Drivers/STM32F1xx_HAL_Driver/Src/stm32f1xx_hal_dma.c ****   tmp &= ((uint32_t)~(DMA_CCR_PL    | DMA_CCR_MSIZE  | DMA_CCR_PSIZE  | \
 209:Drivers/STM32F1xx_HAL_Driver/Src/stm32f1xx_hal_dma.c ****                       DMA_CCR_MINC  | DMA_CCR_PINC   | DMA_CCR_CIRC   | \
 210:Drivers/STM32F1xx_HAL_Driver/Src/stm32f1xx_hal_dma.c ****                       DMA_CCR_DIR));
 211:Drivers/STM32F1xx_HAL_Driver/Src/stm32f1xx_hal_dma.c **** 
 212:Drivers/STM32F1xx_HAL_Driver/Src/stm32f1xx_hal_dma.c ****   /* Prepare the DMA Channel configuration */
 213:Drivers/STM32F1xx_HAL_Driver/Src/stm32f1xx_hal_dma.c ****   tmp |=  hdma->Init.Direction        |
 214:Drivers/STM32F1xx_HAL_Driver/Src/stm32f1xx_hal_dma.c ****           hdma->Init.PeriphInc           | hdma->Init.MemInc           |
 215:Drivers/STM32F1xx_HAL_Driver/Src/stm32f1xx_hal_dma.c ****           hdma->Init.PeriphDataAlignment | hdma->Init.MemDataAlignment |
 216:Drivers/STM32F1xx_HAL_Driver/Src/stm32f1xx_hal_dma.c ****           hdma->Init.Mode                | hdma->Init.Priority;
 217:Drivers/STM32F1xx_HAL_Driver/Src/stm32f1xx_hal_dma.c **** 
 218:Drivers/STM32F1xx_HAL_Driver/Src/stm32f1xx_hal_dma.c ****   /* Write to DMA Channel CR register */
 219:Drivers/STM32F1xx_HAL_Driver/Src/stm32f1xx_hal_dma.c ****   hdma->Instance->CCR = tmp;
 220:Drivers/STM32F1xx_HAL_Driver/Src/stm32f1xx_hal_dma.c **** 
 221:Drivers/STM32F1xx_HAL_Driver/Src/stm32f1xx_hal_dma.c **** 
 222:Drivers/STM32F1xx_HAL_Driver/Src/stm32f1xx_hal_dma.c ****   /* Clean callbacks */
ARM GAS  /tmp/ccUJvcf6.s 			page 6


 223:Drivers/STM32F1xx_HAL_Driver/Src/stm32f1xx_hal_dma.c ****   hdma->XferCpltCallback = NULL;
  63              		.loc 1 223 0
  64 0020 0024     		movs	r4, #0
 213:Drivers/STM32F1xx_HAL_Driver/Src/stm32f1xx_hal_dma.c ****           hdma->Init.PeriphInc           | hdma->Init.MemInc           |
  65              		.loc 1 213 0
  66 0022 D3E90126 		ldrd	r2, r6, [r3, #4]
 224:Drivers/STM32F1xx_HAL_Driver/Src/stm32f1xx_hal_dma.c ****   hdma->XferHalfCpltCallback = NULL;
 225:Drivers/STM32F1xx_HAL_Driver/Src/stm32f1xx_hal_dma.c ****   hdma->XferErrorCallback = NULL;
 226:Drivers/STM32F1xx_HAL_Driver/Src/stm32f1xx_hal_dma.c ****   hdma->XferAbortCallback = NULL;
 227:Drivers/STM32F1xx_HAL_Driver/Src/stm32f1xx_hal_dma.c **** 
 228:Drivers/STM32F1xx_HAL_Driver/Src/stm32f1xx_hal_dma.c ****   /* Initialise the error code */
 229:Drivers/STM32F1xx_HAL_Driver/Src/stm32f1xx_hal_dma.c ****   hdma->ErrorCode = HAL_DMA_ERROR_NONE;
 230:Drivers/STM32F1xx_HAL_Driver/Src/stm32f1xx_hal_dma.c **** 
 231:Drivers/STM32F1xx_HAL_Driver/Src/stm32f1xx_hal_dma.c ****   /* Initialize the DMA state*/
 232:Drivers/STM32F1xx_HAL_Driver/Src/stm32f1xx_hal_dma.c ****   hdma->State = HAL_DMA_STATE_READY;
  67              		.loc 1 232 0
  68 0026 0125     		movs	r5, #1
 213:Drivers/STM32F1xx_HAL_Driver/Src/stm32f1xx_hal_dma.c ****           hdma->Init.PeriphInc           | hdma->Init.MemInc           |
  69              		.loc 1 213 0
  70 0028 3243     		orrs	r2, r2, r6
 214:Drivers/STM32F1xx_HAL_Driver/Src/stm32f1xx_hal_dma.c ****           hdma->Init.PeriphDataAlignment | hdma->Init.MemDataAlignment |
  71              		.loc 1 214 0
  72 002a DE68     		ldr	r6, [r3, #12]
  73 002c 1964     		str	r1, [r3, #64]
  74 002e 3243     		orrs	r2, r2, r6
 215:Drivers/STM32F1xx_HAL_Driver/Src/stm32f1xx_hal_dma.c ****           hdma->Init.Mode                | hdma->Init.Priority;
  75              		.loc 1 215 0
  76 0030 D3E90461 		ldrd	r6, r1, [r3, #16]
 214:Drivers/STM32F1xx_HAL_Driver/Src/stm32f1xx_hal_dma.c ****           hdma->Init.PeriphDataAlignment | hdma->Init.MemDataAlignment |
  77              		.loc 1 214 0
  78 0034 3243     		orrs	r2, r2, r6
 215:Drivers/STM32F1xx_HAL_Driver/Src/stm32f1xx_hal_dma.c ****           hdma->Init.Mode                | hdma->Init.Priority;
  79              		.loc 1 215 0
  80 0036 9E69     		ldr	r6, [r3, #24]
  81 0038 0A43     		orrs	r2, r2, r1
 205:Drivers/STM32F1xx_HAL_Driver/Src/stm32f1xx_hal_dma.c **** 
  82              		.loc 1 205 0
  83 003a 0168     		ldr	r1, [r0]
  84              	.LVL2:
 215:Drivers/STM32F1xx_HAL_Driver/Src/stm32f1xx_hal_dma.c ****           hdma->Init.Mode                | hdma->Init.Priority;
  85              		.loc 1 215 0
  86 003c 3243     		orrs	r2, r2, r6
 216:Drivers/STM32F1xx_HAL_Driver/Src/stm32f1xx_hal_dma.c **** 
  87              		.loc 1 216 0
  88 003e DE69     		ldr	r6, [r3, #28]
 208:Drivers/STM32F1xx_HAL_Driver/Src/stm32f1xx_hal_dma.c ****                       DMA_CCR_MINC  | DMA_CCR_PINC   | DMA_CCR_CIRC   | \
  89              		.loc 1 208 0
  90 0040 21F47F51 		bic	r1, r1, #16320
  91              	.LVL3:
 216:Drivers/STM32F1xx_HAL_Driver/Src/stm32f1xx_hal_dma.c **** 
  92              		.loc 1 216 0
  93 0044 3243     		orrs	r2, r2, r6
 208:Drivers/STM32F1xx_HAL_Driver/Src/stm32f1xx_hal_dma.c ****                       DMA_CCR_MINC  | DMA_CCR_PINC   | DMA_CCR_CIRC   | \
  94              		.loc 1 208 0
  95 0046 21F03001 		bic	r1, r1, #48
  96              	.LVL4:
 213:Drivers/STM32F1xx_HAL_Driver/Src/stm32f1xx_hal_dma.c ****           hdma->Init.PeriphInc           | hdma->Init.MemInc           |
ARM GAS  /tmp/ccUJvcf6.s 			page 7


  97              		.loc 1 213 0
  98 004a 0A43     		orrs	r2, r2, r1
  99              	.LVL5:
 100 004c DF63     		str	r7, [r3, #60]
 219:Drivers/STM32F1xx_HAL_Driver/Src/stm32f1xx_hal_dma.c **** 
 101              		.loc 1 219 0
 102 004e 0260     		str	r2, [r0]
 233:Drivers/STM32F1xx_HAL_Driver/Src/stm32f1xx_hal_dma.c ****   /* Allocate lock resource and initialize it */
 234:Drivers/STM32F1xx_HAL_Driver/Src/stm32f1xx_hal_dma.c ****   hdma->Lock = HAL_UNLOCKED;
 235:Drivers/STM32F1xx_HAL_Driver/Src/stm32f1xx_hal_dma.c ****   
 236:Drivers/STM32F1xx_HAL_Driver/Src/stm32f1xx_hal_dma.c ****   return HAL_OK;
 103              		.loc 1 236 0
 104 0050 2046     		mov	r0, r4
 224:Drivers/STM32F1xx_HAL_Driver/Src/stm32f1xx_hal_dma.c ****   hdma->XferErrorCallback = NULL;
 105              		.loc 1 224 0
 106 0052 C3E90A44 		strd	r4, r4, [r3, #40]
 226:Drivers/STM32F1xx_HAL_Driver/Src/stm32f1xx_hal_dma.c **** 
 107              		.loc 1 226 0
 108 0056 C3E90C44 		strd	r4, r4, [r3, #48]
 229:Drivers/STM32F1xx_HAL_Driver/Src/stm32f1xx_hal_dma.c **** 
 109              		.loc 1 229 0
 110 005a 9C63     		str	r4, [r3, #56]
 234:Drivers/STM32F1xx_HAL_Driver/Src/stm32f1xx_hal_dma.c ****   
 111              		.loc 1 234 0
 112 005c 83F82040 		strb	r4, [r3, #32]
 232:Drivers/STM32F1xx_HAL_Driver/Src/stm32f1xx_hal_dma.c ****   /* Allocate lock resource and initialize it */
 113              		.loc 1 232 0
 114 0060 83F82150 		strb	r5, [r3, #33]
 237:Drivers/STM32F1xx_HAL_Driver/Src/stm32f1xx_hal_dma.c **** }
 115              		.loc 1 237 0
 116 0064 F0BC     		pop	{r4, r5, r6, r7}
 117              	.LCFI1:
 118              		.cfi_remember_state
 119              		.cfi_restore 7
 120              		.cfi_restore 6
 121              		.cfi_restore 5
 122              		.cfi_restore 4
 123              		.cfi_def_cfa_offset 0
 124 0066 7047     		bx	lr
 125              	.LVL6:
 126              	.L11:
 127              	.LCFI2:
 128              		.cfi_restore_state
 186:Drivers/STM32F1xx_HAL_Driver/Src/stm32f1xx_hal_dma.c ****     hdma->DmaBaseAddress = DMA1;
 129              		.loc 1 186 0
 130 0068 0949     		ldr	r1, .L12+16
 131 006a 074A     		ldr	r2, .L12+8
 132 006c 0144     		add	r1, r1, r0
 133 006e A2FB0121 		umull	r2, r1, r2, r1
 134 0072 0909     		lsrs	r1, r1, #4
 135 0074 8900     		lsls	r1, r1, #2
 187:Drivers/STM32F1xx_HAL_Driver/Src/stm32f1xx_hal_dma.c ****   }
 136              		.loc 1 187 0
 137 0076 074F     		ldr	r7, .L12+20
 138 0078 D2E7     		b	.L4
 139              	.LVL7:
 140              	.L5:
ARM GAS  /tmp/ccUJvcf6.s 			page 8


 141              	.LCFI3:
 142              		.cfi_def_cfa_offset 0
 143              		.cfi_restore 4
 144              		.cfi_restore 5
 145              		.cfi_restore 6
 146              		.cfi_restore 7
 168:Drivers/STM32F1xx_HAL_Driver/Src/stm32f1xx_hal_dma.c ****   }
 147              		.loc 1 168 0
 148 007a 0120     		movs	r0, #1
 149              	.LVL8:
 150              		.loc 1 237 0
 151 007c 7047     		bx	lr
 152              	.L13:
 153 007e 00BF     		.align	2
 154              	.L12:
 155 0080 07040240 		.word	1073873927
 156 0084 F8FBFDBF 		.word	-1073873928
 157 0088 CDCCCCCC 		.word	-858993459
 158 008c 00040240 		.word	1073873920
 159 0090 F8FFFDBF 		.word	-1073872904
 160 0094 00000240 		.word	1073872896
 161              		.cfi_endproc
 162              	.LFE66:
 164              		.section	.text.HAL_DMA_DeInit,"ax",%progbits
 165              		.align	1
 166              		.p2align 2,,3
 167              		.global	HAL_DMA_DeInit
 168              		.syntax unified
 169              		.thumb
 170              		.thumb_func
 171              		.fpu softvfp
 173              	HAL_DMA_DeInit:
 174              	.LFB67:
 238:Drivers/STM32F1xx_HAL_Driver/Src/stm32f1xx_hal_dma.c **** 
 239:Drivers/STM32F1xx_HAL_Driver/Src/stm32f1xx_hal_dma.c **** /**
 240:Drivers/STM32F1xx_HAL_Driver/Src/stm32f1xx_hal_dma.c ****   * @brief  DeInitialize the DMA peripheral.
 241:Drivers/STM32F1xx_HAL_Driver/Src/stm32f1xx_hal_dma.c ****   * @param  hdma: pointer to a DMA_HandleTypeDef structure that contains
 242:Drivers/STM32F1xx_HAL_Driver/Src/stm32f1xx_hal_dma.c ****   *               the configuration information for the specified DMA Channel.
 243:Drivers/STM32F1xx_HAL_Driver/Src/stm32f1xx_hal_dma.c ****   * @retval HAL status
 244:Drivers/STM32F1xx_HAL_Driver/Src/stm32f1xx_hal_dma.c ****   */
 245:Drivers/STM32F1xx_HAL_Driver/Src/stm32f1xx_hal_dma.c **** HAL_StatusTypeDef HAL_DMA_DeInit(DMA_HandleTypeDef *hdma)
 246:Drivers/STM32F1xx_HAL_Driver/Src/stm32f1xx_hal_dma.c **** {
 175              		.loc 1 246 0
 176              		.cfi_startproc
 177              		@ args = 0, pretend = 0, frame = 0
 178              		@ frame_needed = 0, uses_anonymous_args = 0
 179              		@ link register save eliminated.
 180              	.LVL9:
 247:Drivers/STM32F1xx_HAL_Driver/Src/stm32f1xx_hal_dma.c ****   /* Check the DMA handle allocation */
 248:Drivers/STM32F1xx_HAL_Driver/Src/stm32f1xx_hal_dma.c ****   if(hdma == NULL)
 181              		.loc 1 248 0
 182 0000 68B3     		cbz	r0, .L18
 249:Drivers/STM32F1xx_HAL_Driver/Src/stm32f1xx_hal_dma.c ****   {
 250:Drivers/STM32F1xx_HAL_Driver/Src/stm32f1xx_hal_dma.c ****     return HAL_ERROR;
 251:Drivers/STM32F1xx_HAL_Driver/Src/stm32f1xx_hal_dma.c ****   }
 252:Drivers/STM32F1xx_HAL_Driver/Src/stm32f1xx_hal_dma.c **** 
 253:Drivers/STM32F1xx_HAL_Driver/Src/stm32f1xx_hal_dma.c ****   /* Check the parameters */
ARM GAS  /tmp/ccUJvcf6.s 			page 9


 254:Drivers/STM32F1xx_HAL_Driver/Src/stm32f1xx_hal_dma.c ****   assert_param(IS_DMA_ALL_INSTANCE(hdma->Instance));
 255:Drivers/STM32F1xx_HAL_Driver/Src/stm32f1xx_hal_dma.c **** 
 256:Drivers/STM32F1xx_HAL_Driver/Src/stm32f1xx_hal_dma.c ****   /* Disable the selected DMA Channelx */
 257:Drivers/STM32F1xx_HAL_Driver/Src/stm32f1xx_hal_dma.c ****   __HAL_DMA_DISABLE(hdma);
 258:Drivers/STM32F1xx_HAL_Driver/Src/stm32f1xx_hal_dma.c **** 
 259:Drivers/STM32F1xx_HAL_Driver/Src/stm32f1xx_hal_dma.c ****   /* Reset DMA Channel control register */
 260:Drivers/STM32F1xx_HAL_Driver/Src/stm32f1xx_hal_dma.c ****   hdma->Instance->CCR  = 0U;
 183              		.loc 1 260 0
 184 0002 0023     		movs	r3, #0
 257:Drivers/STM32F1xx_HAL_Driver/Src/stm32f1xx_hal_dma.c **** 
 185              		.loc 1 257 0
 186 0004 0268     		ldr	r2, [r0]
 246:Drivers/STM32F1xx_HAL_Driver/Src/stm32f1xx_hal_dma.c ****   /* Check the DMA handle allocation */
 187              		.loc 1 246 0
 188 0006 30B4     		push	{r4, r5}
 189              	.LCFI4:
 190              		.cfi_def_cfa_offset 8
 191              		.cfi_offset 4, -8
 192              		.cfi_offset 5, -4
 193 0008 0146     		mov	r1, r0
 261:Drivers/STM32F1xx_HAL_Driver/Src/stm32f1xx_hal_dma.c **** 
 262:Drivers/STM32F1xx_HAL_Driver/Src/stm32f1xx_hal_dma.c ****   /* Reset DMA Channel Number of Data to Transfer register */
 263:Drivers/STM32F1xx_HAL_Driver/Src/stm32f1xx_hal_dma.c ****   hdma->Instance->CNDTR = 0U;
 264:Drivers/STM32F1xx_HAL_Driver/Src/stm32f1xx_hal_dma.c **** 
 265:Drivers/STM32F1xx_HAL_Driver/Src/stm32f1xx_hal_dma.c ****   /* Reset DMA Channel peripheral address register */
 266:Drivers/STM32F1xx_HAL_Driver/Src/stm32f1xx_hal_dma.c ****   hdma->Instance->CPAR  = 0U;
 267:Drivers/STM32F1xx_HAL_Driver/Src/stm32f1xx_hal_dma.c **** 
 268:Drivers/STM32F1xx_HAL_Driver/Src/stm32f1xx_hal_dma.c ****   /* Reset DMA Channel memory address register */
 269:Drivers/STM32F1xx_HAL_Driver/Src/stm32f1xx_hal_dma.c ****   hdma->Instance->CMAR = 0U;
 270:Drivers/STM32F1xx_HAL_Driver/Src/stm32f1xx_hal_dma.c **** 
 271:Drivers/STM32F1xx_HAL_Driver/Src/stm32f1xx_hal_dma.c **** #if defined (STM32F101xE) || defined (STM32F101xG) || defined (STM32F103xE) || defined (STM32F103xG
 272:Drivers/STM32F1xx_HAL_Driver/Src/stm32f1xx_hal_dma.c ****   /* calculation of the channel index */
 273:Drivers/STM32F1xx_HAL_Driver/Src/stm32f1xx_hal_dma.c ****   if ((uint32_t)(hdma->Instance) < (uint32_t)(DMA2_Channel1))
 194              		.loc 1 273 0
 195 000a 164C     		ldr	r4, .L24
 257:Drivers/STM32F1xx_HAL_Driver/Src/stm32f1xx_hal_dma.c **** 
 196              		.loc 1 257 0
 197 000c 1068     		ldr	r0, [r2]
 198              	.LVL10:
 199              		.loc 1 273 0
 200 000e A242     		cmp	r2, r4
 257:Drivers/STM32F1xx_HAL_Driver/Src/stm32f1xx_hal_dma.c **** 
 201              		.loc 1 257 0
 202 0010 20F00100 		bic	r0, r0, #1
 203 0014 1060     		str	r0, [r2]
 260:Drivers/STM32F1xx_HAL_Driver/Src/stm32f1xx_hal_dma.c **** 
 204              		.loc 1 260 0
 205 0016 1360     		str	r3, [r2]
 263:Drivers/STM32F1xx_HAL_Driver/Src/stm32f1xx_hal_dma.c **** 
 206              		.loc 1 263 0
 207 0018 5360     		str	r3, [r2, #4]
 266:Drivers/STM32F1xx_HAL_Driver/Src/stm32f1xx_hal_dma.c **** 
 208              		.loc 1 266 0
 209 001a 9360     		str	r3, [r2, #8]
 269:Drivers/STM32F1xx_HAL_Driver/Src/stm32f1xx_hal_dma.c **** 
 210              		.loc 1 269 0
 211 001c D360     		str	r3, [r2, #12]
ARM GAS  /tmp/ccUJvcf6.s 			page 10


 212              		.loc 1 273 0
 213 001e 15D9     		bls	.L23
 274:Drivers/STM32F1xx_HAL_Driver/Src/stm32f1xx_hal_dma.c ****   {
 275:Drivers/STM32F1xx_HAL_Driver/Src/stm32f1xx_hal_dma.c ****     /* DMA1 */
 276:Drivers/STM32F1xx_HAL_Driver/Src/stm32f1xx_hal_dma.c ****     hdma->ChannelIndex = (((uint32_t)hdma->Instance - (uint32_t)DMA1_Channel1) / ((uint32_t)DMA1_Ch
 277:Drivers/STM32F1xx_HAL_Driver/Src/stm32f1xx_hal_dma.c ****     hdma->DmaBaseAddress = DMA1;
 278:Drivers/STM32F1xx_HAL_Driver/Src/stm32f1xx_hal_dma.c ****   }
 279:Drivers/STM32F1xx_HAL_Driver/Src/stm32f1xx_hal_dma.c ****   else 
 280:Drivers/STM32F1xx_HAL_Driver/Src/stm32f1xx_hal_dma.c ****   {
 281:Drivers/STM32F1xx_HAL_Driver/Src/stm32f1xx_hal_dma.c ****     /* DMA2 */
 282:Drivers/STM32F1xx_HAL_Driver/Src/stm32f1xx_hal_dma.c ****     hdma->ChannelIndex = (((uint32_t)hdma->Instance - (uint32_t)DMA2_Channel1) / ((uint32_t)DMA2_Ch
 214              		.loc 1 282 0
 215 0020 114B     		ldr	r3, .L24+4
 216 0022 1248     		ldr	r0, .L24+8
 217 0024 1344     		add	r3, r3, r2
 218 0026 A0FB0323 		umull	r2, r3, r0, r3
 283:Drivers/STM32F1xx_HAL_Driver/Src/stm32f1xx_hal_dma.c ****     hdma->DmaBaseAddress = DMA2;
 219              		.loc 1 283 0
 220 002a 114D     		ldr	r5, .L24+12
 282:Drivers/STM32F1xx_HAL_Driver/Src/stm32f1xx_hal_dma.c ****     hdma->DmaBaseAddress = DMA2;
 221              		.loc 1 282 0
 222 002c 1B09     		lsrs	r3, r3, #4
 223 002e 9B00     		lsls	r3, r3, #2
 224              	.L17:
 284:Drivers/STM32F1xx_HAL_Driver/Src/stm32f1xx_hal_dma.c ****   }
 285:Drivers/STM32F1xx_HAL_Driver/Src/stm32f1xx_hal_dma.c **** #else
 286:Drivers/STM32F1xx_HAL_Driver/Src/stm32f1xx_hal_dma.c ****   /* DMA1 */
 287:Drivers/STM32F1xx_HAL_Driver/Src/stm32f1xx_hal_dma.c ****   hdma->ChannelIndex = (((uint32_t)hdma->Instance - (uint32_t)DMA1_Channel1) / ((uint32_t)DMA1_Chan
 288:Drivers/STM32F1xx_HAL_Driver/Src/stm32f1xx_hal_dma.c ****   hdma->DmaBaseAddress = DMA1;
 289:Drivers/STM32F1xx_HAL_Driver/Src/stm32f1xx_hal_dma.c **** #endif /* STM32F101xE || STM32F101xG || STM32F103xE || STM32F103xG || STM32F100xE || STM32F105xC ||
 290:Drivers/STM32F1xx_HAL_Driver/Src/stm32f1xx_hal_dma.c **** 
 291:Drivers/STM32F1xx_HAL_Driver/Src/stm32f1xx_hal_dma.c ****   /* Clear all flags */
 292:Drivers/STM32F1xx_HAL_Driver/Src/stm32f1xx_hal_dma.c ****   hdma->DmaBaseAddress->IFCR = (DMA_ISR_GIF1 << (hdma->ChannelIndex));
 225              		.loc 1 292 0
 226 0030 0124     		movs	r4, #1
 293:Drivers/STM32F1xx_HAL_Driver/Src/stm32f1xx_hal_dma.c **** 
 294:Drivers/STM32F1xx_HAL_Driver/Src/stm32f1xx_hal_dma.c ****   /* Initialize the error code */
 295:Drivers/STM32F1xx_HAL_Driver/Src/stm32f1xx_hal_dma.c ****   hdma->ErrorCode = HAL_DMA_ERROR_NONE;
 227              		.loc 1 295 0
 228 0032 0022     		movs	r2, #0
 292:Drivers/STM32F1xx_HAL_Driver/Src/stm32f1xx_hal_dma.c **** 
 229              		.loc 1 292 0
 230 0034 9C40     		lsls	r4, r4, r3
 231 0036 C1E90F53 		strd	r5, r3, [r1, #60]
 296:Drivers/STM32F1xx_HAL_Driver/Src/stm32f1xx_hal_dma.c **** 
 297:Drivers/STM32F1xx_HAL_Driver/Src/stm32f1xx_hal_dma.c ****   /* Initialize the DMA state */
 298:Drivers/STM32F1xx_HAL_Driver/Src/stm32f1xx_hal_dma.c ****   hdma->State = HAL_DMA_STATE_RESET;
 299:Drivers/STM32F1xx_HAL_Driver/Src/stm32f1xx_hal_dma.c **** 
 300:Drivers/STM32F1xx_HAL_Driver/Src/stm32f1xx_hal_dma.c ****   /* Release Lock */
 301:Drivers/STM32F1xx_HAL_Driver/Src/stm32f1xx_hal_dma.c ****   __HAL_UNLOCK(hdma);
 302:Drivers/STM32F1xx_HAL_Driver/Src/stm32f1xx_hal_dma.c **** 
 303:Drivers/STM32F1xx_HAL_Driver/Src/stm32f1xx_hal_dma.c ****   return HAL_OK;
 232              		.loc 1 303 0
 233 003a 1046     		mov	r0, r2
 292:Drivers/STM32F1xx_HAL_Driver/Src/stm32f1xx_hal_dma.c **** 
 234              		.loc 1 292 0
 235 003c 6C60     		str	r4, [r5, #4]
ARM GAS  /tmp/ccUJvcf6.s 			page 11


 295:Drivers/STM32F1xx_HAL_Driver/Src/stm32f1xx_hal_dma.c **** 
 236              		.loc 1 295 0
 237 003e 8A63     		str	r2, [r1, #56]
 298:Drivers/STM32F1xx_HAL_Driver/Src/stm32f1xx_hal_dma.c **** 
 238              		.loc 1 298 0
 239 0040 81F82120 		strb	r2, [r1, #33]
 301:Drivers/STM32F1xx_HAL_Driver/Src/stm32f1xx_hal_dma.c **** 
 240              		.loc 1 301 0
 241 0044 81F82020 		strb	r2, [r1, #32]
 304:Drivers/STM32F1xx_HAL_Driver/Src/stm32f1xx_hal_dma.c **** }
 242              		.loc 1 304 0
 243 0048 30BC     		pop	{r4, r5}
 244              	.LCFI5:
 245              		.cfi_remember_state
 246              		.cfi_restore 5
 247              		.cfi_restore 4
 248              		.cfi_def_cfa_offset 0
 249 004a 7047     		bx	lr
 250              	.L23:
 251              	.LCFI6:
 252              		.cfi_restore_state
 276:Drivers/STM32F1xx_HAL_Driver/Src/stm32f1xx_hal_dma.c ****     hdma->DmaBaseAddress = DMA1;
 253              		.loc 1 276 0
 254 004c 094B     		ldr	r3, .L24+16
 255 004e 0748     		ldr	r0, .L24+8
 256 0050 1344     		add	r3, r3, r2
 257 0052 A0FB0323 		umull	r2, r3, r0, r3
 258 0056 1B09     		lsrs	r3, r3, #4
 259 0058 9B00     		lsls	r3, r3, #2
 277:Drivers/STM32F1xx_HAL_Driver/Src/stm32f1xx_hal_dma.c ****   }
 260              		.loc 1 277 0
 261 005a 074D     		ldr	r5, .L24+20
 262 005c E8E7     		b	.L17
 263              	.LVL11:
 264              	.L18:
 265              	.LCFI7:
 266              		.cfi_def_cfa_offset 0
 267              		.cfi_restore 4
 268              		.cfi_restore 5
 250:Drivers/STM32F1xx_HAL_Driver/Src/stm32f1xx_hal_dma.c ****   }
 269              		.loc 1 250 0
 270 005e 0120     		movs	r0, #1
 271              	.LVL12:
 272              		.loc 1 304 0
 273 0060 7047     		bx	lr
 274              	.L25:
 275 0062 00BF     		.align	2
 276              	.L24:
 277 0064 07040240 		.word	1073873927
 278 0068 F8FBFDBF 		.word	-1073873928
 279 006c CDCCCCCC 		.word	-858993459
 280 0070 00040240 		.word	1073873920
 281 0074 F8FFFDBF 		.word	-1073872904
 282 0078 00000240 		.word	1073872896
 283              		.cfi_endproc
 284              	.LFE67:
 286              		.section	.text.HAL_DMA_Start,"ax",%progbits
ARM GAS  /tmp/ccUJvcf6.s 			page 12


 287              		.align	1
 288              		.p2align 2,,3
 289              		.global	HAL_DMA_Start
 290              		.syntax unified
 291              		.thumb
 292              		.thumb_func
 293              		.fpu softvfp
 295              	HAL_DMA_Start:
 296              	.LFB68:
 305:Drivers/STM32F1xx_HAL_Driver/Src/stm32f1xx_hal_dma.c **** 
 306:Drivers/STM32F1xx_HAL_Driver/Src/stm32f1xx_hal_dma.c **** /**
 307:Drivers/STM32F1xx_HAL_Driver/Src/stm32f1xx_hal_dma.c ****   * @}
 308:Drivers/STM32F1xx_HAL_Driver/Src/stm32f1xx_hal_dma.c ****   */
 309:Drivers/STM32F1xx_HAL_Driver/Src/stm32f1xx_hal_dma.c **** 
 310:Drivers/STM32F1xx_HAL_Driver/Src/stm32f1xx_hal_dma.c **** /** @defgroup DMA_Exported_Functions_Group2 Input and Output operation functions
 311:Drivers/STM32F1xx_HAL_Driver/Src/stm32f1xx_hal_dma.c ****   *  @brief   Input and Output operation functions
 312:Drivers/STM32F1xx_HAL_Driver/Src/stm32f1xx_hal_dma.c ****   *
 313:Drivers/STM32F1xx_HAL_Driver/Src/stm32f1xx_hal_dma.c **** @verbatim
 314:Drivers/STM32F1xx_HAL_Driver/Src/stm32f1xx_hal_dma.c ****  ===============================================================================
 315:Drivers/STM32F1xx_HAL_Driver/Src/stm32f1xx_hal_dma.c ****                       #####  IO operation functions  #####
 316:Drivers/STM32F1xx_HAL_Driver/Src/stm32f1xx_hal_dma.c ****  ===============================================================================
 317:Drivers/STM32F1xx_HAL_Driver/Src/stm32f1xx_hal_dma.c ****     [..]  This section provides functions allowing to:
 318:Drivers/STM32F1xx_HAL_Driver/Src/stm32f1xx_hal_dma.c ****       (+) Configure the source, destination address and data length and Start DMA transfer
 319:Drivers/STM32F1xx_HAL_Driver/Src/stm32f1xx_hal_dma.c ****       (+) Configure the source, destination address and data length and
 320:Drivers/STM32F1xx_HAL_Driver/Src/stm32f1xx_hal_dma.c ****           Start DMA transfer with interrupt
 321:Drivers/STM32F1xx_HAL_Driver/Src/stm32f1xx_hal_dma.c ****       (+) Abort DMA transfer
 322:Drivers/STM32F1xx_HAL_Driver/Src/stm32f1xx_hal_dma.c ****       (+) Poll for transfer complete
 323:Drivers/STM32F1xx_HAL_Driver/Src/stm32f1xx_hal_dma.c ****       (+) Handle DMA interrupt request
 324:Drivers/STM32F1xx_HAL_Driver/Src/stm32f1xx_hal_dma.c **** 
 325:Drivers/STM32F1xx_HAL_Driver/Src/stm32f1xx_hal_dma.c **** @endverbatim
 326:Drivers/STM32F1xx_HAL_Driver/Src/stm32f1xx_hal_dma.c ****   * @{
 327:Drivers/STM32F1xx_HAL_Driver/Src/stm32f1xx_hal_dma.c ****   */
 328:Drivers/STM32F1xx_HAL_Driver/Src/stm32f1xx_hal_dma.c **** 
 329:Drivers/STM32F1xx_HAL_Driver/Src/stm32f1xx_hal_dma.c **** /**
 330:Drivers/STM32F1xx_HAL_Driver/Src/stm32f1xx_hal_dma.c ****   * @brief  Start the DMA Transfer.
 331:Drivers/STM32F1xx_HAL_Driver/Src/stm32f1xx_hal_dma.c ****   * @param  hdma: pointer to a DMA_HandleTypeDef structure that contains
 332:Drivers/STM32F1xx_HAL_Driver/Src/stm32f1xx_hal_dma.c ****   *               the configuration information for the specified DMA Channel.
 333:Drivers/STM32F1xx_HAL_Driver/Src/stm32f1xx_hal_dma.c ****   * @param  SrcAddress: The source memory Buffer address
 334:Drivers/STM32F1xx_HAL_Driver/Src/stm32f1xx_hal_dma.c ****   * @param  DstAddress: The destination memory Buffer address
 335:Drivers/STM32F1xx_HAL_Driver/Src/stm32f1xx_hal_dma.c ****   * @param  DataLength: The length of data to be transferred from source to destination
 336:Drivers/STM32F1xx_HAL_Driver/Src/stm32f1xx_hal_dma.c ****   * @retval HAL status
 337:Drivers/STM32F1xx_HAL_Driver/Src/stm32f1xx_hal_dma.c ****   */
 338:Drivers/STM32F1xx_HAL_Driver/Src/stm32f1xx_hal_dma.c **** HAL_StatusTypeDef HAL_DMA_Start(DMA_HandleTypeDef *hdma, uint32_t SrcAddress, uint32_t DstAddress, 
 339:Drivers/STM32F1xx_HAL_Driver/Src/stm32f1xx_hal_dma.c **** {
 297              		.loc 1 339 0
 298              		.cfi_startproc
 299              		@ args = 0, pretend = 0, frame = 0
 300              		@ frame_needed = 0, uses_anonymous_args = 0
 301              		@ link register save eliminated.
 302              	.LVL13:
 303 0000 F0B4     		push	{r4, r5, r6, r7}
 304              	.LCFI8:
 305              		.cfi_def_cfa_offset 16
 306              		.cfi_offset 4, -16
 307              		.cfi_offset 5, -12
 308              		.cfi_offset 6, -8
 309              		.cfi_offset 7, -4
ARM GAS  /tmp/ccUJvcf6.s 			page 13


 340:Drivers/STM32F1xx_HAL_Driver/Src/stm32f1xx_hal_dma.c ****   HAL_StatusTypeDef status = HAL_OK;
 341:Drivers/STM32F1xx_HAL_Driver/Src/stm32f1xx_hal_dma.c **** 
 342:Drivers/STM32F1xx_HAL_Driver/Src/stm32f1xx_hal_dma.c ****   /* Check the parameters */
 343:Drivers/STM32F1xx_HAL_Driver/Src/stm32f1xx_hal_dma.c ****   assert_param(IS_DMA_BUFFER_SIZE(DataLength));
 344:Drivers/STM32F1xx_HAL_Driver/Src/stm32f1xx_hal_dma.c **** 
 345:Drivers/STM32F1xx_HAL_Driver/Src/stm32f1xx_hal_dma.c ****   /* Process locked */
 346:Drivers/STM32F1xx_HAL_Driver/Src/stm32f1xx_hal_dma.c ****   __HAL_LOCK(hdma);
 310              		.loc 1 346 0
 311 0002 90F82040 		ldrb	r4, [r0, #32]	@ zero_extendqisi2
 312 0006 012C     		cmp	r4, #1
 313 0008 2CD0     		beq	.L31
 314              		.loc 1 346 0 is_stmt 0 discriminator 2
 315 000a 0124     		movs	r4, #1
 347:Drivers/STM32F1xx_HAL_Driver/Src/stm32f1xx_hal_dma.c **** 
 348:Drivers/STM32F1xx_HAL_Driver/Src/stm32f1xx_hal_dma.c ****   if(HAL_DMA_STATE_READY == hdma->State)
 316              		.loc 1 348 0 is_stmt 1 discriminator 2
 317 000c 90F82150 		ldrb	r5, [r0, #33]	@ zero_extendqisi2
 346:Drivers/STM32F1xx_HAL_Driver/Src/stm32f1xx_hal_dma.c **** 
 318              		.loc 1 346 0 discriminator 2
 319 0010 80F82040 		strb	r4, [r0, #32]
 320              		.loc 1 348 0 discriminator 2
 321 0014 A542     		cmp	r5, r4
 322 0016 1ED1     		bne	.L28
 349:Drivers/STM32F1xx_HAL_Driver/Src/stm32f1xx_hal_dma.c ****   {
 350:Drivers/STM32F1xx_HAL_Driver/Src/stm32f1xx_hal_dma.c ****     /* Change DMA peripheral state */
 351:Drivers/STM32F1xx_HAL_Driver/Src/stm32f1xx_hal_dma.c ****     hdma->State = HAL_DMA_STATE_BUSY;
 352:Drivers/STM32F1xx_HAL_Driver/Src/stm32f1xx_hal_dma.c ****     hdma->ErrorCode = HAL_DMA_ERROR_NONE;
 323              		.loc 1 352 0
 324 0018 0026     		movs	r6, #0
 351:Drivers/STM32F1xx_HAL_Driver/Src/stm32f1xx_hal_dma.c ****     hdma->ErrorCode = HAL_DMA_ERROR_NONE;
 325              		.loc 1 351 0
 326 001a 4FF0020C 		mov	ip, #2
 353:Drivers/STM32F1xx_HAL_Driver/Src/stm32f1xx_hal_dma.c ****             
 354:Drivers/STM32F1xx_HAL_Driver/Src/stm32f1xx_hal_dma.c ****     /* Disable the peripheral */
 355:Drivers/STM32F1xx_HAL_Driver/Src/stm32f1xx_hal_dma.c ****     __HAL_DMA_DISABLE(hdma);
 327              		.loc 1 355 0
 328 001e 0468     		ldr	r4, [r0]
 352:Drivers/STM32F1xx_HAL_Driver/Src/stm32f1xx_hal_dma.c ****             
 329              		.loc 1 352 0
 330 0020 8663     		str	r6, [r0, #56]
 331              	.LBB6:
 332              	.LBB7:
 356:Drivers/STM32F1xx_HAL_Driver/Src/stm32f1xx_hal_dma.c ****     
 357:Drivers/STM32F1xx_HAL_Driver/Src/stm32f1xx_hal_dma.c ****     /* Configure the source, destination address and the data length & clear flags*/
 358:Drivers/STM32F1xx_HAL_Driver/Src/stm32f1xx_hal_dma.c ****     DMA_SetConfig(hdma, SrcAddress, DstAddress, DataLength);
 359:Drivers/STM32F1xx_HAL_Driver/Src/stm32f1xx_hal_dma.c ****     
 360:Drivers/STM32F1xx_HAL_Driver/Src/stm32f1xx_hal_dma.c ****     /* Enable the Peripheral */
 361:Drivers/STM32F1xx_HAL_Driver/Src/stm32f1xx_hal_dma.c ****     __HAL_DMA_ENABLE(hdma);
 362:Drivers/STM32F1xx_HAL_Driver/Src/stm32f1xx_hal_dma.c ****   }
 363:Drivers/STM32F1xx_HAL_Driver/Src/stm32f1xx_hal_dma.c ****   else
 364:Drivers/STM32F1xx_HAL_Driver/Src/stm32f1xx_hal_dma.c ****   {
 365:Drivers/STM32F1xx_HAL_Driver/Src/stm32f1xx_hal_dma.c ****    /* Process Unlocked */
 366:Drivers/STM32F1xx_HAL_Driver/Src/stm32f1xx_hal_dma.c ****    __HAL_UNLOCK(hdma);  
 367:Drivers/STM32F1xx_HAL_Driver/Src/stm32f1xx_hal_dma.c ****    status = HAL_BUSY;
 368:Drivers/STM32F1xx_HAL_Driver/Src/stm32f1xx_hal_dma.c ****   }  
 369:Drivers/STM32F1xx_HAL_Driver/Src/stm32f1xx_hal_dma.c ****   return status;
 370:Drivers/STM32F1xx_HAL_Driver/Src/stm32f1xx_hal_dma.c **** }
ARM GAS  /tmp/ccUJvcf6.s 			page 14


 371:Drivers/STM32F1xx_HAL_Driver/Src/stm32f1xx_hal_dma.c **** 
 372:Drivers/STM32F1xx_HAL_Driver/Src/stm32f1xx_hal_dma.c **** /**
 373:Drivers/STM32F1xx_HAL_Driver/Src/stm32f1xx_hal_dma.c ****   * @brief  Start the DMA Transfer with interrupt enabled.
 374:Drivers/STM32F1xx_HAL_Driver/Src/stm32f1xx_hal_dma.c ****   * @param  hdma: pointer to a DMA_HandleTypeDef structure that contains
 375:Drivers/STM32F1xx_HAL_Driver/Src/stm32f1xx_hal_dma.c ****   *               the configuration information for the specified DMA Channel.
 376:Drivers/STM32F1xx_HAL_Driver/Src/stm32f1xx_hal_dma.c ****   * @param  SrcAddress: The source memory Buffer address
 377:Drivers/STM32F1xx_HAL_Driver/Src/stm32f1xx_hal_dma.c ****   * @param  DstAddress: The destination memory Buffer address
 378:Drivers/STM32F1xx_HAL_Driver/Src/stm32f1xx_hal_dma.c ****   * @param  DataLength: The length of data to be transferred from source to destination
 379:Drivers/STM32F1xx_HAL_Driver/Src/stm32f1xx_hal_dma.c ****   * @retval HAL status
 380:Drivers/STM32F1xx_HAL_Driver/Src/stm32f1xx_hal_dma.c ****   */
 381:Drivers/STM32F1xx_HAL_Driver/Src/stm32f1xx_hal_dma.c **** HAL_StatusTypeDef HAL_DMA_Start_IT(DMA_HandleTypeDef *hdma, uint32_t SrcAddress, uint32_t DstAddres
 382:Drivers/STM32F1xx_HAL_Driver/Src/stm32f1xx_hal_dma.c **** {
 383:Drivers/STM32F1xx_HAL_Driver/Src/stm32f1xx_hal_dma.c ****   HAL_StatusTypeDef status = HAL_OK;
 384:Drivers/STM32F1xx_HAL_Driver/Src/stm32f1xx_hal_dma.c **** 
 385:Drivers/STM32F1xx_HAL_Driver/Src/stm32f1xx_hal_dma.c ****   /* Check the parameters */
 386:Drivers/STM32F1xx_HAL_Driver/Src/stm32f1xx_hal_dma.c ****   assert_param(IS_DMA_BUFFER_SIZE(DataLength));
 387:Drivers/STM32F1xx_HAL_Driver/Src/stm32f1xx_hal_dma.c **** 
 388:Drivers/STM32F1xx_HAL_Driver/Src/stm32f1xx_hal_dma.c ****   /* Process locked */
 389:Drivers/STM32F1xx_HAL_Driver/Src/stm32f1xx_hal_dma.c ****   __HAL_LOCK(hdma);
 390:Drivers/STM32F1xx_HAL_Driver/Src/stm32f1xx_hal_dma.c ****   
 391:Drivers/STM32F1xx_HAL_Driver/Src/stm32f1xx_hal_dma.c ****   if(HAL_DMA_STATE_READY == hdma->State)
 392:Drivers/STM32F1xx_HAL_Driver/Src/stm32f1xx_hal_dma.c ****   {
 393:Drivers/STM32F1xx_HAL_Driver/Src/stm32f1xx_hal_dma.c ****     /* Change DMA peripheral state */
 394:Drivers/STM32F1xx_HAL_Driver/Src/stm32f1xx_hal_dma.c ****     hdma->State = HAL_DMA_STATE_BUSY;
 395:Drivers/STM32F1xx_HAL_Driver/Src/stm32f1xx_hal_dma.c ****     hdma->ErrorCode = HAL_DMA_ERROR_NONE;
 396:Drivers/STM32F1xx_HAL_Driver/Src/stm32f1xx_hal_dma.c ****     
 397:Drivers/STM32F1xx_HAL_Driver/Src/stm32f1xx_hal_dma.c ****     /* Disable the peripheral */
 398:Drivers/STM32F1xx_HAL_Driver/Src/stm32f1xx_hal_dma.c ****     __HAL_DMA_DISABLE(hdma);
 399:Drivers/STM32F1xx_HAL_Driver/Src/stm32f1xx_hal_dma.c ****     
 400:Drivers/STM32F1xx_HAL_Driver/Src/stm32f1xx_hal_dma.c ****     /* Configure the source, destination address and the data length & clear flags*/
 401:Drivers/STM32F1xx_HAL_Driver/Src/stm32f1xx_hal_dma.c ****     DMA_SetConfig(hdma, SrcAddress, DstAddress, DataLength);
 402:Drivers/STM32F1xx_HAL_Driver/Src/stm32f1xx_hal_dma.c ****     
 403:Drivers/STM32F1xx_HAL_Driver/Src/stm32f1xx_hal_dma.c ****     /* Enable the transfer complete interrupt */
 404:Drivers/STM32F1xx_HAL_Driver/Src/stm32f1xx_hal_dma.c ****     /* Enable the transfer Error interrupt */
 405:Drivers/STM32F1xx_HAL_Driver/Src/stm32f1xx_hal_dma.c ****     if(NULL != hdma->XferHalfCpltCallback)
 406:Drivers/STM32F1xx_HAL_Driver/Src/stm32f1xx_hal_dma.c ****     {
 407:Drivers/STM32F1xx_HAL_Driver/Src/stm32f1xx_hal_dma.c ****       /* Enable the Half transfer complete interrupt as well */
 408:Drivers/STM32F1xx_HAL_Driver/Src/stm32f1xx_hal_dma.c ****       __HAL_DMA_ENABLE_IT(hdma, (DMA_IT_TC | DMA_IT_HT | DMA_IT_TE));
 409:Drivers/STM32F1xx_HAL_Driver/Src/stm32f1xx_hal_dma.c ****     }
 410:Drivers/STM32F1xx_HAL_Driver/Src/stm32f1xx_hal_dma.c ****     else
 411:Drivers/STM32F1xx_HAL_Driver/Src/stm32f1xx_hal_dma.c ****     {
 412:Drivers/STM32F1xx_HAL_Driver/Src/stm32f1xx_hal_dma.c ****       __HAL_DMA_DISABLE_IT(hdma, DMA_IT_HT);
 413:Drivers/STM32F1xx_HAL_Driver/Src/stm32f1xx_hal_dma.c ****       __HAL_DMA_ENABLE_IT(hdma, (DMA_IT_TC | DMA_IT_TE));
 414:Drivers/STM32F1xx_HAL_Driver/Src/stm32f1xx_hal_dma.c ****     }
 415:Drivers/STM32F1xx_HAL_Driver/Src/stm32f1xx_hal_dma.c ****     /* Enable the Peripheral */
 416:Drivers/STM32F1xx_HAL_Driver/Src/stm32f1xx_hal_dma.c ****     __HAL_DMA_ENABLE(hdma);
 417:Drivers/STM32F1xx_HAL_Driver/Src/stm32f1xx_hal_dma.c ****   }
 418:Drivers/STM32F1xx_HAL_Driver/Src/stm32f1xx_hal_dma.c ****   else
 419:Drivers/STM32F1xx_HAL_Driver/Src/stm32f1xx_hal_dma.c ****   {      
 420:Drivers/STM32F1xx_HAL_Driver/Src/stm32f1xx_hal_dma.c ****     /* Process Unlocked */
 421:Drivers/STM32F1xx_HAL_Driver/Src/stm32f1xx_hal_dma.c ****     __HAL_UNLOCK(hdma); 
 422:Drivers/STM32F1xx_HAL_Driver/Src/stm32f1xx_hal_dma.c **** 
 423:Drivers/STM32F1xx_HAL_Driver/Src/stm32f1xx_hal_dma.c ****     /* Remain BUSY */
 424:Drivers/STM32F1xx_HAL_Driver/Src/stm32f1xx_hal_dma.c ****     status = HAL_BUSY;
 425:Drivers/STM32F1xx_HAL_Driver/Src/stm32f1xx_hal_dma.c ****   }    
 426:Drivers/STM32F1xx_HAL_Driver/Src/stm32f1xx_hal_dma.c ****   return status;
 427:Drivers/STM32F1xx_HAL_Driver/Src/stm32f1xx_hal_dma.c **** }
ARM GAS  /tmp/ccUJvcf6.s 			page 15


 428:Drivers/STM32F1xx_HAL_Driver/Src/stm32f1xx_hal_dma.c **** 
 429:Drivers/STM32F1xx_HAL_Driver/Src/stm32f1xx_hal_dma.c **** /**
 430:Drivers/STM32F1xx_HAL_Driver/Src/stm32f1xx_hal_dma.c ****   * @brief  Abort the DMA Transfer.
 431:Drivers/STM32F1xx_HAL_Driver/Src/stm32f1xx_hal_dma.c ****   * @param  hdma: pointer to a DMA_HandleTypeDef structure that contains
 432:Drivers/STM32F1xx_HAL_Driver/Src/stm32f1xx_hal_dma.c ****   *               the configuration information for the specified DMA Channel.
 433:Drivers/STM32F1xx_HAL_Driver/Src/stm32f1xx_hal_dma.c ****   * @retval HAL status
 434:Drivers/STM32F1xx_HAL_Driver/Src/stm32f1xx_hal_dma.c ****   */
 435:Drivers/STM32F1xx_HAL_Driver/Src/stm32f1xx_hal_dma.c **** HAL_StatusTypeDef HAL_DMA_Abort(DMA_HandleTypeDef *hdma)
 436:Drivers/STM32F1xx_HAL_Driver/Src/stm32f1xx_hal_dma.c **** {
 437:Drivers/STM32F1xx_HAL_Driver/Src/stm32f1xx_hal_dma.c ****   HAL_StatusTypeDef status = HAL_OK;
 438:Drivers/STM32F1xx_HAL_Driver/Src/stm32f1xx_hal_dma.c **** 
 439:Drivers/STM32F1xx_HAL_Driver/Src/stm32f1xx_hal_dma.c ****   /* Disable DMA IT */
 440:Drivers/STM32F1xx_HAL_Driver/Src/stm32f1xx_hal_dma.c ****   __HAL_DMA_DISABLE_IT(hdma, (DMA_IT_TC | DMA_IT_HT | DMA_IT_TE));
 441:Drivers/STM32F1xx_HAL_Driver/Src/stm32f1xx_hal_dma.c ****     
 442:Drivers/STM32F1xx_HAL_Driver/Src/stm32f1xx_hal_dma.c ****   /* Disable the channel */
 443:Drivers/STM32F1xx_HAL_Driver/Src/stm32f1xx_hal_dma.c ****   __HAL_DMA_DISABLE(hdma);
 444:Drivers/STM32F1xx_HAL_Driver/Src/stm32f1xx_hal_dma.c ****     
 445:Drivers/STM32F1xx_HAL_Driver/Src/stm32f1xx_hal_dma.c ****   /* Clear all flags */
 446:Drivers/STM32F1xx_HAL_Driver/Src/stm32f1xx_hal_dma.c ****   hdma->DmaBaseAddress->IFCR = (DMA_ISR_GIF1 << hdma->ChannelIndex);
 447:Drivers/STM32F1xx_HAL_Driver/Src/stm32f1xx_hal_dma.c **** 
 448:Drivers/STM32F1xx_HAL_Driver/Src/stm32f1xx_hal_dma.c ****   /* Change the DMA state */
 449:Drivers/STM32F1xx_HAL_Driver/Src/stm32f1xx_hal_dma.c ****   hdma->State = HAL_DMA_STATE_READY;
 450:Drivers/STM32F1xx_HAL_Driver/Src/stm32f1xx_hal_dma.c **** 
 451:Drivers/STM32F1xx_HAL_Driver/Src/stm32f1xx_hal_dma.c ****   /* Process Unlocked */
 452:Drivers/STM32F1xx_HAL_Driver/Src/stm32f1xx_hal_dma.c ****   __HAL_UNLOCK(hdma);      
 453:Drivers/STM32F1xx_HAL_Driver/Src/stm32f1xx_hal_dma.c ****   
 454:Drivers/STM32F1xx_HAL_Driver/Src/stm32f1xx_hal_dma.c ****   return status; 
 455:Drivers/STM32F1xx_HAL_Driver/Src/stm32f1xx_hal_dma.c **** }
 456:Drivers/STM32F1xx_HAL_Driver/Src/stm32f1xx_hal_dma.c **** 
 457:Drivers/STM32F1xx_HAL_Driver/Src/stm32f1xx_hal_dma.c **** /**
 458:Drivers/STM32F1xx_HAL_Driver/Src/stm32f1xx_hal_dma.c ****   * @brief  Aborts the DMA Transfer in Interrupt mode.
 459:Drivers/STM32F1xx_HAL_Driver/Src/stm32f1xx_hal_dma.c ****   * @param  hdma  : pointer to a DMA_HandleTypeDef structure that contains
 460:Drivers/STM32F1xx_HAL_Driver/Src/stm32f1xx_hal_dma.c ****   *                 the configuration information for the specified DMA Channel.
 461:Drivers/STM32F1xx_HAL_Driver/Src/stm32f1xx_hal_dma.c ****   * @retval HAL status
 462:Drivers/STM32F1xx_HAL_Driver/Src/stm32f1xx_hal_dma.c ****   */
 463:Drivers/STM32F1xx_HAL_Driver/Src/stm32f1xx_hal_dma.c **** HAL_StatusTypeDef HAL_DMA_Abort_IT(DMA_HandleTypeDef *hdma)
 464:Drivers/STM32F1xx_HAL_Driver/Src/stm32f1xx_hal_dma.c **** {  
 465:Drivers/STM32F1xx_HAL_Driver/Src/stm32f1xx_hal_dma.c ****   HAL_StatusTypeDef status = HAL_OK;
 466:Drivers/STM32F1xx_HAL_Driver/Src/stm32f1xx_hal_dma.c ****   
 467:Drivers/STM32F1xx_HAL_Driver/Src/stm32f1xx_hal_dma.c ****   if(HAL_DMA_STATE_BUSY != hdma->State)
 468:Drivers/STM32F1xx_HAL_Driver/Src/stm32f1xx_hal_dma.c ****   {
 469:Drivers/STM32F1xx_HAL_Driver/Src/stm32f1xx_hal_dma.c ****     /* no transfer ongoing */
 470:Drivers/STM32F1xx_HAL_Driver/Src/stm32f1xx_hal_dma.c ****     hdma->ErrorCode = HAL_DMA_ERROR_NO_XFER;
 471:Drivers/STM32F1xx_HAL_Driver/Src/stm32f1xx_hal_dma.c ****         
 472:Drivers/STM32F1xx_HAL_Driver/Src/stm32f1xx_hal_dma.c ****     status = HAL_ERROR;
 473:Drivers/STM32F1xx_HAL_Driver/Src/stm32f1xx_hal_dma.c ****   }
 474:Drivers/STM32F1xx_HAL_Driver/Src/stm32f1xx_hal_dma.c ****   else
 475:Drivers/STM32F1xx_HAL_Driver/Src/stm32f1xx_hal_dma.c ****   { 
 476:Drivers/STM32F1xx_HAL_Driver/Src/stm32f1xx_hal_dma.c ****     /* Disable DMA IT */
 477:Drivers/STM32F1xx_HAL_Driver/Src/stm32f1xx_hal_dma.c ****     __HAL_DMA_DISABLE_IT(hdma, (DMA_IT_TC | DMA_IT_HT | DMA_IT_TE));
 478:Drivers/STM32F1xx_HAL_Driver/Src/stm32f1xx_hal_dma.c **** 
 479:Drivers/STM32F1xx_HAL_Driver/Src/stm32f1xx_hal_dma.c ****     /* Disable the channel */
 480:Drivers/STM32F1xx_HAL_Driver/Src/stm32f1xx_hal_dma.c ****     __HAL_DMA_DISABLE(hdma);
 481:Drivers/STM32F1xx_HAL_Driver/Src/stm32f1xx_hal_dma.c **** 
 482:Drivers/STM32F1xx_HAL_Driver/Src/stm32f1xx_hal_dma.c ****     /* Clear all flags */
 483:Drivers/STM32F1xx_HAL_Driver/Src/stm32f1xx_hal_dma.c ****     __HAL_DMA_CLEAR_FLAG(hdma, __HAL_DMA_GET_GI_FLAG_INDEX(hdma));
 484:Drivers/STM32F1xx_HAL_Driver/Src/stm32f1xx_hal_dma.c **** 
ARM GAS  /tmp/ccUJvcf6.s 			page 16


 485:Drivers/STM32F1xx_HAL_Driver/Src/stm32f1xx_hal_dma.c ****     /* Change the DMA state */
 486:Drivers/STM32F1xx_HAL_Driver/Src/stm32f1xx_hal_dma.c ****     hdma->State = HAL_DMA_STATE_READY;
 487:Drivers/STM32F1xx_HAL_Driver/Src/stm32f1xx_hal_dma.c **** 
 488:Drivers/STM32F1xx_HAL_Driver/Src/stm32f1xx_hal_dma.c ****     /* Process Unlocked */
 489:Drivers/STM32F1xx_HAL_Driver/Src/stm32f1xx_hal_dma.c ****     __HAL_UNLOCK(hdma);
 490:Drivers/STM32F1xx_HAL_Driver/Src/stm32f1xx_hal_dma.c **** 
 491:Drivers/STM32F1xx_HAL_Driver/Src/stm32f1xx_hal_dma.c ****     /* Call User Abort callback */
 492:Drivers/STM32F1xx_HAL_Driver/Src/stm32f1xx_hal_dma.c ****     if(hdma->XferAbortCallback != NULL)
 493:Drivers/STM32F1xx_HAL_Driver/Src/stm32f1xx_hal_dma.c ****     {
 494:Drivers/STM32F1xx_HAL_Driver/Src/stm32f1xx_hal_dma.c ****       hdma->XferAbortCallback(hdma);
 495:Drivers/STM32F1xx_HAL_Driver/Src/stm32f1xx_hal_dma.c ****     } 
 496:Drivers/STM32F1xx_HAL_Driver/Src/stm32f1xx_hal_dma.c ****   }
 497:Drivers/STM32F1xx_HAL_Driver/Src/stm32f1xx_hal_dma.c ****   return status;
 498:Drivers/STM32F1xx_HAL_Driver/Src/stm32f1xx_hal_dma.c **** }
 499:Drivers/STM32F1xx_HAL_Driver/Src/stm32f1xx_hal_dma.c **** 
 500:Drivers/STM32F1xx_HAL_Driver/Src/stm32f1xx_hal_dma.c **** /**
 501:Drivers/STM32F1xx_HAL_Driver/Src/stm32f1xx_hal_dma.c ****   * @brief  Polling for transfer complete.
 502:Drivers/STM32F1xx_HAL_Driver/Src/stm32f1xx_hal_dma.c ****   * @param  hdma:    pointer to a DMA_HandleTypeDef structure that contains
 503:Drivers/STM32F1xx_HAL_Driver/Src/stm32f1xx_hal_dma.c ****   *                  the configuration information for the specified DMA Channel.
 504:Drivers/STM32F1xx_HAL_Driver/Src/stm32f1xx_hal_dma.c ****   * @param  CompleteLevel: Specifies the DMA level complete.
 505:Drivers/STM32F1xx_HAL_Driver/Src/stm32f1xx_hal_dma.c ****   * @param  Timeout:       Timeout duration.
 506:Drivers/STM32F1xx_HAL_Driver/Src/stm32f1xx_hal_dma.c ****   * @retval HAL status
 507:Drivers/STM32F1xx_HAL_Driver/Src/stm32f1xx_hal_dma.c ****   */
 508:Drivers/STM32F1xx_HAL_Driver/Src/stm32f1xx_hal_dma.c **** HAL_StatusTypeDef HAL_DMA_PollForTransfer(DMA_HandleTypeDef *hdma, uint32_t CompleteLevel, uint32_t
 509:Drivers/STM32F1xx_HAL_Driver/Src/stm32f1xx_hal_dma.c **** {
 510:Drivers/STM32F1xx_HAL_Driver/Src/stm32f1xx_hal_dma.c ****   uint32_t temp;
 511:Drivers/STM32F1xx_HAL_Driver/Src/stm32f1xx_hal_dma.c ****   uint32_t tickstart = 0U;
 512:Drivers/STM32F1xx_HAL_Driver/Src/stm32f1xx_hal_dma.c **** 
 513:Drivers/STM32F1xx_HAL_Driver/Src/stm32f1xx_hal_dma.c ****   if(HAL_DMA_STATE_BUSY != hdma->State)
 514:Drivers/STM32F1xx_HAL_Driver/Src/stm32f1xx_hal_dma.c ****   {
 515:Drivers/STM32F1xx_HAL_Driver/Src/stm32f1xx_hal_dma.c ****     /* no transfer ongoing */
 516:Drivers/STM32F1xx_HAL_Driver/Src/stm32f1xx_hal_dma.c ****     hdma->ErrorCode = HAL_DMA_ERROR_NO_XFER;
 517:Drivers/STM32F1xx_HAL_Driver/Src/stm32f1xx_hal_dma.c ****     __HAL_UNLOCK(hdma);
 518:Drivers/STM32F1xx_HAL_Driver/Src/stm32f1xx_hal_dma.c ****     return HAL_ERROR;
 519:Drivers/STM32F1xx_HAL_Driver/Src/stm32f1xx_hal_dma.c ****   }
 520:Drivers/STM32F1xx_HAL_Driver/Src/stm32f1xx_hal_dma.c **** 
 521:Drivers/STM32F1xx_HAL_Driver/Src/stm32f1xx_hal_dma.c ****   /* Polling mode not supported in circular mode */
 522:Drivers/STM32F1xx_HAL_Driver/Src/stm32f1xx_hal_dma.c ****   if (RESET != (hdma->Instance->CCR & DMA_CCR_CIRC))
 523:Drivers/STM32F1xx_HAL_Driver/Src/stm32f1xx_hal_dma.c ****   {
 524:Drivers/STM32F1xx_HAL_Driver/Src/stm32f1xx_hal_dma.c ****     hdma->ErrorCode = HAL_DMA_ERROR_NOT_SUPPORTED;
 525:Drivers/STM32F1xx_HAL_Driver/Src/stm32f1xx_hal_dma.c ****     return HAL_ERROR;
 526:Drivers/STM32F1xx_HAL_Driver/Src/stm32f1xx_hal_dma.c ****   }
 527:Drivers/STM32F1xx_HAL_Driver/Src/stm32f1xx_hal_dma.c ****   
 528:Drivers/STM32F1xx_HAL_Driver/Src/stm32f1xx_hal_dma.c ****   /* Get the level transfer complete flag */
 529:Drivers/STM32F1xx_HAL_Driver/Src/stm32f1xx_hal_dma.c ****   if(CompleteLevel == HAL_DMA_FULL_TRANSFER)
 530:Drivers/STM32F1xx_HAL_Driver/Src/stm32f1xx_hal_dma.c ****   {
 531:Drivers/STM32F1xx_HAL_Driver/Src/stm32f1xx_hal_dma.c ****     /* Transfer Complete flag */
 532:Drivers/STM32F1xx_HAL_Driver/Src/stm32f1xx_hal_dma.c ****     temp = __HAL_DMA_GET_TC_FLAG_INDEX(hdma);
 533:Drivers/STM32F1xx_HAL_Driver/Src/stm32f1xx_hal_dma.c ****   }
 534:Drivers/STM32F1xx_HAL_Driver/Src/stm32f1xx_hal_dma.c ****   else
 535:Drivers/STM32F1xx_HAL_Driver/Src/stm32f1xx_hal_dma.c ****   {
 536:Drivers/STM32F1xx_HAL_Driver/Src/stm32f1xx_hal_dma.c ****     /* Half Transfer Complete flag */
 537:Drivers/STM32F1xx_HAL_Driver/Src/stm32f1xx_hal_dma.c ****     temp = __HAL_DMA_GET_HT_FLAG_INDEX(hdma);
 538:Drivers/STM32F1xx_HAL_Driver/Src/stm32f1xx_hal_dma.c ****   }
 539:Drivers/STM32F1xx_HAL_Driver/Src/stm32f1xx_hal_dma.c **** 
 540:Drivers/STM32F1xx_HAL_Driver/Src/stm32f1xx_hal_dma.c ****   /* Get tick */
 541:Drivers/STM32F1xx_HAL_Driver/Src/stm32f1xx_hal_dma.c ****   tickstart = HAL_GetTick();
ARM GAS  /tmp/ccUJvcf6.s 			page 17


 542:Drivers/STM32F1xx_HAL_Driver/Src/stm32f1xx_hal_dma.c **** 
 543:Drivers/STM32F1xx_HAL_Driver/Src/stm32f1xx_hal_dma.c ****   while(__HAL_DMA_GET_FLAG(hdma, temp) == RESET)
 544:Drivers/STM32F1xx_HAL_Driver/Src/stm32f1xx_hal_dma.c ****   {
 545:Drivers/STM32F1xx_HAL_Driver/Src/stm32f1xx_hal_dma.c ****     if((__HAL_DMA_GET_FLAG(hdma, __HAL_DMA_GET_TE_FLAG_INDEX(hdma)) != RESET))
 546:Drivers/STM32F1xx_HAL_Driver/Src/stm32f1xx_hal_dma.c ****     {
 547:Drivers/STM32F1xx_HAL_Driver/Src/stm32f1xx_hal_dma.c ****       /* When a DMA transfer error occurs */
 548:Drivers/STM32F1xx_HAL_Driver/Src/stm32f1xx_hal_dma.c ****       /* A hardware clear of its EN bits is performed */
 549:Drivers/STM32F1xx_HAL_Driver/Src/stm32f1xx_hal_dma.c ****       /* Clear all flags */
 550:Drivers/STM32F1xx_HAL_Driver/Src/stm32f1xx_hal_dma.c ****       hdma->DmaBaseAddress->IFCR = (DMA_ISR_GIF1 << hdma->ChannelIndex);
 551:Drivers/STM32F1xx_HAL_Driver/Src/stm32f1xx_hal_dma.c **** 
 552:Drivers/STM32F1xx_HAL_Driver/Src/stm32f1xx_hal_dma.c ****       /* Update error code */
 553:Drivers/STM32F1xx_HAL_Driver/Src/stm32f1xx_hal_dma.c ****       SET_BIT(hdma->ErrorCode, HAL_DMA_ERROR_TE);
 554:Drivers/STM32F1xx_HAL_Driver/Src/stm32f1xx_hal_dma.c **** 
 555:Drivers/STM32F1xx_HAL_Driver/Src/stm32f1xx_hal_dma.c ****       /* Change the DMA state */
 556:Drivers/STM32F1xx_HAL_Driver/Src/stm32f1xx_hal_dma.c ****       hdma->State= HAL_DMA_STATE_READY;
 557:Drivers/STM32F1xx_HAL_Driver/Src/stm32f1xx_hal_dma.c **** 
 558:Drivers/STM32F1xx_HAL_Driver/Src/stm32f1xx_hal_dma.c ****       /* Process Unlocked */
 559:Drivers/STM32F1xx_HAL_Driver/Src/stm32f1xx_hal_dma.c ****       __HAL_UNLOCK(hdma);
 560:Drivers/STM32F1xx_HAL_Driver/Src/stm32f1xx_hal_dma.c **** 
 561:Drivers/STM32F1xx_HAL_Driver/Src/stm32f1xx_hal_dma.c ****       return HAL_ERROR;
 562:Drivers/STM32F1xx_HAL_Driver/Src/stm32f1xx_hal_dma.c ****     }
 563:Drivers/STM32F1xx_HAL_Driver/Src/stm32f1xx_hal_dma.c ****     /* Check for the Timeout */
 564:Drivers/STM32F1xx_HAL_Driver/Src/stm32f1xx_hal_dma.c ****     if(Timeout != HAL_MAX_DELAY)
 565:Drivers/STM32F1xx_HAL_Driver/Src/stm32f1xx_hal_dma.c ****     {
 566:Drivers/STM32F1xx_HAL_Driver/Src/stm32f1xx_hal_dma.c ****       if((Timeout == 0U) || ((HAL_GetTick() - tickstart) > Timeout))
 567:Drivers/STM32F1xx_HAL_Driver/Src/stm32f1xx_hal_dma.c ****       {
 568:Drivers/STM32F1xx_HAL_Driver/Src/stm32f1xx_hal_dma.c ****         /* Update error code */
 569:Drivers/STM32F1xx_HAL_Driver/Src/stm32f1xx_hal_dma.c ****         SET_BIT(hdma->ErrorCode, HAL_DMA_ERROR_TIMEOUT);
 570:Drivers/STM32F1xx_HAL_Driver/Src/stm32f1xx_hal_dma.c **** 
 571:Drivers/STM32F1xx_HAL_Driver/Src/stm32f1xx_hal_dma.c ****         /* Change the DMA state */
 572:Drivers/STM32F1xx_HAL_Driver/Src/stm32f1xx_hal_dma.c ****         hdma->State = HAL_DMA_STATE_READY;
 573:Drivers/STM32F1xx_HAL_Driver/Src/stm32f1xx_hal_dma.c **** 
 574:Drivers/STM32F1xx_HAL_Driver/Src/stm32f1xx_hal_dma.c ****         /* Process Unlocked */
 575:Drivers/STM32F1xx_HAL_Driver/Src/stm32f1xx_hal_dma.c ****         __HAL_UNLOCK(hdma);
 576:Drivers/STM32F1xx_HAL_Driver/Src/stm32f1xx_hal_dma.c **** 
 577:Drivers/STM32F1xx_HAL_Driver/Src/stm32f1xx_hal_dma.c ****         return HAL_ERROR;
 578:Drivers/STM32F1xx_HAL_Driver/Src/stm32f1xx_hal_dma.c ****       }
 579:Drivers/STM32F1xx_HAL_Driver/Src/stm32f1xx_hal_dma.c ****     }
 580:Drivers/STM32F1xx_HAL_Driver/Src/stm32f1xx_hal_dma.c ****   }
 581:Drivers/STM32F1xx_HAL_Driver/Src/stm32f1xx_hal_dma.c **** 
 582:Drivers/STM32F1xx_HAL_Driver/Src/stm32f1xx_hal_dma.c ****   if(CompleteLevel == HAL_DMA_FULL_TRANSFER)
 583:Drivers/STM32F1xx_HAL_Driver/Src/stm32f1xx_hal_dma.c ****   {
 584:Drivers/STM32F1xx_HAL_Driver/Src/stm32f1xx_hal_dma.c ****     /* Clear the transfer complete flag */
 585:Drivers/STM32F1xx_HAL_Driver/Src/stm32f1xx_hal_dma.c ****     __HAL_DMA_CLEAR_FLAG(hdma, __HAL_DMA_GET_TC_FLAG_INDEX(hdma));
 586:Drivers/STM32F1xx_HAL_Driver/Src/stm32f1xx_hal_dma.c **** 
 587:Drivers/STM32F1xx_HAL_Driver/Src/stm32f1xx_hal_dma.c ****     /* The selected Channelx EN bit is cleared (DMA is disabled and
 588:Drivers/STM32F1xx_HAL_Driver/Src/stm32f1xx_hal_dma.c ****     all transfers are complete) */
 589:Drivers/STM32F1xx_HAL_Driver/Src/stm32f1xx_hal_dma.c ****     hdma->State = HAL_DMA_STATE_READY;
 590:Drivers/STM32F1xx_HAL_Driver/Src/stm32f1xx_hal_dma.c ****   }
 591:Drivers/STM32F1xx_HAL_Driver/Src/stm32f1xx_hal_dma.c ****   else
 592:Drivers/STM32F1xx_HAL_Driver/Src/stm32f1xx_hal_dma.c ****   {
 593:Drivers/STM32F1xx_HAL_Driver/Src/stm32f1xx_hal_dma.c ****     /* Clear the half transfer complete flag */
 594:Drivers/STM32F1xx_HAL_Driver/Src/stm32f1xx_hal_dma.c ****     __HAL_DMA_CLEAR_FLAG(hdma, __HAL_DMA_GET_HT_FLAG_INDEX(hdma));
 595:Drivers/STM32F1xx_HAL_Driver/Src/stm32f1xx_hal_dma.c ****   }
 596:Drivers/STM32F1xx_HAL_Driver/Src/stm32f1xx_hal_dma.c ****   
 597:Drivers/STM32F1xx_HAL_Driver/Src/stm32f1xx_hal_dma.c ****   /* Process unlocked */
 598:Drivers/STM32F1xx_HAL_Driver/Src/stm32f1xx_hal_dma.c ****   __HAL_UNLOCK(hdma);
ARM GAS  /tmp/ccUJvcf6.s 			page 18


 599:Drivers/STM32F1xx_HAL_Driver/Src/stm32f1xx_hal_dma.c **** 
 600:Drivers/STM32F1xx_HAL_Driver/Src/stm32f1xx_hal_dma.c ****   return HAL_OK;
 601:Drivers/STM32F1xx_HAL_Driver/Src/stm32f1xx_hal_dma.c **** }
 602:Drivers/STM32F1xx_HAL_Driver/Src/stm32f1xx_hal_dma.c **** 
 603:Drivers/STM32F1xx_HAL_Driver/Src/stm32f1xx_hal_dma.c **** /**
 604:Drivers/STM32F1xx_HAL_Driver/Src/stm32f1xx_hal_dma.c ****   * @brief  Handles DMA interrupt request.
 605:Drivers/STM32F1xx_HAL_Driver/Src/stm32f1xx_hal_dma.c ****   * @param  hdma: pointer to a DMA_HandleTypeDef structure that contains
 606:Drivers/STM32F1xx_HAL_Driver/Src/stm32f1xx_hal_dma.c ****   *               the configuration information for the specified DMA Channel.  
 607:Drivers/STM32F1xx_HAL_Driver/Src/stm32f1xx_hal_dma.c ****   * @retval None
 608:Drivers/STM32F1xx_HAL_Driver/Src/stm32f1xx_hal_dma.c ****   */
 609:Drivers/STM32F1xx_HAL_Driver/Src/stm32f1xx_hal_dma.c **** void HAL_DMA_IRQHandler(DMA_HandleTypeDef *hdma)
 610:Drivers/STM32F1xx_HAL_Driver/Src/stm32f1xx_hal_dma.c **** {
 611:Drivers/STM32F1xx_HAL_Driver/Src/stm32f1xx_hal_dma.c ****   uint32_t flag_it = hdma->DmaBaseAddress->ISR;
 612:Drivers/STM32F1xx_HAL_Driver/Src/stm32f1xx_hal_dma.c ****   uint32_t source_it = hdma->Instance->CCR;
 613:Drivers/STM32F1xx_HAL_Driver/Src/stm32f1xx_hal_dma.c ****   
 614:Drivers/STM32F1xx_HAL_Driver/Src/stm32f1xx_hal_dma.c ****   /* Half Transfer Complete Interrupt management ******************************/
 615:Drivers/STM32F1xx_HAL_Driver/Src/stm32f1xx_hal_dma.c ****   if (((flag_it & (DMA_FLAG_HT1 << hdma->ChannelIndex)) != RESET) && ((source_it & DMA_IT_HT) != RE
 616:Drivers/STM32F1xx_HAL_Driver/Src/stm32f1xx_hal_dma.c ****   {
 617:Drivers/STM32F1xx_HAL_Driver/Src/stm32f1xx_hal_dma.c ****     /* Disable the half transfer interrupt if the DMA mode is not CIRCULAR */
 618:Drivers/STM32F1xx_HAL_Driver/Src/stm32f1xx_hal_dma.c ****     if((hdma->Instance->CCR & DMA_CCR_CIRC) == 0U)
 619:Drivers/STM32F1xx_HAL_Driver/Src/stm32f1xx_hal_dma.c ****     {
 620:Drivers/STM32F1xx_HAL_Driver/Src/stm32f1xx_hal_dma.c ****       /* Disable the half transfer interrupt */
 621:Drivers/STM32F1xx_HAL_Driver/Src/stm32f1xx_hal_dma.c ****       __HAL_DMA_DISABLE_IT(hdma, DMA_IT_HT);
 622:Drivers/STM32F1xx_HAL_Driver/Src/stm32f1xx_hal_dma.c ****     }
 623:Drivers/STM32F1xx_HAL_Driver/Src/stm32f1xx_hal_dma.c ****     /* Clear the half transfer complete flag */
 624:Drivers/STM32F1xx_HAL_Driver/Src/stm32f1xx_hal_dma.c ****     __HAL_DMA_CLEAR_FLAG(hdma, __HAL_DMA_GET_HT_FLAG_INDEX(hdma));
 625:Drivers/STM32F1xx_HAL_Driver/Src/stm32f1xx_hal_dma.c **** 
 626:Drivers/STM32F1xx_HAL_Driver/Src/stm32f1xx_hal_dma.c ****     /* DMA peripheral state is not updated in Half Transfer */
 627:Drivers/STM32F1xx_HAL_Driver/Src/stm32f1xx_hal_dma.c ****     /* but in Transfer Complete case */
 628:Drivers/STM32F1xx_HAL_Driver/Src/stm32f1xx_hal_dma.c **** 
 629:Drivers/STM32F1xx_HAL_Driver/Src/stm32f1xx_hal_dma.c ****     if(hdma->XferHalfCpltCallback != NULL)
 630:Drivers/STM32F1xx_HAL_Driver/Src/stm32f1xx_hal_dma.c ****     {
 631:Drivers/STM32F1xx_HAL_Driver/Src/stm32f1xx_hal_dma.c ****       /* Half transfer callback */
 632:Drivers/STM32F1xx_HAL_Driver/Src/stm32f1xx_hal_dma.c ****       hdma->XferHalfCpltCallback(hdma);
 633:Drivers/STM32F1xx_HAL_Driver/Src/stm32f1xx_hal_dma.c ****     }
 634:Drivers/STM32F1xx_HAL_Driver/Src/stm32f1xx_hal_dma.c ****   }
 635:Drivers/STM32F1xx_HAL_Driver/Src/stm32f1xx_hal_dma.c **** 
 636:Drivers/STM32F1xx_HAL_Driver/Src/stm32f1xx_hal_dma.c ****   /* Transfer Complete Interrupt management ***********************************/
 637:Drivers/STM32F1xx_HAL_Driver/Src/stm32f1xx_hal_dma.c ****   else if (((flag_it & (DMA_FLAG_TC1 << hdma->ChannelIndex)) != RESET) && ((source_it & DMA_IT_TC) 
 638:Drivers/STM32F1xx_HAL_Driver/Src/stm32f1xx_hal_dma.c ****   {
 639:Drivers/STM32F1xx_HAL_Driver/Src/stm32f1xx_hal_dma.c ****     if((hdma->Instance->CCR & DMA_CCR_CIRC) == 0U)
 640:Drivers/STM32F1xx_HAL_Driver/Src/stm32f1xx_hal_dma.c ****     {
 641:Drivers/STM32F1xx_HAL_Driver/Src/stm32f1xx_hal_dma.c ****       /* Disable the transfer complete and error interrupt */
 642:Drivers/STM32F1xx_HAL_Driver/Src/stm32f1xx_hal_dma.c ****       __HAL_DMA_DISABLE_IT(hdma, DMA_IT_TE | DMA_IT_TC);  
 643:Drivers/STM32F1xx_HAL_Driver/Src/stm32f1xx_hal_dma.c **** 
 644:Drivers/STM32F1xx_HAL_Driver/Src/stm32f1xx_hal_dma.c ****       /* Change the DMA state */
 645:Drivers/STM32F1xx_HAL_Driver/Src/stm32f1xx_hal_dma.c ****       hdma->State = HAL_DMA_STATE_READY;
 646:Drivers/STM32F1xx_HAL_Driver/Src/stm32f1xx_hal_dma.c ****     }
 647:Drivers/STM32F1xx_HAL_Driver/Src/stm32f1xx_hal_dma.c ****     /* Clear the transfer complete flag */
 648:Drivers/STM32F1xx_HAL_Driver/Src/stm32f1xx_hal_dma.c ****       __HAL_DMA_CLEAR_FLAG(hdma, __HAL_DMA_GET_TC_FLAG_INDEX(hdma));
 649:Drivers/STM32F1xx_HAL_Driver/Src/stm32f1xx_hal_dma.c **** 
 650:Drivers/STM32F1xx_HAL_Driver/Src/stm32f1xx_hal_dma.c ****     /* Process Unlocked */
 651:Drivers/STM32F1xx_HAL_Driver/Src/stm32f1xx_hal_dma.c ****     __HAL_UNLOCK(hdma);
 652:Drivers/STM32F1xx_HAL_Driver/Src/stm32f1xx_hal_dma.c **** 
 653:Drivers/STM32F1xx_HAL_Driver/Src/stm32f1xx_hal_dma.c ****     if(hdma->XferCpltCallback != NULL)
 654:Drivers/STM32F1xx_HAL_Driver/Src/stm32f1xx_hal_dma.c ****     {
 655:Drivers/STM32F1xx_HAL_Driver/Src/stm32f1xx_hal_dma.c ****       /* Transfer complete callback */
ARM GAS  /tmp/ccUJvcf6.s 			page 19


 656:Drivers/STM32F1xx_HAL_Driver/Src/stm32f1xx_hal_dma.c ****       hdma->XferCpltCallback(hdma);
 657:Drivers/STM32F1xx_HAL_Driver/Src/stm32f1xx_hal_dma.c ****     }
 658:Drivers/STM32F1xx_HAL_Driver/Src/stm32f1xx_hal_dma.c ****   }
 659:Drivers/STM32F1xx_HAL_Driver/Src/stm32f1xx_hal_dma.c **** 
 660:Drivers/STM32F1xx_HAL_Driver/Src/stm32f1xx_hal_dma.c ****   /* Transfer Error Interrupt management **************************************/
 661:Drivers/STM32F1xx_HAL_Driver/Src/stm32f1xx_hal_dma.c ****   else if (( RESET != (flag_it & (DMA_FLAG_TE1 << hdma->ChannelIndex))) && (RESET != (source_it & D
 662:Drivers/STM32F1xx_HAL_Driver/Src/stm32f1xx_hal_dma.c ****   {
 663:Drivers/STM32F1xx_HAL_Driver/Src/stm32f1xx_hal_dma.c ****     /* When a DMA transfer error occurs */
 664:Drivers/STM32F1xx_HAL_Driver/Src/stm32f1xx_hal_dma.c ****     /* A hardware clear of its EN bits is performed */
 665:Drivers/STM32F1xx_HAL_Driver/Src/stm32f1xx_hal_dma.c ****     /* Disable ALL DMA IT */
 666:Drivers/STM32F1xx_HAL_Driver/Src/stm32f1xx_hal_dma.c ****     __HAL_DMA_DISABLE_IT(hdma, (DMA_IT_TC | DMA_IT_HT | DMA_IT_TE));
 667:Drivers/STM32F1xx_HAL_Driver/Src/stm32f1xx_hal_dma.c **** 
 668:Drivers/STM32F1xx_HAL_Driver/Src/stm32f1xx_hal_dma.c ****     /* Clear all flags */
 669:Drivers/STM32F1xx_HAL_Driver/Src/stm32f1xx_hal_dma.c ****     hdma->DmaBaseAddress->IFCR = (DMA_ISR_GIF1 << hdma->ChannelIndex);
 670:Drivers/STM32F1xx_HAL_Driver/Src/stm32f1xx_hal_dma.c **** 
 671:Drivers/STM32F1xx_HAL_Driver/Src/stm32f1xx_hal_dma.c ****     /* Update error code */
 672:Drivers/STM32F1xx_HAL_Driver/Src/stm32f1xx_hal_dma.c ****     hdma->ErrorCode = HAL_DMA_ERROR_TE;
 673:Drivers/STM32F1xx_HAL_Driver/Src/stm32f1xx_hal_dma.c **** 
 674:Drivers/STM32F1xx_HAL_Driver/Src/stm32f1xx_hal_dma.c ****     /* Change the DMA state */
 675:Drivers/STM32F1xx_HAL_Driver/Src/stm32f1xx_hal_dma.c ****     hdma->State = HAL_DMA_STATE_READY;
 676:Drivers/STM32F1xx_HAL_Driver/Src/stm32f1xx_hal_dma.c **** 
 677:Drivers/STM32F1xx_HAL_Driver/Src/stm32f1xx_hal_dma.c ****     /* Process Unlocked */
 678:Drivers/STM32F1xx_HAL_Driver/Src/stm32f1xx_hal_dma.c ****     __HAL_UNLOCK(hdma);
 679:Drivers/STM32F1xx_HAL_Driver/Src/stm32f1xx_hal_dma.c **** 
 680:Drivers/STM32F1xx_HAL_Driver/Src/stm32f1xx_hal_dma.c ****     if (hdma->XferErrorCallback != NULL)
 681:Drivers/STM32F1xx_HAL_Driver/Src/stm32f1xx_hal_dma.c ****     {
 682:Drivers/STM32F1xx_HAL_Driver/Src/stm32f1xx_hal_dma.c ****       /* Transfer error callback */
 683:Drivers/STM32F1xx_HAL_Driver/Src/stm32f1xx_hal_dma.c ****       hdma->XferErrorCallback(hdma);
 684:Drivers/STM32F1xx_HAL_Driver/Src/stm32f1xx_hal_dma.c ****     }
 685:Drivers/STM32F1xx_HAL_Driver/Src/stm32f1xx_hal_dma.c ****   }
 686:Drivers/STM32F1xx_HAL_Driver/Src/stm32f1xx_hal_dma.c ****   return;
 687:Drivers/STM32F1xx_HAL_Driver/Src/stm32f1xx_hal_dma.c **** }
 688:Drivers/STM32F1xx_HAL_Driver/Src/stm32f1xx_hal_dma.c **** 
 689:Drivers/STM32F1xx_HAL_Driver/Src/stm32f1xx_hal_dma.c **** /**
 690:Drivers/STM32F1xx_HAL_Driver/Src/stm32f1xx_hal_dma.c ****   * @brief Register callbacks
 691:Drivers/STM32F1xx_HAL_Driver/Src/stm32f1xx_hal_dma.c ****   * @param hdma: pointer to a DMA_HandleTypeDef structure that contains
 692:Drivers/STM32F1xx_HAL_Driver/Src/stm32f1xx_hal_dma.c ****   *              the configuration information for the specified DMA Channel.
 693:Drivers/STM32F1xx_HAL_Driver/Src/stm32f1xx_hal_dma.c ****   * @param CallbackID: User Callback identifer
 694:Drivers/STM32F1xx_HAL_Driver/Src/stm32f1xx_hal_dma.c ****   *                    a HAL_DMA_CallbackIDTypeDef ENUM as parameter.
 695:Drivers/STM32F1xx_HAL_Driver/Src/stm32f1xx_hal_dma.c ****   * @param pCallback: pointer to private callbacsk function which has pointer to 
 696:Drivers/STM32F1xx_HAL_Driver/Src/stm32f1xx_hal_dma.c ****   *                   a DMA_HandleTypeDef structure as parameter.
 697:Drivers/STM32F1xx_HAL_Driver/Src/stm32f1xx_hal_dma.c ****   * @retval HAL status
 698:Drivers/STM32F1xx_HAL_Driver/Src/stm32f1xx_hal_dma.c ****   */                          
 699:Drivers/STM32F1xx_HAL_Driver/Src/stm32f1xx_hal_dma.c **** HAL_StatusTypeDef HAL_DMA_RegisterCallback(DMA_HandleTypeDef *hdma, HAL_DMA_CallbackIDTypeDef Callb
 700:Drivers/STM32F1xx_HAL_Driver/Src/stm32f1xx_hal_dma.c **** {
 701:Drivers/STM32F1xx_HAL_Driver/Src/stm32f1xx_hal_dma.c ****   HAL_StatusTypeDef status = HAL_OK;
 702:Drivers/STM32F1xx_HAL_Driver/Src/stm32f1xx_hal_dma.c ****   
 703:Drivers/STM32F1xx_HAL_Driver/Src/stm32f1xx_hal_dma.c ****   /* Process locked */
 704:Drivers/STM32F1xx_HAL_Driver/Src/stm32f1xx_hal_dma.c ****   __HAL_LOCK(hdma);
 705:Drivers/STM32F1xx_HAL_Driver/Src/stm32f1xx_hal_dma.c ****   
 706:Drivers/STM32F1xx_HAL_Driver/Src/stm32f1xx_hal_dma.c ****   if(HAL_DMA_STATE_READY == hdma->State)
 707:Drivers/STM32F1xx_HAL_Driver/Src/stm32f1xx_hal_dma.c ****   {
 708:Drivers/STM32F1xx_HAL_Driver/Src/stm32f1xx_hal_dma.c ****     switch (CallbackID)
 709:Drivers/STM32F1xx_HAL_Driver/Src/stm32f1xx_hal_dma.c ****     {
 710:Drivers/STM32F1xx_HAL_Driver/Src/stm32f1xx_hal_dma.c ****     case  HAL_DMA_XFER_CPLT_CB_ID:
 711:Drivers/STM32F1xx_HAL_Driver/Src/stm32f1xx_hal_dma.c ****       hdma->XferCpltCallback = pCallback;
 712:Drivers/STM32F1xx_HAL_Driver/Src/stm32f1xx_hal_dma.c ****       break;
ARM GAS  /tmp/ccUJvcf6.s 			page 20


 713:Drivers/STM32F1xx_HAL_Driver/Src/stm32f1xx_hal_dma.c ****       
 714:Drivers/STM32F1xx_HAL_Driver/Src/stm32f1xx_hal_dma.c ****     case  HAL_DMA_XFER_HALFCPLT_CB_ID:
 715:Drivers/STM32F1xx_HAL_Driver/Src/stm32f1xx_hal_dma.c ****       hdma->XferHalfCpltCallback = pCallback;
 716:Drivers/STM32F1xx_HAL_Driver/Src/stm32f1xx_hal_dma.c ****       break;         
 717:Drivers/STM32F1xx_HAL_Driver/Src/stm32f1xx_hal_dma.c **** 
 718:Drivers/STM32F1xx_HAL_Driver/Src/stm32f1xx_hal_dma.c ****     case  HAL_DMA_XFER_ERROR_CB_ID:
 719:Drivers/STM32F1xx_HAL_Driver/Src/stm32f1xx_hal_dma.c ****       hdma->XferErrorCallback = pCallback;
 720:Drivers/STM32F1xx_HAL_Driver/Src/stm32f1xx_hal_dma.c ****       break;         
 721:Drivers/STM32F1xx_HAL_Driver/Src/stm32f1xx_hal_dma.c ****       
 722:Drivers/STM32F1xx_HAL_Driver/Src/stm32f1xx_hal_dma.c ****     case  HAL_DMA_XFER_ABORT_CB_ID:
 723:Drivers/STM32F1xx_HAL_Driver/Src/stm32f1xx_hal_dma.c ****       hdma->XferAbortCallback = pCallback;
 724:Drivers/STM32F1xx_HAL_Driver/Src/stm32f1xx_hal_dma.c ****       break; 
 725:Drivers/STM32F1xx_HAL_Driver/Src/stm32f1xx_hal_dma.c ****       
 726:Drivers/STM32F1xx_HAL_Driver/Src/stm32f1xx_hal_dma.c ****     default:
 727:Drivers/STM32F1xx_HAL_Driver/Src/stm32f1xx_hal_dma.c ****       status = HAL_ERROR;
 728:Drivers/STM32F1xx_HAL_Driver/Src/stm32f1xx_hal_dma.c ****       break;                                                            
 729:Drivers/STM32F1xx_HAL_Driver/Src/stm32f1xx_hal_dma.c ****     }
 730:Drivers/STM32F1xx_HAL_Driver/Src/stm32f1xx_hal_dma.c ****   }
 731:Drivers/STM32F1xx_HAL_Driver/Src/stm32f1xx_hal_dma.c ****   else
 732:Drivers/STM32F1xx_HAL_Driver/Src/stm32f1xx_hal_dma.c ****   {
 733:Drivers/STM32F1xx_HAL_Driver/Src/stm32f1xx_hal_dma.c ****     status = HAL_ERROR;
 734:Drivers/STM32F1xx_HAL_Driver/Src/stm32f1xx_hal_dma.c ****   } 
 735:Drivers/STM32F1xx_HAL_Driver/Src/stm32f1xx_hal_dma.c ****   
 736:Drivers/STM32F1xx_HAL_Driver/Src/stm32f1xx_hal_dma.c ****   /* Release Lock */
 737:Drivers/STM32F1xx_HAL_Driver/Src/stm32f1xx_hal_dma.c ****   __HAL_UNLOCK(hdma);
 738:Drivers/STM32F1xx_HAL_Driver/Src/stm32f1xx_hal_dma.c ****   
 739:Drivers/STM32F1xx_HAL_Driver/Src/stm32f1xx_hal_dma.c ****   return status;
 740:Drivers/STM32F1xx_HAL_Driver/Src/stm32f1xx_hal_dma.c **** }
 741:Drivers/STM32F1xx_HAL_Driver/Src/stm32f1xx_hal_dma.c **** 
 742:Drivers/STM32F1xx_HAL_Driver/Src/stm32f1xx_hal_dma.c **** /**
 743:Drivers/STM32F1xx_HAL_Driver/Src/stm32f1xx_hal_dma.c ****   * @brief UnRegister callbacks
 744:Drivers/STM32F1xx_HAL_Driver/Src/stm32f1xx_hal_dma.c ****   * @param hdma: pointer to a DMA_HandleTypeDef structure that contains
 745:Drivers/STM32F1xx_HAL_Driver/Src/stm32f1xx_hal_dma.c ****   *              the configuration information for the specified DMA Channel.
 746:Drivers/STM32F1xx_HAL_Driver/Src/stm32f1xx_hal_dma.c ****   * @param CallbackID: User Callback identifer
 747:Drivers/STM32F1xx_HAL_Driver/Src/stm32f1xx_hal_dma.c ****   *                    a HAL_DMA_CallbackIDTypeDef ENUM as parameter.
 748:Drivers/STM32F1xx_HAL_Driver/Src/stm32f1xx_hal_dma.c ****   * @retval HAL status
 749:Drivers/STM32F1xx_HAL_Driver/Src/stm32f1xx_hal_dma.c ****   */              
 750:Drivers/STM32F1xx_HAL_Driver/Src/stm32f1xx_hal_dma.c **** HAL_StatusTypeDef HAL_DMA_UnRegisterCallback(DMA_HandleTypeDef *hdma, HAL_DMA_CallbackIDTypeDef Cal
 751:Drivers/STM32F1xx_HAL_Driver/Src/stm32f1xx_hal_dma.c **** {
 752:Drivers/STM32F1xx_HAL_Driver/Src/stm32f1xx_hal_dma.c ****   HAL_StatusTypeDef status = HAL_OK;
 753:Drivers/STM32F1xx_HAL_Driver/Src/stm32f1xx_hal_dma.c **** 
 754:Drivers/STM32F1xx_HAL_Driver/Src/stm32f1xx_hal_dma.c ****   /* Process locked */
 755:Drivers/STM32F1xx_HAL_Driver/Src/stm32f1xx_hal_dma.c ****   __HAL_LOCK(hdma);
 756:Drivers/STM32F1xx_HAL_Driver/Src/stm32f1xx_hal_dma.c ****   
 757:Drivers/STM32F1xx_HAL_Driver/Src/stm32f1xx_hal_dma.c ****   if(HAL_DMA_STATE_READY == hdma->State)
 758:Drivers/STM32F1xx_HAL_Driver/Src/stm32f1xx_hal_dma.c ****   {
 759:Drivers/STM32F1xx_HAL_Driver/Src/stm32f1xx_hal_dma.c ****     switch (CallbackID)
 760:Drivers/STM32F1xx_HAL_Driver/Src/stm32f1xx_hal_dma.c ****     {
 761:Drivers/STM32F1xx_HAL_Driver/Src/stm32f1xx_hal_dma.c ****     case  HAL_DMA_XFER_CPLT_CB_ID:
 762:Drivers/STM32F1xx_HAL_Driver/Src/stm32f1xx_hal_dma.c ****       hdma->XferCpltCallback = NULL;
 763:Drivers/STM32F1xx_HAL_Driver/Src/stm32f1xx_hal_dma.c ****       break;
 764:Drivers/STM32F1xx_HAL_Driver/Src/stm32f1xx_hal_dma.c **** 
 765:Drivers/STM32F1xx_HAL_Driver/Src/stm32f1xx_hal_dma.c ****     case  HAL_DMA_XFER_HALFCPLT_CB_ID:
 766:Drivers/STM32F1xx_HAL_Driver/Src/stm32f1xx_hal_dma.c ****       hdma->XferHalfCpltCallback = NULL;
 767:Drivers/STM32F1xx_HAL_Driver/Src/stm32f1xx_hal_dma.c ****       break;         
 768:Drivers/STM32F1xx_HAL_Driver/Src/stm32f1xx_hal_dma.c **** 
 769:Drivers/STM32F1xx_HAL_Driver/Src/stm32f1xx_hal_dma.c ****     case  HAL_DMA_XFER_ERROR_CB_ID:
ARM GAS  /tmp/ccUJvcf6.s 			page 21


 770:Drivers/STM32F1xx_HAL_Driver/Src/stm32f1xx_hal_dma.c ****       hdma->XferErrorCallback = NULL;
 771:Drivers/STM32F1xx_HAL_Driver/Src/stm32f1xx_hal_dma.c ****       break;         
 772:Drivers/STM32F1xx_HAL_Driver/Src/stm32f1xx_hal_dma.c **** 
 773:Drivers/STM32F1xx_HAL_Driver/Src/stm32f1xx_hal_dma.c ****     case  HAL_DMA_XFER_ABORT_CB_ID:
 774:Drivers/STM32F1xx_HAL_Driver/Src/stm32f1xx_hal_dma.c ****       hdma->XferAbortCallback = NULL;
 775:Drivers/STM32F1xx_HAL_Driver/Src/stm32f1xx_hal_dma.c ****       break; 
 776:Drivers/STM32F1xx_HAL_Driver/Src/stm32f1xx_hal_dma.c **** 
 777:Drivers/STM32F1xx_HAL_Driver/Src/stm32f1xx_hal_dma.c ****     case   HAL_DMA_XFER_ALL_CB_ID:
 778:Drivers/STM32F1xx_HAL_Driver/Src/stm32f1xx_hal_dma.c ****       hdma->XferCpltCallback = NULL;
 779:Drivers/STM32F1xx_HAL_Driver/Src/stm32f1xx_hal_dma.c ****       hdma->XferHalfCpltCallback = NULL;
 780:Drivers/STM32F1xx_HAL_Driver/Src/stm32f1xx_hal_dma.c ****       hdma->XferErrorCallback = NULL;
 781:Drivers/STM32F1xx_HAL_Driver/Src/stm32f1xx_hal_dma.c ****       hdma->XferAbortCallback = NULL;
 782:Drivers/STM32F1xx_HAL_Driver/Src/stm32f1xx_hal_dma.c ****       break; 
 783:Drivers/STM32F1xx_HAL_Driver/Src/stm32f1xx_hal_dma.c **** 
 784:Drivers/STM32F1xx_HAL_Driver/Src/stm32f1xx_hal_dma.c ****     default:
 785:Drivers/STM32F1xx_HAL_Driver/Src/stm32f1xx_hal_dma.c ****       status = HAL_ERROR;
 786:Drivers/STM32F1xx_HAL_Driver/Src/stm32f1xx_hal_dma.c ****       break;
 787:Drivers/STM32F1xx_HAL_Driver/Src/stm32f1xx_hal_dma.c ****     }
 788:Drivers/STM32F1xx_HAL_Driver/Src/stm32f1xx_hal_dma.c ****   }
 789:Drivers/STM32F1xx_HAL_Driver/Src/stm32f1xx_hal_dma.c ****   else
 790:Drivers/STM32F1xx_HAL_Driver/Src/stm32f1xx_hal_dma.c ****   {
 791:Drivers/STM32F1xx_HAL_Driver/Src/stm32f1xx_hal_dma.c ****     status = HAL_ERROR;
 792:Drivers/STM32F1xx_HAL_Driver/Src/stm32f1xx_hal_dma.c ****   } 
 793:Drivers/STM32F1xx_HAL_Driver/Src/stm32f1xx_hal_dma.c ****   
 794:Drivers/STM32F1xx_HAL_Driver/Src/stm32f1xx_hal_dma.c ****   /* Release Lock */
 795:Drivers/STM32F1xx_HAL_Driver/Src/stm32f1xx_hal_dma.c ****   __HAL_UNLOCK(hdma);
 796:Drivers/STM32F1xx_HAL_Driver/Src/stm32f1xx_hal_dma.c ****   
 797:Drivers/STM32F1xx_HAL_Driver/Src/stm32f1xx_hal_dma.c ****   return status;
 798:Drivers/STM32F1xx_HAL_Driver/Src/stm32f1xx_hal_dma.c **** }
 799:Drivers/STM32F1xx_HAL_Driver/Src/stm32f1xx_hal_dma.c ****   
 800:Drivers/STM32F1xx_HAL_Driver/Src/stm32f1xx_hal_dma.c **** /**
 801:Drivers/STM32F1xx_HAL_Driver/Src/stm32f1xx_hal_dma.c ****   * @}
 802:Drivers/STM32F1xx_HAL_Driver/Src/stm32f1xx_hal_dma.c ****   */
 803:Drivers/STM32F1xx_HAL_Driver/Src/stm32f1xx_hal_dma.c **** 
 804:Drivers/STM32F1xx_HAL_Driver/Src/stm32f1xx_hal_dma.c **** /** @defgroup DMA_Exported_Functions_Group3 Peripheral State and Errors functions
 805:Drivers/STM32F1xx_HAL_Driver/Src/stm32f1xx_hal_dma.c ****   *  @brief    Peripheral State and Errors functions
 806:Drivers/STM32F1xx_HAL_Driver/Src/stm32f1xx_hal_dma.c ****   *
 807:Drivers/STM32F1xx_HAL_Driver/Src/stm32f1xx_hal_dma.c **** @verbatim
 808:Drivers/STM32F1xx_HAL_Driver/Src/stm32f1xx_hal_dma.c ****  ===============================================================================
 809:Drivers/STM32F1xx_HAL_Driver/Src/stm32f1xx_hal_dma.c ****             ##### Peripheral State and Errors functions #####
 810:Drivers/STM32F1xx_HAL_Driver/Src/stm32f1xx_hal_dma.c ****  ===============================================================================  
 811:Drivers/STM32F1xx_HAL_Driver/Src/stm32f1xx_hal_dma.c ****     [..]
 812:Drivers/STM32F1xx_HAL_Driver/Src/stm32f1xx_hal_dma.c ****     This subsection provides functions allowing to
 813:Drivers/STM32F1xx_HAL_Driver/Src/stm32f1xx_hal_dma.c ****       (+) Check the DMA state
 814:Drivers/STM32F1xx_HAL_Driver/Src/stm32f1xx_hal_dma.c ****       (+) Get error code
 815:Drivers/STM32F1xx_HAL_Driver/Src/stm32f1xx_hal_dma.c **** 
 816:Drivers/STM32F1xx_HAL_Driver/Src/stm32f1xx_hal_dma.c **** @endverbatim
 817:Drivers/STM32F1xx_HAL_Driver/Src/stm32f1xx_hal_dma.c ****   * @{
 818:Drivers/STM32F1xx_HAL_Driver/Src/stm32f1xx_hal_dma.c ****   */
 819:Drivers/STM32F1xx_HAL_Driver/Src/stm32f1xx_hal_dma.c **** 
 820:Drivers/STM32F1xx_HAL_Driver/Src/stm32f1xx_hal_dma.c **** /**
 821:Drivers/STM32F1xx_HAL_Driver/Src/stm32f1xx_hal_dma.c ****   * @brief  Return the DMA hande state.
 822:Drivers/STM32F1xx_HAL_Driver/Src/stm32f1xx_hal_dma.c ****   * @param  hdma: pointer to a DMA_HandleTypeDef structure that contains
 823:Drivers/STM32F1xx_HAL_Driver/Src/stm32f1xx_hal_dma.c ****   *               the configuration information for the specified DMA Channel.
 824:Drivers/STM32F1xx_HAL_Driver/Src/stm32f1xx_hal_dma.c ****   * @retval HAL state
 825:Drivers/STM32F1xx_HAL_Driver/Src/stm32f1xx_hal_dma.c ****   */
 826:Drivers/STM32F1xx_HAL_Driver/Src/stm32f1xx_hal_dma.c **** HAL_DMA_StateTypeDef HAL_DMA_GetState(DMA_HandleTypeDef *hdma)
ARM GAS  /tmp/ccUJvcf6.s 			page 22


 827:Drivers/STM32F1xx_HAL_Driver/Src/stm32f1xx_hal_dma.c **** {
 828:Drivers/STM32F1xx_HAL_Driver/Src/stm32f1xx_hal_dma.c ****   /* Return DMA handle state */
 829:Drivers/STM32F1xx_HAL_Driver/Src/stm32f1xx_hal_dma.c ****   return hdma->State;
 830:Drivers/STM32F1xx_HAL_Driver/Src/stm32f1xx_hal_dma.c **** }
 831:Drivers/STM32F1xx_HAL_Driver/Src/stm32f1xx_hal_dma.c **** 
 832:Drivers/STM32F1xx_HAL_Driver/Src/stm32f1xx_hal_dma.c **** /**
 833:Drivers/STM32F1xx_HAL_Driver/Src/stm32f1xx_hal_dma.c ****   * @brief  Return the DMA error code.
 834:Drivers/STM32F1xx_HAL_Driver/Src/stm32f1xx_hal_dma.c ****   * @param  hdma : pointer to a DMA_HandleTypeDef structure that contains
 835:Drivers/STM32F1xx_HAL_Driver/Src/stm32f1xx_hal_dma.c ****   *              the configuration information for the specified DMA Channel.
 836:Drivers/STM32F1xx_HAL_Driver/Src/stm32f1xx_hal_dma.c ****   * @retval DMA Error Code
 837:Drivers/STM32F1xx_HAL_Driver/Src/stm32f1xx_hal_dma.c ****   */
 838:Drivers/STM32F1xx_HAL_Driver/Src/stm32f1xx_hal_dma.c **** uint32_t HAL_DMA_GetError(DMA_HandleTypeDef *hdma)
 839:Drivers/STM32F1xx_HAL_Driver/Src/stm32f1xx_hal_dma.c **** {
 840:Drivers/STM32F1xx_HAL_Driver/Src/stm32f1xx_hal_dma.c ****   return hdma->ErrorCode;
 841:Drivers/STM32F1xx_HAL_Driver/Src/stm32f1xx_hal_dma.c **** }
 842:Drivers/STM32F1xx_HAL_Driver/Src/stm32f1xx_hal_dma.c **** 
 843:Drivers/STM32F1xx_HAL_Driver/Src/stm32f1xx_hal_dma.c **** /**
 844:Drivers/STM32F1xx_HAL_Driver/Src/stm32f1xx_hal_dma.c ****   * @}
 845:Drivers/STM32F1xx_HAL_Driver/Src/stm32f1xx_hal_dma.c ****   */
 846:Drivers/STM32F1xx_HAL_Driver/Src/stm32f1xx_hal_dma.c **** 
 847:Drivers/STM32F1xx_HAL_Driver/Src/stm32f1xx_hal_dma.c **** /**
 848:Drivers/STM32F1xx_HAL_Driver/Src/stm32f1xx_hal_dma.c ****   * @}
 849:Drivers/STM32F1xx_HAL_Driver/Src/stm32f1xx_hal_dma.c ****   */
 850:Drivers/STM32F1xx_HAL_Driver/Src/stm32f1xx_hal_dma.c **** 
 851:Drivers/STM32F1xx_HAL_Driver/Src/stm32f1xx_hal_dma.c **** /** @addtogroup DMA_Private_Functions
 852:Drivers/STM32F1xx_HAL_Driver/Src/stm32f1xx_hal_dma.c ****   * @{
 853:Drivers/STM32F1xx_HAL_Driver/Src/stm32f1xx_hal_dma.c ****   */
 854:Drivers/STM32F1xx_HAL_Driver/Src/stm32f1xx_hal_dma.c **** 
 855:Drivers/STM32F1xx_HAL_Driver/Src/stm32f1xx_hal_dma.c **** /**
 856:Drivers/STM32F1xx_HAL_Driver/Src/stm32f1xx_hal_dma.c ****   * @brief  Sets the DMA Transfer parameter.
 857:Drivers/STM32F1xx_HAL_Driver/Src/stm32f1xx_hal_dma.c ****   * @param  hdma:       pointer to a DMA_HandleTypeDef structure that contains
 858:Drivers/STM32F1xx_HAL_Driver/Src/stm32f1xx_hal_dma.c ****   *                     the configuration information for the specified DMA Channel.
 859:Drivers/STM32F1xx_HAL_Driver/Src/stm32f1xx_hal_dma.c ****   * @param  SrcAddress: The source memory Buffer address
 860:Drivers/STM32F1xx_HAL_Driver/Src/stm32f1xx_hal_dma.c ****   * @param  DstAddress: The destination memory Buffer address
 861:Drivers/STM32F1xx_HAL_Driver/Src/stm32f1xx_hal_dma.c ****   * @param  DataLength: The length of data to be transferred from source to destination
 862:Drivers/STM32F1xx_HAL_Driver/Src/stm32f1xx_hal_dma.c ****   * @retval HAL status
 863:Drivers/STM32F1xx_HAL_Driver/Src/stm32f1xx_hal_dma.c ****   */
 864:Drivers/STM32F1xx_HAL_Driver/Src/stm32f1xx_hal_dma.c **** static void DMA_SetConfig(DMA_HandleTypeDef *hdma, uint32_t SrcAddress, uint32_t DstAddress, uint32
 865:Drivers/STM32F1xx_HAL_Driver/Src/stm32f1xx_hal_dma.c **** {
 866:Drivers/STM32F1xx_HAL_Driver/Src/stm32f1xx_hal_dma.c ****   /* Clear all flags */
 867:Drivers/STM32F1xx_HAL_Driver/Src/stm32f1xx_hal_dma.c ****   hdma->DmaBaseAddress->IFCR = (DMA_ISR_GIF1 << hdma->ChannelIndex);
 333              		.loc 1 867 0
 334 0022 076C     		ldr	r7, [r0, #64]
 335              	.LBE7:
 336              	.LBE6:
 355:Drivers/STM32F1xx_HAL_Driver/Src/stm32f1xx_hal_dma.c ****     
 337              		.loc 1 355 0
 338 0024 2668     		ldr	r6, [r4]
 339              	.LBB12:
 340              	.LBB8:
 341              		.loc 1 867 0
 342 0026 BD40     		lsls	r5, r5, r7
 343 0028 C76B     		ldr	r7, [r0, #60]
 344              	.LBE8:
 345              	.LBE12:
 355:Drivers/STM32F1xx_HAL_Driver/Src/stm32f1xx_hal_dma.c ****     
 346              		.loc 1 355 0
ARM GAS  /tmp/ccUJvcf6.s 			page 23


 347 002a 26F00106 		bic	r6, r6, #1
 351:Drivers/STM32F1xx_HAL_Driver/Src/stm32f1xx_hal_dma.c ****     hdma->ErrorCode = HAL_DMA_ERROR_NONE;
 348              		.loc 1 351 0
 349 002e 80F821C0 		strb	ip, [r0, #33]
 350              	.LBB13:
 351              	.LBB9:
 868:Drivers/STM32F1xx_HAL_Driver/Src/stm32f1xx_hal_dma.c **** 
 869:Drivers/STM32F1xx_HAL_Driver/Src/stm32f1xx_hal_dma.c ****   /* Configure DMA Channel data length */
 870:Drivers/STM32F1xx_HAL_Driver/Src/stm32f1xx_hal_dma.c ****   hdma->Instance->CNDTR = DataLength;
 871:Drivers/STM32F1xx_HAL_Driver/Src/stm32f1xx_hal_dma.c **** 
 872:Drivers/STM32F1xx_HAL_Driver/Src/stm32f1xx_hal_dma.c ****   /* Memory to Peripheral */
 873:Drivers/STM32F1xx_HAL_Driver/Src/stm32f1xx_hal_dma.c ****   if((hdma->Init.Direction) == DMA_MEMORY_TO_PERIPH)
 352              		.loc 1 873 0
 353 0032 4068     		ldr	r0, [r0, #4]
 354              	.LVL14:
 355              	.LBE9:
 356              	.LBE13:
 355:Drivers/STM32F1xx_HAL_Driver/Src/stm32f1xx_hal_dma.c ****     
 357              		.loc 1 355 0
 358 0034 2660     		str	r6, [r4]
 359              	.LVL15:
 360              	.LBB14:
 361              	.LBB10:
 867:Drivers/STM32F1xx_HAL_Driver/Src/stm32f1xx_hal_dma.c **** 
 362              		.loc 1 867 0
 363 0036 7D60     		str	r5, [r7, #4]
 870:Drivers/STM32F1xx_HAL_Driver/Src/stm32f1xx_hal_dma.c **** 
 364              		.loc 1 870 0
 365 0038 6360     		str	r3, [r4, #4]
 366              	.LBE10:
 367              	.LBE14:
 340:Drivers/STM32F1xx_HAL_Driver/Src/stm32f1xx_hal_dma.c **** 
 368              		.loc 1 340 0
 369 003a 0023     		movs	r3, #0
 370              	.LVL16:
 371              	.LBB15:
 372              	.LBB11:
 373              		.loc 1 873 0
 374 003c 1028     		cmp	r0, #16
 874:Drivers/STM32F1xx_HAL_Driver/Src/stm32f1xx_hal_dma.c ****   {
 875:Drivers/STM32F1xx_HAL_Driver/Src/stm32f1xx_hal_dma.c ****     /* Configure DMA Channel destination address */
 876:Drivers/STM32F1xx_HAL_Driver/Src/stm32f1xx_hal_dma.c ****     hdma->Instance->CPAR = DstAddress;
 375              		.loc 1 876 0
 376 003e 0BBF     		itete	eq
 377 0040 A260     		streq	r2, [r4, #8]
 877:Drivers/STM32F1xx_HAL_Driver/Src/stm32f1xx_hal_dma.c **** 
 878:Drivers/STM32F1xx_HAL_Driver/Src/stm32f1xx_hal_dma.c ****     /* Configure DMA Channel source address */
 879:Drivers/STM32F1xx_HAL_Driver/Src/stm32f1xx_hal_dma.c ****     hdma->Instance->CMAR = SrcAddress;
 880:Drivers/STM32F1xx_HAL_Driver/Src/stm32f1xx_hal_dma.c ****   }
 881:Drivers/STM32F1xx_HAL_Driver/Src/stm32f1xx_hal_dma.c ****   /* Peripheral to Memory */
 882:Drivers/STM32F1xx_HAL_Driver/Src/stm32f1xx_hal_dma.c ****   else
 883:Drivers/STM32F1xx_HAL_Driver/Src/stm32f1xx_hal_dma.c ****   {
 884:Drivers/STM32F1xx_HAL_Driver/Src/stm32f1xx_hal_dma.c ****     /* Configure DMA Channel source address */
 885:Drivers/STM32F1xx_HAL_Driver/Src/stm32f1xx_hal_dma.c ****     hdma->Instance->CPAR = SrcAddress;
 378              		.loc 1 885 0
 379 0042 A160     		strne	r1, [r4, #8]
 879:Drivers/STM32F1xx_HAL_Driver/Src/stm32f1xx_hal_dma.c ****   }
ARM GAS  /tmp/ccUJvcf6.s 			page 24


 380              		.loc 1 879 0
 381 0044 E160     		streq	r1, [r4, #12]
 886:Drivers/STM32F1xx_HAL_Driver/Src/stm32f1xx_hal_dma.c **** 
 887:Drivers/STM32F1xx_HAL_Driver/Src/stm32f1xx_hal_dma.c ****     /* Configure DMA Channel destination address */
 888:Drivers/STM32F1xx_HAL_Driver/Src/stm32f1xx_hal_dma.c ****     hdma->Instance->CMAR = DstAddress;
 382              		.loc 1 888 0
 383 0046 E260     		strne	r2, [r4, #12]
 384              	.LVL17:
 385              	.LBE11:
 386              	.LBE15:
 361:Drivers/STM32F1xx_HAL_Driver/Src/stm32f1xx_hal_dma.c ****   }
 387              		.loc 1 361 0
 388 0048 2268     		ldr	r2, [r4]
 389              	.LVL18:
 370:Drivers/STM32F1xx_HAL_Driver/Src/stm32f1xx_hal_dma.c **** 
 390              		.loc 1 370 0
 391 004a 1846     		mov	r0, r3
 361:Drivers/STM32F1xx_HAL_Driver/Src/stm32f1xx_hal_dma.c ****   }
 392              		.loc 1 361 0
 393 004c 42F00102 		orr	r2, r2, #1
 394 0050 2260     		str	r2, [r4]
 395              	.LVL19:
 370:Drivers/STM32F1xx_HAL_Driver/Src/stm32f1xx_hal_dma.c **** 
 396              		.loc 1 370 0
 397 0052 F0BC     		pop	{r4, r5, r6, r7}
 398              	.LCFI9:
 399              		.cfi_remember_state
 400              		.cfi_restore 7
 401              		.cfi_restore 6
 402              		.cfi_restore 5
 403              		.cfi_restore 4
 404              		.cfi_def_cfa_offset 0
 405 0054 7047     		bx	lr
 406              	.LVL20:
 407              	.L28:
 408              	.LCFI10:
 409              		.cfi_restore_state
 366:Drivers/STM32F1xx_HAL_Driver/Src/stm32f1xx_hal_dma.c ****    status = HAL_BUSY;
 410              		.loc 1 366 0
 411 0056 0022     		movs	r2, #0
 412              	.LVL21:
 370:Drivers/STM32F1xx_HAL_Driver/Src/stm32f1xx_hal_dma.c **** 
 413              		.loc 1 370 0
 414 0058 F0BC     		pop	{r4, r5, r6, r7}
 415              	.LCFI11:
 416              		.cfi_remember_state
 417              		.cfi_restore 7
 418              		.cfi_restore 6
 419              		.cfi_restore 5
 420              		.cfi_restore 4
 421              		.cfi_def_cfa_offset 0
 367:Drivers/STM32F1xx_HAL_Driver/Src/stm32f1xx_hal_dma.c ****   }  
 422              		.loc 1 367 0
 423 005a 0223     		movs	r3, #2
 424              	.LVL22:
 366:Drivers/STM32F1xx_HAL_Driver/Src/stm32f1xx_hal_dma.c ****    status = HAL_BUSY;
 425              		.loc 1 366 0
ARM GAS  /tmp/ccUJvcf6.s 			page 25


 426 005c 80F82020 		strb	r2, [r0, #32]
 427              	.LVL23:
 370:Drivers/STM32F1xx_HAL_Driver/Src/stm32f1xx_hal_dma.c **** 
 428              		.loc 1 370 0
 429 0060 1846     		mov	r0, r3
 430              	.LVL24:
 431 0062 7047     		bx	lr
 432              	.LVL25:
 433              	.L31:
 434              	.LCFI12:
 435              		.cfi_restore_state
 346:Drivers/STM32F1xx_HAL_Driver/Src/stm32f1xx_hal_dma.c **** 
 436              		.loc 1 346 0
 437 0064 0223     		movs	r3, #2
 438              	.LVL26:
 370:Drivers/STM32F1xx_HAL_Driver/Src/stm32f1xx_hal_dma.c **** 
 439              		.loc 1 370 0
 440 0066 F0BC     		pop	{r4, r5, r6, r7}
 441              	.LCFI13:
 442              		.cfi_restore 7
 443              		.cfi_restore 6
 444              		.cfi_restore 5
 445              		.cfi_restore 4
 446              		.cfi_def_cfa_offset 0
 447 0068 1846     		mov	r0, r3
 448              	.LVL27:
 449 006a 7047     		bx	lr
 450              		.cfi_endproc
 451              	.LFE68:
 453              		.section	.text.HAL_DMA_Start_IT,"ax",%progbits
 454              		.align	1
 455              		.p2align 2,,3
 456              		.global	HAL_DMA_Start_IT
 457              		.syntax unified
 458              		.thumb
 459              		.thumb_func
 460              		.fpu softvfp
 462              	HAL_DMA_Start_IT:
 463              	.LFB69:
 382:Drivers/STM32F1xx_HAL_Driver/Src/stm32f1xx_hal_dma.c ****   HAL_StatusTypeDef status = HAL_OK;
 464              		.loc 1 382 0
 465              		.cfi_startproc
 466              		@ args = 0, pretend = 0, frame = 0
 467              		@ frame_needed = 0, uses_anonymous_args = 0
 468              	.LVL28:
 469 0000 F0B5     		push	{r4, r5, r6, r7, lr}
 470              	.LCFI14:
 471              		.cfi_def_cfa_offset 20
 472              		.cfi_offset 4, -20
 473              		.cfi_offset 5, -16
 474              		.cfi_offset 6, -12
 475              		.cfi_offset 7, -8
 476              		.cfi_offset 14, -4
 389:Drivers/STM32F1xx_HAL_Driver/Src/stm32f1xx_hal_dma.c ****   
 477              		.loc 1 389 0
 478 0002 90F82040 		ldrb	r4, [r0, #32]	@ zero_extendqisi2
 479 0006 012C     		cmp	r4, #1
ARM GAS  /tmp/ccUJvcf6.s 			page 26


 480 0008 32D0     		beq	.L40
 389:Drivers/STM32F1xx_HAL_Driver/Src/stm32f1xx_hal_dma.c ****   
 481              		.loc 1 389 0 is_stmt 0 discriminator 2
 482 000a 0124     		movs	r4, #1
 391:Drivers/STM32F1xx_HAL_Driver/Src/stm32f1xx_hal_dma.c ****   {
 483              		.loc 1 391 0 is_stmt 1 discriminator 2
 484 000c 90F82150 		ldrb	r5, [r0, #33]	@ zero_extendqisi2
 389:Drivers/STM32F1xx_HAL_Driver/Src/stm32f1xx_hal_dma.c ****   
 485              		.loc 1 389 0 discriminator 2
 486 0010 80F82040 		strb	r4, [r0, #32]
 391:Drivers/STM32F1xx_HAL_Driver/Src/stm32f1xx_hal_dma.c ****   {
 487              		.loc 1 391 0 discriminator 2
 488 0014 A542     		cmp	r5, r4
 489 0016 25D1     		bne	.L35
 395:Drivers/STM32F1xx_HAL_Driver/Src/stm32f1xx_hal_dma.c ****     
 490              		.loc 1 395 0
 491 0018 0026     		movs	r6, #0
 394:Drivers/STM32F1xx_HAL_Driver/Src/stm32f1xx_hal_dma.c ****     hdma->ErrorCode = HAL_DMA_ERROR_NONE;
 492              		.loc 1 394 0
 493 001a 4FF0020E 		mov	lr, #2
 398:Drivers/STM32F1xx_HAL_Driver/Src/stm32f1xx_hal_dma.c ****     
 494              		.loc 1 398 0
 495 001e 0468     		ldr	r4, [r0]
 395:Drivers/STM32F1xx_HAL_Driver/Src/stm32f1xx_hal_dma.c ****     
 496              		.loc 1 395 0
 497 0020 8663     		str	r6, [r0, #56]
 398:Drivers/STM32F1xx_HAL_Driver/Src/stm32f1xx_hal_dma.c ****     
 498              		.loc 1 398 0
 499 0022 2668     		ldr	r6, [r4]
 500              	.LBB16:
 501              	.LBB17:
 867:Drivers/STM32F1xx_HAL_Driver/Src/stm32f1xx_hal_dma.c **** 
 502              		.loc 1 867 0
 503 0024 076C     		ldr	r7, [r0, #64]
 504 0026 D0F83CC0 		ldr	ip, [r0, #60]
 505 002a BD40     		lsls	r5, r5, r7
 506              	.LBE17:
 507              	.LBE16:
 398:Drivers/STM32F1xx_HAL_Driver/Src/stm32f1xx_hal_dma.c ****     
 508              		.loc 1 398 0
 509 002c 26F00106 		bic	r6, r6, #1
 510              	.LBB21:
 511              	.LBB18:
 873:Drivers/STM32F1xx_HAL_Driver/Src/stm32f1xx_hal_dma.c ****   {
 512              		.loc 1 873 0
 513 0030 4768     		ldr	r7, [r0, #4]
 514              	.LBE18:
 515              	.LBE21:
 394:Drivers/STM32F1xx_HAL_Driver/Src/stm32f1xx_hal_dma.c ****     hdma->ErrorCode = HAL_DMA_ERROR_NONE;
 516              		.loc 1 394 0
 517 0032 80F821E0 		strb	lr, [r0, #33]
 398:Drivers/STM32F1xx_HAL_Driver/Src/stm32f1xx_hal_dma.c ****     
 518              		.loc 1 398 0
 519 0036 2660     		str	r6, [r4]
 520              	.LVL29:
 521              	.LBB22:
 522              	.LBB19:
ARM GAS  /tmp/ccUJvcf6.s 			page 27


 867:Drivers/STM32F1xx_HAL_Driver/Src/stm32f1xx_hal_dma.c **** 
 523              		.loc 1 867 0
 524 0038 CCF80450 		str	r5, [ip, #4]
 870:Drivers/STM32F1xx_HAL_Driver/Src/stm32f1xx_hal_dma.c **** 
 525              		.loc 1 870 0
 526 003c 6360     		str	r3, [r4, #4]
 527              	.LBE19:
 528              	.LBE22:
 405:Drivers/STM32F1xx_HAL_Driver/Src/stm32f1xx_hal_dma.c ****     {
 529              		.loc 1 405 0
 530 003e C36A     		ldr	r3, [r0, #44]
 531              	.LVL30:
 532              	.LBB23:
 533              	.LBB20:
 873:Drivers/STM32F1xx_HAL_Driver/Src/stm32f1xx_hal_dma.c ****   {
 534              		.loc 1 873 0
 535 0040 102F     		cmp	r7, #16
 876:Drivers/STM32F1xx_HAL_Driver/Src/stm32f1xx_hal_dma.c **** 
 536              		.loc 1 876 0
 537 0042 0BBF     		itete	eq
 538 0044 A260     		streq	r2, [r4, #8]
 885:Drivers/STM32F1xx_HAL_Driver/Src/stm32f1xx_hal_dma.c **** 
 539              		.loc 1 885 0
 540 0046 A160     		strne	r1, [r4, #8]
 879:Drivers/STM32F1xx_HAL_Driver/Src/stm32f1xx_hal_dma.c ****   }
 541              		.loc 1 879 0
 542 0048 E160     		streq	r1, [r4, #12]
 543              		.loc 1 888 0
 544 004a E260     		strne	r2, [r4, #12]
 545              	.LBE20:
 546              	.LBE23:
 405:Drivers/STM32F1xx_HAL_Driver/Src/stm32f1xx_hal_dma.c ****     {
 547              		.loc 1 405 0
 548 004c 9BB1     		cbz	r3, .L38
 408:Drivers/STM32F1xx_HAL_Driver/Src/stm32f1xx_hal_dma.c ****     }
 549              		.loc 1 408 0
 550 004e 2368     		ldr	r3, [r4]
 551 0050 43F00E03 		orr	r3, r3, #14
 552 0054 2360     		str	r3, [r4]
 553              	.LVL31:
 554              	.L39:
 383:Drivers/STM32F1xx_HAL_Driver/Src/stm32f1xx_hal_dma.c **** 
 555              		.loc 1 383 0
 556 0056 0023     		movs	r3, #0
 416:Drivers/STM32F1xx_HAL_Driver/Src/stm32f1xx_hal_dma.c ****   }
 557              		.loc 1 416 0
 558 0058 2268     		ldr	r2, [r4]
 559              	.LVL32:
 427:Drivers/STM32F1xx_HAL_Driver/Src/stm32f1xx_hal_dma.c **** 
 560              		.loc 1 427 0
 561 005a 1846     		mov	r0, r3
 562              	.LVL33:
 416:Drivers/STM32F1xx_HAL_Driver/Src/stm32f1xx_hal_dma.c ****   }
 563              		.loc 1 416 0
 564 005c 42F00102 		orr	r2, r2, #1
 565 0060 2260     		str	r2, [r4]
 427:Drivers/STM32F1xx_HAL_Driver/Src/stm32f1xx_hal_dma.c **** 
ARM GAS  /tmp/ccUJvcf6.s 			page 28


 566              		.loc 1 427 0
 567 0062 F0BD     		pop	{r4, r5, r6, r7, pc}
 568              	.LVL34:
 569              	.L35:
 421:Drivers/STM32F1xx_HAL_Driver/Src/stm32f1xx_hal_dma.c **** 
 570              		.loc 1 421 0
 571 0064 0022     		movs	r2, #0
 572              	.LVL35:
 424:Drivers/STM32F1xx_HAL_Driver/Src/stm32f1xx_hal_dma.c ****   }    
 573              		.loc 1 424 0
 574 0066 0223     		movs	r3, #2
 575              	.LVL36:
 421:Drivers/STM32F1xx_HAL_Driver/Src/stm32f1xx_hal_dma.c **** 
 576              		.loc 1 421 0
 577 0068 80F82020 		strb	r2, [r0, #32]
 578              	.LVL37:
 427:Drivers/STM32F1xx_HAL_Driver/Src/stm32f1xx_hal_dma.c **** 
 579              		.loc 1 427 0
 580 006c 1846     		mov	r0, r3
 581              	.LVL38:
 582 006e F0BD     		pop	{r4, r5, r6, r7, pc}
 583              	.LVL39:
 584              	.L40:
 389:Drivers/STM32F1xx_HAL_Driver/Src/stm32f1xx_hal_dma.c ****   
 585              		.loc 1 389 0
 586 0070 0223     		movs	r3, #2
 587              	.LVL40:
 427:Drivers/STM32F1xx_HAL_Driver/Src/stm32f1xx_hal_dma.c **** 
 588              		.loc 1 427 0
 589 0072 1846     		mov	r0, r3
 590              	.LVL41:
 591 0074 F0BD     		pop	{r4, r5, r6, r7, pc}
 592              	.LVL42:
 593              	.L38:
 412:Drivers/STM32F1xx_HAL_Driver/Src/stm32f1xx_hal_dma.c ****       __HAL_DMA_ENABLE_IT(hdma, (DMA_IT_TC | DMA_IT_TE));
 594              		.loc 1 412 0
 595 0076 2368     		ldr	r3, [r4]
 596 0078 23F00403 		bic	r3, r3, #4
 597 007c 2360     		str	r3, [r4]
 598              	.LVL43:
 413:Drivers/STM32F1xx_HAL_Driver/Src/stm32f1xx_hal_dma.c ****     }
 599              		.loc 1 413 0
 600 007e 2368     		ldr	r3, [r4]
 601 0080 43F00A03 		orr	r3, r3, #10
 602 0084 2360     		str	r3, [r4]
 603 0086 E6E7     		b	.L39
 604              		.cfi_endproc
 605              	.LFE69:
 607              		.section	.text.HAL_DMA_Abort,"ax",%progbits
 608              		.align	1
 609              		.p2align 2,,3
 610              		.global	HAL_DMA_Abort
 611              		.syntax unified
 612              		.thumb
 613              		.thumb_func
 614              		.fpu softvfp
 616              	HAL_DMA_Abort:
ARM GAS  /tmp/ccUJvcf6.s 			page 29


 617              	.LFB70:
 436:Drivers/STM32F1xx_HAL_Driver/Src/stm32f1xx_hal_dma.c ****   HAL_StatusTypeDef status = HAL_OK;
 618              		.loc 1 436 0
 619              		.cfi_startproc
 620              		@ args = 0, pretend = 0, frame = 0
 621              		@ frame_needed = 0, uses_anonymous_args = 0
 622              		@ link register save eliminated.
 623              	.LVL44:
 624 0000 0346     		mov	r3, r0
 625 0002 70B4     		push	{r4, r5, r6}
 626              	.LCFI15:
 627              		.cfi_def_cfa_offset 12
 628              		.cfi_offset 4, -12
 629              		.cfi_offset 5, -8
 630              		.cfi_offset 6, -4
 446:Drivers/STM32F1xx_HAL_Driver/Src/stm32f1xx_hal_dma.c **** 
 631              		.loc 1 446 0
 632 0004 0125     		movs	r5, #1
 452:Drivers/STM32F1xx_HAL_Driver/Src/stm32f1xx_hal_dma.c ****   
 633              		.loc 1 452 0
 634 0006 0024     		movs	r4, #0
 440:Drivers/STM32F1xx_HAL_Driver/Src/stm32f1xx_hal_dma.c ****     
 635              		.loc 1 440 0
 636 0008 0268     		ldr	r2, [r0]
 446:Drivers/STM32F1xx_HAL_Driver/Src/stm32f1xx_hal_dma.c **** 
 637              		.loc 1 446 0
 638 000a 016C     		ldr	r1, [r0, #64]
 440:Drivers/STM32F1xx_HAL_Driver/Src/stm32f1xx_hal_dma.c ****     
 639              		.loc 1 440 0
 640 000c 1068     		ldr	r0, [r2]
 641              	.LVL45:
 446:Drivers/STM32F1xx_HAL_Driver/Src/stm32f1xx_hal_dma.c **** 
 642              		.loc 1 446 0
 643 000e DE6B     		ldr	r6, [r3, #60]
 440:Drivers/STM32F1xx_HAL_Driver/Src/stm32f1xx_hal_dma.c ****     
 644              		.loc 1 440 0
 645 0010 20F00E00 		bic	r0, r0, #14
 646 0014 1060     		str	r0, [r2]
 443:Drivers/STM32F1xx_HAL_Driver/Src/stm32f1xx_hal_dma.c ****     
 647              		.loc 1 443 0
 648 0016 1068     		ldr	r0, [r2]
 446:Drivers/STM32F1xx_HAL_Driver/Src/stm32f1xx_hal_dma.c **** 
 649              		.loc 1 446 0
 650 0018 05FA01F1 		lsl	r1, r5, r1
 443:Drivers/STM32F1xx_HAL_Driver/Src/stm32f1xx_hal_dma.c ****     
 651              		.loc 1 443 0
 652 001c 20F00100 		bic	r0, r0, #1
 653 0020 1060     		str	r0, [r2]
 446:Drivers/STM32F1xx_HAL_Driver/Src/stm32f1xx_hal_dma.c **** 
 654              		.loc 1 446 0
 655 0022 7160     		str	r1, [r6, #4]
 455:Drivers/STM32F1xx_HAL_Driver/Src/stm32f1xx_hal_dma.c **** 
 656              		.loc 1 455 0
 657 0024 2046     		mov	r0, r4
 449:Drivers/STM32F1xx_HAL_Driver/Src/stm32f1xx_hal_dma.c **** 
 658              		.loc 1 449 0
 659 0026 83F82150 		strb	r5, [r3, #33]
ARM GAS  /tmp/ccUJvcf6.s 			page 30


 452:Drivers/STM32F1xx_HAL_Driver/Src/stm32f1xx_hal_dma.c ****   
 660              		.loc 1 452 0
 661 002a 83F82040 		strb	r4, [r3, #32]
 455:Drivers/STM32F1xx_HAL_Driver/Src/stm32f1xx_hal_dma.c **** 
 662              		.loc 1 455 0
 663 002e 70BC     		pop	{r4, r5, r6}
 664              	.LCFI16:
 665              		.cfi_restore 6
 666              		.cfi_restore 5
 667              		.cfi_restore 4
 668              		.cfi_def_cfa_offset 0
 669 0030 7047     		bx	lr
 670              		.cfi_endproc
 671              	.LFE70:
 673 0032 00BF     		.section	.text.HAL_DMA_Abort_IT,"ax",%progbits
 674              		.align	1
 675              		.p2align 2,,3
 676              		.global	HAL_DMA_Abort_IT
 677              		.syntax unified
 678              		.thumb
 679              		.thumb_func
 680              		.fpu softvfp
 682              	HAL_DMA_Abort_IT:
 683              	.LFB71:
 464:Drivers/STM32F1xx_HAL_Driver/Src/stm32f1xx_hal_dma.c ****   HAL_StatusTypeDef status = HAL_OK;
 684              		.loc 1 464 0
 685              		.cfi_startproc
 686              		@ args = 0, pretend = 0, frame = 0
 687              		@ frame_needed = 0, uses_anonymous_args = 0
 688              	.LVL46:
 467:Drivers/STM32F1xx_HAL_Driver/Src/stm32f1xx_hal_dma.c ****   {
 689              		.loc 1 467 0
 690 0000 90F82130 		ldrb	r3, [r0, #33]	@ zero_extendqisi2
 464:Drivers/STM32F1xx_HAL_Driver/Src/stm32f1xx_hal_dma.c ****   HAL_StatusTypeDef status = HAL_OK;
 691              		.loc 1 464 0
 692 0004 10B5     		push	{r4, lr}
 693              	.LCFI17:
 694              		.cfi_def_cfa_offset 8
 695              		.cfi_offset 4, -8
 696              		.cfi_offset 14, -4
 467:Drivers/STM32F1xx_HAL_Driver/Src/stm32f1xx_hal_dma.c ****   {
 697              		.loc 1 467 0
 698 0006 022B     		cmp	r3, #2
 699 0008 04D0     		beq	.L45
 470:Drivers/STM32F1xx_HAL_Driver/Src/stm32f1xx_hal_dma.c ****         
 700              		.loc 1 470 0
 701 000a 0422     		movs	r2, #4
 472:Drivers/STM32F1xx_HAL_Driver/Src/stm32f1xx_hal_dma.c ****   }
 702              		.loc 1 472 0
 703 000c 0124     		movs	r4, #1
 470:Drivers/STM32F1xx_HAL_Driver/Src/stm32f1xx_hal_dma.c ****         
 704              		.loc 1 470 0
 705 000e 8263     		str	r2, [r0, #56]
 706              	.LVL47:
 707              	.L46:
 498:Drivers/STM32F1xx_HAL_Driver/Src/stm32f1xx_hal_dma.c **** 
 708              		.loc 1 498 0
ARM GAS  /tmp/ccUJvcf6.s 			page 31


 709 0010 2046     		mov	r0, r4
 710              	.LVL48:
 711 0012 10BD     		pop	{r4, pc}
 712              	.LVL49:
 713              	.L45:
 477:Drivers/STM32F1xx_HAL_Driver/Src/stm32f1xx_hal_dma.c **** 
 714              		.loc 1 477 0
 715 0014 0368     		ldr	r3, [r0]
 483:Drivers/STM32F1xx_HAL_Driver/Src/stm32f1xx_hal_dma.c **** 
 716              		.loc 1 483 0
 717 0016 4649     		ldr	r1, .L75
 477:Drivers/STM32F1xx_HAL_Driver/Src/stm32f1xx_hal_dma.c **** 
 718              		.loc 1 477 0
 719 0018 1A68     		ldr	r2, [r3]
 483:Drivers/STM32F1xx_HAL_Driver/Src/stm32f1xx_hal_dma.c **** 
 720              		.loc 1 483 0
 721 001a 8B42     		cmp	r3, r1
 477:Drivers/STM32F1xx_HAL_Driver/Src/stm32f1xx_hal_dma.c **** 
 722              		.loc 1 477 0
 723 001c 22F00E02 		bic	r2, r2, #14
 724 0020 1A60     		str	r2, [r3]
 480:Drivers/STM32F1xx_HAL_Driver/Src/stm32f1xx_hal_dma.c **** 
 725              		.loc 1 480 0
 726 0022 1A68     		ldr	r2, [r3]
 727 0024 22F00102 		bic	r2, r2, #1
 728 0028 1A60     		str	r2, [r3]
 483:Drivers/STM32F1xx_HAL_Driver/Src/stm32f1xx_hal_dma.c **** 
 729              		.loc 1 483 0
 730 002a 424A     		ldr	r2, .L75+4
 731 002c 24D9     		bls	.L47
 483:Drivers/STM32F1xx_HAL_Driver/Src/stm32f1xx_hal_dma.c **** 
 732              		.loc 1 483 0 is_stmt 0 discriminator 1
 733 002e 9342     		cmp	r3, r2
 734 0030 55D0     		beq	.L58
 483:Drivers/STM32F1xx_HAL_Driver/Src/stm32f1xx_hal_dma.c **** 
 735              		.loc 1 483 0 discriminator 3
 736 0032 1432     		adds	r2, r2, #20
 737 0034 9342     		cmp	r3, r2
 738 0036 5CD0     		beq	.L59
 483:Drivers/STM32F1xx_HAL_Driver/Src/stm32f1xx_hal_dma.c **** 
 739              		.loc 1 483 0 discriminator 5
 740 0038 1432     		adds	r2, r2, #20
 741 003a 9342     		cmp	r3, r2
 742 003c 60D0     		beq	.L60
 483:Drivers/STM32F1xx_HAL_Driver/Src/stm32f1xx_hal_dma.c **** 
 743              		.loc 1 483 0 discriminator 7
 744 003e 1432     		adds	r2, r2, #20
 745 0040 9342     		cmp	r3, r2
 746 0042 50D0     		beq	.L54
 483:Drivers/STM32F1xx_HAL_Driver/Src/stm32f1xx_hal_dma.c **** 
 747              		.loc 1 483 0 discriminator 9
 748 0044 1432     		adds	r2, r2, #20
 749 0046 9342     		cmp	r3, r2
 750 0048 5FD0     		beq	.L55
 483:Drivers/STM32F1xx_HAL_Driver/Src/stm32f1xx_hal_dma.c **** 
 751              		.loc 1 483 0 discriminator 11
 752 004a 1432     		adds	r2, r2, #20
ARM GAS  /tmp/ccUJvcf6.s 			page 32


 753 004c 9342     		cmp	r3, r2
 754 004e 62D0     		beq	.L56
 483:Drivers/STM32F1xx_HAL_Driver/Src/stm32f1xx_hal_dma.c **** 
 755              		.loc 1 483 0 discriminator 13
 756 0050 8B42     		cmp	r3, r1
 757 0052 66D0     		beq	.L57
 483:Drivers/STM32F1xx_HAL_Driver/Src/stm32f1xx_hal_dma.c **** 
 758              		.loc 1 483 0 discriminator 15
 759 0054 02F56772 		add	r2, r2, #924
 760 0058 9342     		cmp	r3, r2
 761 005a 40D0     		beq	.L58
 483:Drivers/STM32F1xx_HAL_Driver/Src/stm32f1xx_hal_dma.c **** 
 762              		.loc 1 483 0 discriminator 17
 763 005c 1432     		adds	r2, r2, #20
 764 005e 9342     		cmp	r3, r2
 765 0060 47D0     		beq	.L59
 483:Drivers/STM32F1xx_HAL_Driver/Src/stm32f1xx_hal_dma.c **** 
 766              		.loc 1 483 0 discriminator 19
 767 0062 1432     		adds	r2, r2, #20
 768 0064 9342     		cmp	r3, r2
 769 0066 4BD0     		beq	.L60
 483:Drivers/STM32F1xx_HAL_Driver/Src/stm32f1xx_hal_dma.c **** 
 770              		.loc 1 483 0 discriminator 21
 771 0068 1432     		adds	r2, r2, #20
 772 006a 9342     		cmp	r3, r2
 773 006c 14BF     		ite	ne
 774 006e 4FF48033 		movne	r3, #65536
 775 0072 4FF48053 		moveq	r3, #4096
 776 0076 33E0     		b	.L48
 777              	.L47:
 483:Drivers/STM32F1xx_HAL_Driver/Src/stm32f1xx_hal_dma.c **** 
 778              		.loc 1 483 0 discriminator 2
 779 0078 9342     		cmp	r3, r2
 780 007a 22D0     		beq	.L69
 483:Drivers/STM32F1xx_HAL_Driver/Src/stm32f1xx_hal_dma.c **** 
 781              		.loc 1 483 0 discriminator 47
 782 007c 1432     		adds	r2, r2, #20
 783 007e 9342     		cmp	r3, r2
 784 0080 39D0     		beq	.L70
 483:Drivers/STM32F1xx_HAL_Driver/Src/stm32f1xx_hal_dma.c **** 
 785              		.loc 1 483 0 discriminator 49
 786 0082 1432     		adds	r2, r2, #20
 787 0084 9342     		cmp	r3, r2
 788 0086 38D0     		beq	.L71
 483:Drivers/STM32F1xx_HAL_Driver/Src/stm32f1xx_hal_dma.c **** 
 789              		.loc 1 483 0 discriminator 51
 790 0088 1432     		adds	r2, r2, #20
 791 008a 9342     		cmp	r3, r2
 792 008c 2ED0     		beq	.L65
 483:Drivers/STM32F1xx_HAL_Driver/Src/stm32f1xx_hal_dma.c **** 
 793              		.loc 1 483 0 discriminator 53
 794 008e 1432     		adds	r2, r2, #20
 795 0090 9342     		cmp	r3, r2
 796 0092 3DD0     		beq	.L66
 483:Drivers/STM32F1xx_HAL_Driver/Src/stm32f1xx_hal_dma.c **** 
 797              		.loc 1 483 0 discriminator 55
 798 0094 1432     		adds	r2, r2, #20
ARM GAS  /tmp/ccUJvcf6.s 			page 33


 799 0096 9342     		cmp	r3, r2
 800 0098 40D0     		beq	.L67
 483:Drivers/STM32F1xx_HAL_Driver/Src/stm32f1xx_hal_dma.c **** 
 801              		.loc 1 483 0 discriminator 57
 802 009a 8B42     		cmp	r3, r1
 803 009c 44D0     		beq	.L68
 483:Drivers/STM32F1xx_HAL_Driver/Src/stm32f1xx_hal_dma.c **** 
 804              		.loc 1 483 0 discriminator 59
 805 009e 02F56772 		add	r2, r2, #924
 806 00a2 9342     		cmp	r3, r2
 807 00a4 0DD0     		beq	.L69
 483:Drivers/STM32F1xx_HAL_Driver/Src/stm32f1xx_hal_dma.c **** 
 808              		.loc 1 483 0 discriminator 61
 809 00a6 1432     		adds	r2, r2, #20
 810 00a8 9342     		cmp	r3, r2
 811 00aa 24D0     		beq	.L70
 483:Drivers/STM32F1xx_HAL_Driver/Src/stm32f1xx_hal_dma.c **** 
 812              		.loc 1 483 0 discriminator 63
 813 00ac 1432     		adds	r2, r2, #20
 814 00ae 9342     		cmp	r3, r2
 815 00b0 23D0     		beq	.L71
 483:Drivers/STM32F1xx_HAL_Driver/Src/stm32f1xx_hal_dma.c **** 
 816              		.loc 1 483 0 discriminator 65
 817 00b2 1432     		adds	r2, r2, #20
 818 00b4 9342     		cmp	r3, r2
 819 00b6 14BF     		ite	ne
 820 00b8 4FF48033 		movne	r3, #65536
 821 00bc 4FF48053 		moveq	r3, #4096
 822 00c0 00E0     		b	.L50
 823              	.L69:
 483:Drivers/STM32F1xx_HAL_Driver/Src/stm32f1xx_hal_dma.c **** 
 824              		.loc 1 483 0
 825 00c2 0123     		movs	r3, #1
 826              	.L50:
 483:Drivers/STM32F1xx_HAL_Driver/Src/stm32f1xx_hal_dma.c **** 
 827              		.loc 1 483 0 discriminator 90
 828 00c4 1C4A     		ldr	r2, .L75+8
 829 00c6 5360     		str	r3, [r2, #4]
 830              	.L49:
 486:Drivers/STM32F1xx_HAL_Driver/Src/stm32f1xx_hal_dma.c **** 
 831              		.loc 1 486 0 is_stmt 1
 832 00c8 0122     		movs	r2, #1
 489:Drivers/STM32F1xx_HAL_Driver/Src/stm32f1xx_hal_dma.c **** 
 833              		.loc 1 489 0
 834 00ca 0024     		movs	r4, #0
 492:Drivers/STM32F1xx_HAL_Driver/Src/stm32f1xx_hal_dma.c ****     {
 835              		.loc 1 492 0
 836 00cc 436B     		ldr	r3, [r0, #52]
 486:Drivers/STM32F1xx_HAL_Driver/Src/stm32f1xx_hal_dma.c **** 
 837              		.loc 1 486 0
 838 00ce 80F82120 		strb	r2, [r0, #33]
 489:Drivers/STM32F1xx_HAL_Driver/Src/stm32f1xx_hal_dma.c **** 
 839              		.loc 1 489 0
 840 00d2 80F82040 		strb	r4, [r0, #32]
 492:Drivers/STM32F1xx_HAL_Driver/Src/stm32f1xx_hal_dma.c ****     {
 841              		.loc 1 492 0
 842 00d6 B3B1     		cbz	r3, .L73
ARM GAS  /tmp/ccUJvcf6.s 			page 34


 494:Drivers/STM32F1xx_HAL_Driver/Src/stm32f1xx_hal_dma.c ****     } 
 843              		.loc 1 494 0
 844 00d8 9847     		blx	r3
 845              	.LVL50:
 498:Drivers/STM32F1xx_HAL_Driver/Src/stm32f1xx_hal_dma.c **** 
 846              		.loc 1 498 0
 847 00da 2046     		mov	r0, r4
 848 00dc 10BD     		pop	{r4, pc}
 849              	.LVL51:
 850              	.L58:
 483:Drivers/STM32F1xx_HAL_Driver/Src/stm32f1xx_hal_dma.c **** 
 851              		.loc 1 483 0
 852 00de 0123     		movs	r3, #1
 853              	.L48:
 483:Drivers/STM32F1xx_HAL_Driver/Src/stm32f1xx_hal_dma.c **** 
 854              		.loc 1 483 0 is_stmt 0 discriminator 46
 855 00e0 164A     		ldr	r2, .L75+12
 856 00e2 5360     		str	r3, [r2, #4]
 857 00e4 F0E7     		b	.L49
 858              	.L54:
 483:Drivers/STM32F1xx_HAL_Driver/Src/stm32f1xx_hal_dma.c **** 
 859              		.loc 1 483 0
 860 00e6 4FF48053 		mov	r3, #4096
 861 00ea F9E7     		b	.L48
 862              	.L65:
 863 00ec 4FF48053 		mov	r3, #4096
 864 00f0 E8E7     		b	.L50
 865              	.L59:
 866 00f2 1023     		movs	r3, #16
 867 00f4 F4E7     		b	.L48
 868              	.L70:
 869 00f6 1023     		movs	r3, #16
 870 00f8 E4E7     		b	.L50
 871              	.L71:
 872 00fa 4FF48073 		mov	r3, #256
 873 00fe E1E7     		b	.L50
 874              	.L60:
 875 0100 4FF48073 		mov	r3, #256
 876 0104 ECE7     		b	.L48
 877              	.L73:
 465:Drivers/STM32F1xx_HAL_Driver/Src/stm32f1xx_hal_dma.c ****   
 878              		.loc 1 465 0 is_stmt 1
 879 0106 1C46     		mov	r4, r3
 880 0108 82E7     		b	.L46
 881              	.L55:
 483:Drivers/STM32F1xx_HAL_Driver/Src/stm32f1xx_hal_dma.c **** 
 882              		.loc 1 483 0
 883 010a 4FF48033 		mov	r3, #65536
 884 010e E7E7     		b	.L48
 885              	.L66:
 886 0110 4FF48033 		mov	r3, #65536
 887 0114 D6E7     		b	.L50
 888              	.L56:
 889 0116 4FF48013 		mov	r3, #1048576
 890 011a E1E7     		b	.L48
 891              	.L67:
 892 011c 4FF48013 		mov	r3, #1048576
ARM GAS  /tmp/ccUJvcf6.s 			page 35


 893 0120 D0E7     		b	.L50
 894              	.L57:
 895 0122 4FF08073 		mov	r3, #16777216
 896 0126 DBE7     		b	.L48
 897              	.L68:
 898 0128 4FF08073 		mov	r3, #16777216
 899 012c CAE7     		b	.L50
 900              	.L76:
 901 012e 00BF     		.align	2
 902              	.L75:
 903 0130 80000240 		.word	1073873024
 904 0134 08000240 		.word	1073872904
 905 0138 00000240 		.word	1073872896
 906 013c 00040240 		.word	1073873920
 907              		.cfi_endproc
 908              	.LFE71:
 910              		.section	.text.HAL_DMA_PollForTransfer,"ax",%progbits
 911              		.align	1
 912              		.p2align 2,,3
 913              		.global	HAL_DMA_PollForTransfer
 914              		.syntax unified
 915              		.thumb
 916              		.thumb_func
 917              		.fpu softvfp
 919              	HAL_DMA_PollForTransfer:
 920              	.LFB72:
 509:Drivers/STM32F1xx_HAL_Driver/Src/stm32f1xx_hal_dma.c ****   uint32_t temp;
 921              		.loc 1 509 0
 922              		.cfi_startproc
 923              		@ args = 0, pretend = 0, frame = 8
 924              		@ frame_needed = 0, uses_anonymous_args = 0
 925              	.LVL52:
 926 0000 2DE9F04F 		push	{r4, r5, r6, r7, r8, r9, r10, fp, lr}
 927              	.LCFI18:
 928              		.cfi_def_cfa_offset 36
 929              		.cfi_offset 4, -36
 930              		.cfi_offset 5, -32
 931              		.cfi_offset 6, -28
 932              		.cfi_offset 7, -24
 933              		.cfi_offset 8, -20
 934              		.cfi_offset 9, -16
 935              		.cfi_offset 10, -12
 936              		.cfi_offset 11, -8
 937              		.cfi_offset 14, -4
 513:Drivers/STM32F1xx_HAL_Driver/Src/stm32f1xx_hal_dma.c ****   {
 938              		.loc 1 513 0
 939 0004 90F82150 		ldrb	r5, [r0, #33]	@ zero_extendqisi2
 509:Drivers/STM32F1xx_HAL_Driver/Src/stm32f1xx_hal_dma.c ****   uint32_t temp;
 940              		.loc 1 509 0
 941 0008 83B0     		sub	sp, sp, #12
 942              	.LCFI19:
 943              		.cfi_def_cfa_offset 48
 513:Drivers/STM32F1xx_HAL_Driver/Src/stm32f1xx_hal_dma.c ****   {
 944              		.loc 1 513 0
 945 000a 022D     		cmp	r5, #2
 509:Drivers/STM32F1xx_HAL_Driver/Src/stm32f1xx_hal_dma.c ****   uint32_t temp;
 946              		.loc 1 509 0
ARM GAS  /tmp/ccUJvcf6.s 			page 36


 947 000c 0446     		mov	r4, r0
 513:Drivers/STM32F1xx_HAL_Driver/Src/stm32f1xx_hal_dma.c ****   {
 948              		.loc 1 513 0
 949 000e 08D0     		beq	.L78
 516:Drivers/STM32F1xx_HAL_Driver/Src/stm32f1xx_hal_dma.c ****     __HAL_UNLOCK(hdma);
 950              		.loc 1 516 0
 951 0010 0422     		movs	r2, #4
 952              	.LVL53:
 517:Drivers/STM32F1xx_HAL_Driver/Src/stm32f1xx_hal_dma.c ****     return HAL_ERROR;
 953              		.loc 1 517 0
 954 0012 0023     		movs	r3, #0
 516:Drivers/STM32F1xx_HAL_Driver/Src/stm32f1xx_hal_dma.c ****     __HAL_UNLOCK(hdma);
 955              		.loc 1 516 0
 956 0014 8263     		str	r2, [r0, #56]
 517:Drivers/STM32F1xx_HAL_Driver/Src/stm32f1xx_hal_dma.c ****     return HAL_ERROR;
 957              		.loc 1 517 0
 958 0016 80F82030 		strb	r3, [r0, #32]
 518:Drivers/STM32F1xx_HAL_Driver/Src/stm32f1xx_hal_dma.c ****   }
 959              		.loc 1 518 0
 960 001a 0120     		movs	r0, #1
 961              	.LVL54:
 962              	.L196:
 601:Drivers/STM32F1xx_HAL_Driver/Src/stm32f1xx_hal_dma.c **** 
 963              		.loc 1 601 0
 964 001c 03B0     		add	sp, sp, #12
 965              	.LCFI20:
 966              		.cfi_remember_state
 967              		.cfi_def_cfa_offset 36
 968              		@ sp needed
 969 001e BDE8F08F 		pop	{r4, r5, r6, r7, r8, r9, r10, fp, pc}
 970              	.LVL55:
 971              	.L78:
 972              	.LCFI21:
 973              		.cfi_restore_state
 522:Drivers/STM32F1xx_HAL_Driver/Src/stm32f1xx_hal_dma.c ****   {
 974              		.loc 1 522 0
 975 0022 0368     		ldr	r3, [r0]
 976 0024 1868     		ldr	r0, [r3]
 977              	.LVL56:
 978 0026 8006     		lsls	r0, r0, #26
 979 0028 00F1F980 		bmi	.L222
 532:Drivers/STM32F1xx_HAL_Driver/Src/stm32f1xx_hal_dma.c ****   }
 980              		.loc 1 532 0
 981 002c CB48     		ldr	r0, .L229
 529:Drivers/STM32F1xx_HAL_Driver/Src/stm32f1xx_hal_dma.c ****   {
 982              		.loc 1 529 0
 983 002e 0029     		cmp	r1, #0
 984 0030 40F0BB80 		bne	.L81
 532:Drivers/STM32F1xx_HAL_Driver/Src/stm32f1xx_hal_dma.c ****   }
 985              		.loc 1 532 0
 986 0034 8342     		cmp	r3, r0
 987 0036 2BD0     		beq	.L82
 532:Drivers/STM32F1xx_HAL_Driver/Src/stm32f1xx_hal_dma.c ****   }
 988              		.loc 1 532 0 is_stmt 0 discriminator 1
 989 0038 1430     		adds	r0, r0, #20
 990 003a 8342     		cmp	r3, r0
 991 003c 00F0D881 		beq	.L114
ARM GAS  /tmp/ccUJvcf6.s 			page 37


 532:Drivers/STM32F1xx_HAL_Driver/Src/stm32f1xx_hal_dma.c ****   }
 992              		.loc 1 532 0 discriminator 3
 993 0040 1430     		adds	r0, r0, #20
 994 0042 8342     		cmp	r3, r0
 995 0044 00F0CA81 		beq	.L115
 532:Drivers/STM32F1xx_HAL_Driver/Src/stm32f1xx_hal_dma.c ****   }
 996              		.loc 1 532 0 discriminator 5
 997 0048 1430     		adds	r0, r0, #20
 998 004a 8342     		cmp	r3, r0
 999 004c 00F0D281 		beq	.L109
 532:Drivers/STM32F1xx_HAL_Driver/Src/stm32f1xx_hal_dma.c ****   }
 1000              		.loc 1 532 0 discriminator 7
 1001 0050 1430     		adds	r0, r0, #20
 1002 0052 8342     		cmp	r3, r0
 1003 0054 00F0DF81 		beq	.L110
 532:Drivers/STM32F1xx_HAL_Driver/Src/stm32f1xx_hal_dma.c ****   }
 1004              		.loc 1 532 0 discriminator 9
 1005 0058 1430     		adds	r0, r0, #20
 1006 005a 8342     		cmp	r3, r0
 1007 005c 00F0E681 		beq	.L111
 532:Drivers/STM32F1xx_HAL_Driver/Src/stm32f1xx_hal_dma.c ****   }
 1008              		.loc 1 532 0 discriminator 11
 1009 0060 1430     		adds	r0, r0, #20
 1010 0062 8342     		cmp	r3, r0
 1011 0064 00F0F781 		beq	.L112
 532:Drivers/STM32F1xx_HAL_Driver/Src/stm32f1xx_hal_dma.c ****   }
 1012              		.loc 1 532 0 discriminator 13
 1013 0068 00F56270 		add	r0, r0, #904
 1014 006c 8342     		cmp	r3, r0
 1015 006e 00F00182 		beq	.L113
 532:Drivers/STM32F1xx_HAL_Driver/Src/stm32f1xx_hal_dma.c ****   }
 1016              		.loc 1 532 0 discriminator 15
 1017 0072 1430     		adds	r0, r0, #20
 1018 0074 8342     		cmp	r3, r0
 1019 0076 00F0BB81 		beq	.L114
 532:Drivers/STM32F1xx_HAL_Driver/Src/stm32f1xx_hal_dma.c ****   }
 1020              		.loc 1 532 0 discriminator 17
 1021 007a 1430     		adds	r0, r0, #20
 1022 007c 8342     		cmp	r3, r0
 1023 007e 00F0AD81 		beq	.L115
 532:Drivers/STM32F1xx_HAL_Driver/Src/stm32f1xx_hal_dma.c ****   }
 1024              		.loc 1 532 0 discriminator 19
 1025 0082 B74D     		ldr	r5, .L229+4
 1026 0084 AB42     		cmp	r3, r5
 1027 0086 14BF     		ite	ne
 1028 0088 4FF40035 		movne	r5, #131072
 1029 008c 4FF40055 		moveq	r5, #8192
 1030              	.L82:
 1031 0090 1646     		mov	r6, r2
 1032 0092 0091     		str	r1, [sp]
 1033              	.LVL57:
 541:Drivers/STM32F1xx_HAL_Driver/Src/stm32f1xx_hal_dma.c **** 
 1034              		.loc 1 541 0 is_stmt 1
 1035 0094 FFF7FEFF 		bl	HAL_GetTick
 1036              	.LVL58:
 543:Drivers/STM32F1xx_HAL_Driver/Src/stm32f1xx_hal_dma.c ****   {
 1037              		.loc 1 543 0
ARM GAS  /tmp/ccUJvcf6.s 			page 38


 1038 0098 B24F     		ldr	r7, .L229+8
 545:Drivers/STM32F1xx_HAL_Driver/Src/stm32f1xx_hal_dma.c ****     {
 1039              		.loc 1 545 0
 1040 009a DFF8C082 		ldr	r8, .L229
 1041 009e DFF8DC92 		ldr	r9, .L229+32
 1042 00a2 DFF8DCA2 		ldr	r10, .L229+36
 541:Drivers/STM32F1xx_HAL_Driver/Src/stm32f1xx_hal_dma.c **** 
 1043              		.loc 1 541 0
 1044 00a6 0190     		str	r0, [sp, #4]
 1045              	.LVL59:
 1046              	.L83:
 543:Drivers/STM32F1xx_HAL_Driver/Src/stm32f1xx_hal_dma.c ****   {
 1047              		.loc 1 543 0
 1048 00a8 2368     		ldr	r3, [r4]
 545:Drivers/STM32F1xx_HAL_Driver/Src/stm32f1xx_hal_dma.c ****     {
 1049              		.loc 1 545 0
 1050 00aa AF49     		ldr	r1, .L229+12
 1051 00ac AF48     		ldr	r0, .L229+16
 1052 00ae DFF8D4C2 		ldr	ip, .L229+40
 1053 00b2 DFF8D4E2 		ldr	lr, .L229+44
 1054 00b6 3AE0     		b	.L88
 1055              	.L226:
 543:Drivers/STM32F1xx_HAL_Driver/Src/stm32f1xx_hal_dma.c ****   {
 1056              		.loc 1 543 0 discriminator 1
 1057 00b8 AD4A     		ldr	r2, .L229+20
 1058 00ba D2F800B0 		ldr	fp, [r2]
 1059 00be 1BEA050F 		tst	fp, r5
 1060 00c2 40F0DE80 		bne	.L223
 1061              	.L94:
 545:Drivers/STM32F1xx_HAL_Driver/Src/stm32f1xx_hal_dma.c ****     {
 1062              		.loc 1 545 0 discriminator 2
 1063 00c6 4345     		cmp	r3, r8
 1064 00c8 D2F800B0 		ldr	fp, [r2]
 1065 00cc 00F09D80 		beq	.L146
 545:Drivers/STM32F1xx_HAL_Driver/Src/stm32f1xx_hal_dma.c ****     {
 1066              		.loc 1 545 0 is_stmt 0 discriminator 48
 1067 00d0 4B45     		cmp	r3, r9
 1068 00d2 00F09C80 		beq	.L147
 545:Drivers/STM32F1xx_HAL_Driver/Src/stm32f1xx_hal_dma.c ****     {
 1069              		.loc 1 545 0 discriminator 50
 1070 00d6 5345     		cmp	r3, r10
 1071 00d8 00F09B80 		beq	.L148
 545:Drivers/STM32F1xx_HAL_Driver/Src/stm32f1xx_hal_dma.c ****     {
 1072              		.loc 1 545 0 discriminator 52
 1073 00dc 8B42     		cmp	r3, r1
 1074 00de 00F09B80 		beq	.L142
 545:Drivers/STM32F1xx_HAL_Driver/Src/stm32f1xx_hal_dma.c ****     {
 1075              		.loc 1 545 0 discriminator 54
 1076 00e2 8342     		cmp	r3, r0
 1077 00e4 00F0A280 		beq	.L143
 545:Drivers/STM32F1xx_HAL_Driver/Src/stm32f1xx_hal_dma.c ****     {
 1078              		.loc 1 545 0 discriminator 56
 1079 00e8 6345     		cmp	r3, ip
 1080 00ea 00F0A280 		beq	.L144
 545:Drivers/STM32F1xx_HAL_Driver/Src/stm32f1xx_hal_dma.c ****     {
 1081              		.loc 1 545 0 discriminator 58
 1082 00ee BB42     		cmp	r3, r7
ARM GAS  /tmp/ccUJvcf6.s 			page 39


 1083 00f0 00F0C480 		beq	.L145
 545:Drivers/STM32F1xx_HAL_Driver/Src/stm32f1xx_hal_dma.c ****     {
 1084              		.loc 1 545 0 discriminator 60
 1085 00f4 7345     		cmp	r3, lr
 1086 00f6 00F08880 		beq	.L146
 545:Drivers/STM32F1xx_HAL_Driver/Src/stm32f1xx_hal_dma.c ****     {
 1087              		.loc 1 545 0 discriminator 62
 1088 00fa 9E4A     		ldr	r2, .L229+24
 1089 00fc 9342     		cmp	r3, r2
 1090 00fe 00F08680 		beq	.L147
 545:Drivers/STM32F1xx_HAL_Driver/Src/stm32f1xx_hal_dma.c ****     {
 1091              		.loc 1 545 0 discriminator 64
 1092 0102 1432     		adds	r2, r2, #20
 1093 0104 9342     		cmp	r3, r2
 1094 0106 00F08480 		beq	.L148
 545:Drivers/STM32F1xx_HAL_Driver/Src/stm32f1xx_hal_dma.c ****     {
 1095              		.loc 1 545 0 discriminator 66
 1096 010a 1432     		adds	r2, r2, #20
 1097 010c 9342     		cmp	r3, r2
 1098 010e 14BF     		ite	ne
 1099 0110 4FF40022 		movne	r2, #524288
 1100 0114 4FF40042 		moveq	r2, #32768
 1101              	.L86:
 545:Drivers/STM32F1xx_HAL_Driver/Src/stm32f1xx_hal_dma.c ****     {
 1102              		.loc 1 545 0 discriminator 91
 1103 0118 1BEA020F 		tst	fp, r2
 1104 011c 14BF     		ite	ne
 1105 011e 0122     		movne	r2, #1
 1106 0120 0022     		moveq	r2, #0
 1107 0122 002A     		cmp	r2, #0
 1108 0124 40F08880 		bne	.L224
 564:Drivers/STM32F1xx_HAL_Driver/Src/stm32f1xx_hal_dma.c ****     {
 1109              		.loc 1 564 0 is_stmt 1
 1110 0128 721C     		adds	r2, r6, #1
 1111 012a 40F09480 		bne	.L225
 1112              	.L88:
 543:Drivers/STM32F1xx_HAL_Driver/Src/stm32f1xx_hal_dma.c ****   {
 1113              		.loc 1 543 0
 1114 012e BB42     		cmp	r3, r7
 1115 0130 C2D8     		bhi	.L226
 543:Drivers/STM32F1xx_HAL_Driver/Src/stm32f1xx_hal_dma.c ****   {
 1116              		.loc 1 543 0 is_stmt 0 discriminator 2
 1117 0132 914A     		ldr	r2, .L229+28
 1118 0134 D2F800B0 		ldr	fp, [r2]
 1119 0138 1BEA050F 		tst	fp, r5
 1120 013c C3D0     		beq	.L94
 582:Drivers/STM32F1xx_HAL_Driver/Src/stm32f1xx_hal_dma.c ****   {
 1121              		.loc 1 582 0 is_stmt 1
 1122 013e 009A     		ldr	r2, [sp]
 1123 0140 002A     		cmp	r2, #0
 1124 0142 40F02381 		bne	.L227
 585:Drivers/STM32F1xx_HAL_Driver/Src/stm32f1xx_hal_dma.c **** 
 1125              		.loc 1 585 0 discriminator 2
 1126 0146 854A     		ldr	r2, .L229
 1127 0148 9342     		cmp	r3, r2
 1128 014a 00F05B81 		beq	.L168
 585:Drivers/STM32F1xx_HAL_Driver/Src/stm32f1xx_hal_dma.c **** 
ARM GAS  /tmp/ccUJvcf6.s 			page 40


 1129              		.loc 1 585 0 is_stmt 0 discriminator 47
 1130 014e 1432     		adds	r2, r2, #20
 1131 0150 9342     		cmp	r3, r2
 1132 0152 00F06381 		beq	.L169
 585:Drivers/STM32F1xx_HAL_Driver/Src/stm32f1xx_hal_dma.c **** 
 1133              		.loc 1 585 0 discriminator 49
 1134 0156 1432     		adds	r2, r2, #20
 1135 0158 9342     		cmp	r3, r2
 1136 015a 00F06D81 		beq	.L170
 585:Drivers/STM32F1xx_HAL_Driver/Src/stm32f1xx_hal_dma.c **** 
 1137              		.loc 1 585 0 discriminator 51
 1138 015e 1432     		adds	r2, r2, #20
 1139 0160 9342     		cmp	r3, r2
 1140 0162 00F08481 		beq	.L164
 585:Drivers/STM32F1xx_HAL_Driver/Src/stm32f1xx_hal_dma.c **** 
 1141              		.loc 1 585 0 discriminator 53
 1142 0166 1432     		adds	r2, r2, #20
 1143 0168 9342     		cmp	r3, r2
 1144 016a 00F08581 		beq	.L165
 585:Drivers/STM32F1xx_HAL_Driver/Src/stm32f1xx_hal_dma.c **** 
 1145              		.loc 1 585 0 discriminator 55
 1146 016e 1432     		adds	r2, r2, #20
 1147 0170 9342     		cmp	r3, r2
 1148 0172 00F09381 		beq	.L166
 585:Drivers/STM32F1xx_HAL_Driver/Src/stm32f1xx_hal_dma.c **** 
 1149              		.loc 1 585 0 discriminator 57
 1150 0176 BB42     		cmp	r3, r7
 1151 0178 00F09981 		beq	.L167
 585:Drivers/STM32F1xx_HAL_Driver/Src/stm32f1xx_hal_dma.c **** 
 1152              		.loc 1 585 0 discriminator 59
 1153 017c 02F56772 		add	r2, r2, #924
 1154 0180 9342     		cmp	r3, r2
 1155 0182 00F03F81 		beq	.L168
 585:Drivers/STM32F1xx_HAL_Driver/Src/stm32f1xx_hal_dma.c **** 
 1156              		.loc 1 585 0 discriminator 61
 1157 0186 1432     		adds	r2, r2, #20
 1158 0188 9342     		cmp	r3, r2
 1159 018a 00F04781 		beq	.L169
 585:Drivers/STM32F1xx_HAL_Driver/Src/stm32f1xx_hal_dma.c **** 
 1160              		.loc 1 585 0 discriminator 63
 1161 018e 1432     		adds	r2, r2, #20
 1162 0190 9342     		cmp	r3, r2
 1163 0192 00F05181 		beq	.L170
 585:Drivers/STM32F1xx_HAL_Driver/Src/stm32f1xx_hal_dma.c **** 
 1164              		.loc 1 585 0 discriminator 65
 1165 0196 1432     		adds	r2, r2, #20
 1166 0198 9342     		cmp	r3, r2
 1167 019a 14BF     		ite	ne
 1168 019c 4FF40033 		movne	r3, #131072
 1169 01a0 4FF40053 		moveq	r3, #8192
 1170              	.L98:
 585:Drivers/STM32F1xx_HAL_Driver/Src/stm32f1xx_hal_dma.c **** 
 1171              		.loc 1 585 0 discriminator 90
 1172 01a4 744A     		ldr	r2, .L229+28
 1173 01a6 5360     		str	r3, [r2, #4]
 1174 01a8 9EE0     		b	.L97
 1175              	.LVL60:
ARM GAS  /tmp/ccUJvcf6.s 			page 41


 1176              	.L81:
 537:Drivers/STM32F1xx_HAL_Driver/Src/stm32f1xx_hal_dma.c ****   }
 1177              		.loc 1 537 0 is_stmt 1
 1178 01aa 8342     		cmp	r3, r0
 1179 01ac 00F01C81 		beq	.L124
 537:Drivers/STM32F1xx_HAL_Driver/Src/stm32f1xx_hal_dma.c ****   }
 1180              		.loc 1 537 0 is_stmt 0 discriminator 1
 1181 01b0 1430     		adds	r0, r0, #20
 1182 01b2 8342     		cmp	r3, r0
 1183 01b4 00F01A81 		beq	.L125
 537:Drivers/STM32F1xx_HAL_Driver/Src/stm32f1xx_hal_dma.c ****   }
 1184              		.loc 1 537 0 discriminator 3
 1185 01b8 1430     		adds	r0, r0, #20
 1186 01ba 8342     		cmp	r3, r0
 1187 01bc 00F01181 		beq	.L126
 537:Drivers/STM32F1xx_HAL_Driver/Src/stm32f1xx_hal_dma.c ****   }
 1188              		.loc 1 537 0 discriminator 5
 1189 01c0 1430     		adds	r0, r0, #20
 1190 01c2 8342     		cmp	r3, r0
 1191 01c4 00F01981 		beq	.L120
 537:Drivers/STM32F1xx_HAL_Driver/Src/stm32f1xx_hal_dma.c ****   }
 1192              		.loc 1 537 0 discriminator 7
 1193 01c8 1430     		adds	r0, r0, #20
 1194 01ca 8342     		cmp	r3, r0
 1195 01cc 00F02081 		beq	.L121
 537:Drivers/STM32F1xx_HAL_Driver/Src/stm32f1xx_hal_dma.c ****   }
 1196              		.loc 1 537 0 discriminator 9
 1197 01d0 1430     		adds	r0, r0, #20
 1198 01d2 8342     		cmp	r3, r0
 1199 01d4 00F02D81 		beq	.L122
 537:Drivers/STM32F1xx_HAL_Driver/Src/stm32f1xx_hal_dma.c ****   }
 1200              		.loc 1 537 0 discriminator 11
 1201 01d8 1430     		adds	r0, r0, #20
 1202 01da 8342     		cmp	r3, r0
 1203 01dc 00F03881 		beq	.L123
 537:Drivers/STM32F1xx_HAL_Driver/Src/stm32f1xx_hal_dma.c ****   }
 1204              		.loc 1 537 0 discriminator 13
 1205 01e0 00F56270 		add	r0, r0, #904
 1206 01e4 8342     		cmp	r3, r0
 1207 01e6 00F0FF80 		beq	.L124
 537:Drivers/STM32F1xx_HAL_Driver/Src/stm32f1xx_hal_dma.c ****   }
 1208              		.loc 1 537 0 discriminator 15
 1209 01ea 1430     		adds	r0, r0, #20
 1210 01ec 8342     		cmp	r3, r0
 1211 01ee 00F0FD80 		beq	.L125
 537:Drivers/STM32F1xx_HAL_Driver/Src/stm32f1xx_hal_dma.c ****   }
 1212              		.loc 1 537 0 discriminator 17
 1213 01f2 1430     		adds	r0, r0, #20
 1214 01f4 8342     		cmp	r3, r0
 1215 01f6 00F0F480 		beq	.L126
 537:Drivers/STM32F1xx_HAL_Driver/Src/stm32f1xx_hal_dma.c ****   }
 1216              		.loc 1 537 0 discriminator 19
 1217 01fa 594D     		ldr	r5, .L229+4
 1218 01fc AB42     		cmp	r3, r5
 1219 01fe 14BF     		ite	ne
 1220 0200 4FF48025 		movne	r5, #262144
 1221 0204 4FF48045 		moveq	r5, #16384
ARM GAS  /tmp/ccUJvcf6.s 			page 42


 1222 0208 42E7     		b	.L82
 1223              	.LVL61:
 1224              	.L146:
 545:Drivers/STM32F1xx_HAL_Driver/Src/stm32f1xx_hal_dma.c ****     {
 1225              		.loc 1 545 0 is_stmt 1
 1226 020a 0822     		movs	r2, #8
 1227 020c 84E7     		b	.L86
 1228              	.L147:
 1229 020e 8022     		movs	r2, #128
 1230 0210 82E7     		b	.L86
 1231              	.L148:
 1232 0212 4FF40062 		mov	r2, #2048
 1233 0216 7FE7     		b	.L86
 1234              	.L142:
 1235 0218 4FF40042 		mov	r2, #32768
 1236 021c 7CE7     		b	.L86
 1237              	.LVL62:
 1238              	.L222:
 524:Drivers/STM32F1xx_HAL_Driver/Src/stm32f1xx_hal_dma.c ****     return HAL_ERROR;
 1239              		.loc 1 524 0
 1240 021e 4FF48073 		mov	r3, #256
 525:Drivers/STM32F1xx_HAL_Driver/Src/stm32f1xx_hal_dma.c ****   }
 1241              		.loc 1 525 0
 1242 0222 0120     		movs	r0, #1
 524:Drivers/STM32F1xx_HAL_Driver/Src/stm32f1xx_hal_dma.c ****     return HAL_ERROR;
 1243              		.loc 1 524 0
 1244 0224 A363     		str	r3, [r4, #56]
 601:Drivers/STM32F1xx_HAL_Driver/Src/stm32f1xx_hal_dma.c **** 
 1245              		.loc 1 601 0
 1246 0226 03B0     		add	sp, sp, #12
 1247              	.LCFI22:
 1248              		.cfi_remember_state
 1249              		.cfi_def_cfa_offset 36
 1250              		@ sp needed
 1251 0228 BDE8F08F 		pop	{r4, r5, r6, r7, r8, r9, r10, fp, pc}
 1252              	.LVL63:
 1253              	.L143:
 1254              	.LCFI23:
 1255              		.cfi_restore_state
 545:Drivers/STM32F1xx_HAL_Driver/Src/stm32f1xx_hal_dma.c ****     {
 1256              		.loc 1 545 0
 1257 022c 4FF40022 		mov	r2, #524288
 1258 0230 72E7     		b	.L86
 1259              	.L144:
 1260 0232 4FF40002 		mov	r2, #8388608
 1261 0236 6FE7     		b	.L86
 1262              	.L224:
 550:Drivers/STM32F1xx_HAL_Driver/Src/stm32f1xx_hal_dma.c **** 
 1263              		.loc 1 550 0
 1264 0238 0120     		movs	r0, #1
 1265 023a D4E90F13 		ldrd	r1, r3, [r4, #60]
 559:Drivers/STM32F1xx_HAL_Driver/Src/stm32f1xx_hal_dma.c **** 
 1266              		.loc 1 559 0
 1267 023e 0022     		movs	r2, #0
 550:Drivers/STM32F1xx_HAL_Driver/Src/stm32f1xx_hal_dma.c **** 
 1268              		.loc 1 550 0
 1269 0240 00FA03F3 		lsl	r3, r0, r3
ARM GAS  /tmp/ccUJvcf6.s 			page 43


 1270 0244 4B60     		str	r3, [r1, #4]
 553:Drivers/STM32F1xx_HAL_Driver/Src/stm32f1xx_hal_dma.c **** 
 1271              		.loc 1 553 0
 1272 0246 A36B     		ldr	r3, [r4, #56]
 556:Drivers/STM32F1xx_HAL_Driver/Src/stm32f1xx_hal_dma.c **** 
 1273              		.loc 1 556 0
 1274 0248 84F82100 		strb	r0, [r4, #33]
 553:Drivers/STM32F1xx_HAL_Driver/Src/stm32f1xx_hal_dma.c **** 
 1275              		.loc 1 553 0
 1276 024c 0343     		orrs	r3, r3, r0
 1277 024e A363     		str	r3, [r4, #56]
 559:Drivers/STM32F1xx_HAL_Driver/Src/stm32f1xx_hal_dma.c **** 
 1278              		.loc 1 559 0
 1279 0250 84F82020 		strb	r2, [r4, #32]
 561:Drivers/STM32F1xx_HAL_Driver/Src/stm32f1xx_hal_dma.c ****     }
 1280              		.loc 1 561 0
 1281 0254 E2E6     		b	.L196
 1282              	.L225:
 566:Drivers/STM32F1xx_HAL_Driver/Src/stm32f1xx_hal_dma.c ****       {
 1283              		.loc 1 566 0
 1284 0256 36B1     		cbz	r6, .L90
 566:Drivers/STM32F1xx_HAL_Driver/Src/stm32f1xx_hal_dma.c ****       {
 1285              		.loc 1 566 0 is_stmt 0 discriminator 1
 1286 0258 FFF7FEFF 		bl	HAL_GetTick
 1287              	.LVL64:
 1288 025c 019B     		ldr	r3, [sp, #4]
 1289 025e C01A     		subs	r0, r0, r3
 1290 0260 B042     		cmp	r0, r6
 1291 0262 7FF621AF 		bls	.L83
 1292              	.L90:
 572:Drivers/STM32F1xx_HAL_Driver/Src/stm32f1xx_hal_dma.c **** 
 1293              		.loc 1 572 0 is_stmt 1
 1294 0266 0120     		movs	r0, #1
 575:Drivers/STM32F1xx_HAL_Driver/Src/stm32f1xx_hal_dma.c **** 
 1295              		.loc 1 575 0
 1296 0268 0022     		movs	r2, #0
 569:Drivers/STM32F1xx_HAL_Driver/Src/stm32f1xx_hal_dma.c **** 
 1297              		.loc 1 569 0
 1298 026a A36B     		ldr	r3, [r4, #56]
 572:Drivers/STM32F1xx_HAL_Driver/Src/stm32f1xx_hal_dma.c **** 
 1299              		.loc 1 572 0
 1300 026c 84F82100 		strb	r0, [r4, #33]
 569:Drivers/STM32F1xx_HAL_Driver/Src/stm32f1xx_hal_dma.c **** 
 1301              		.loc 1 569 0
 1302 0270 43F02003 		orr	r3, r3, #32
 1303 0274 A363     		str	r3, [r4, #56]
 575:Drivers/STM32F1xx_HAL_Driver/Src/stm32f1xx_hal_dma.c **** 
 1304              		.loc 1 575 0
 1305 0276 84F82020 		strb	r2, [r4, #32]
 577:Drivers/STM32F1xx_HAL_Driver/Src/stm32f1xx_hal_dma.c ****       }
 1306              		.loc 1 577 0
 1307 027a CFE6     		b	.L196
 1308              	.L145:
 545:Drivers/STM32F1xx_HAL_Driver/Src/stm32f1xx_hal_dma.c ****     {
 1309              		.loc 1 545 0
 1310 027c 4FF00062 		mov	r2, #134217728
 1311 0280 4AE7     		b	.L86
ARM GAS  /tmp/ccUJvcf6.s 			page 44


 1312              	.L223:
 582:Drivers/STM32F1xx_HAL_Driver/Src/stm32f1xx_hal_dma.c ****   {
 1313              		.loc 1 582 0
 1314 0282 009A     		ldr	r2, [sp]
 1315 0284 A2BB     		cbnz	r2, .L228
 585:Drivers/STM32F1xx_HAL_Driver/Src/stm32f1xx_hal_dma.c **** 
 1316              		.loc 1 585 0 discriminator 1
 1317 0286 354A     		ldr	r2, .L229
 1318 0288 9342     		cmp	r3, r2
 1319 028a 00F0BF80 		beq	.L157
 585:Drivers/STM32F1xx_HAL_Driver/Src/stm32f1xx_hal_dma.c **** 
 1320              		.loc 1 585 0 is_stmt 0 discriminator 3
 1321 028e 1432     		adds	r2, r2, #20
 1322 0290 9342     		cmp	r3, r2
 1323 0292 00F0C780 		beq	.L158
 585:Drivers/STM32F1xx_HAL_Driver/Src/stm32f1xx_hal_dma.c **** 
 1324              		.loc 1 585 0 discriminator 5
 1325 0296 1432     		adds	r2, r2, #20
 1326 0298 9342     		cmp	r3, r2
 1327 029a 00F0D080 		beq	.L159
 585:Drivers/STM32F1xx_HAL_Driver/Src/stm32f1xx_hal_dma.c **** 
 1328              		.loc 1 585 0 discriminator 7
 1329 029e 1432     		adds	r2, r2, #20
 1330 02a0 9342     		cmp	r3, r2
 1331 02a2 00F0DB80 		beq	.L153
 585:Drivers/STM32F1xx_HAL_Driver/Src/stm32f1xx_hal_dma.c **** 
 1332              		.loc 1 585 0 discriminator 9
 1333 02a6 1432     		adds	r2, r2, #20
 1334 02a8 9342     		cmp	r3, r2
 1335 02aa 00F0E880 		beq	.L154
 585:Drivers/STM32F1xx_HAL_Driver/Src/stm32f1xx_hal_dma.c **** 
 1336              		.loc 1 585 0 discriminator 11
 1337 02ae 1432     		adds	r2, r2, #20
 1338 02b0 9342     		cmp	r3, r2
 1339 02b2 00F0F680 		beq	.L155
 585:Drivers/STM32F1xx_HAL_Driver/Src/stm32f1xx_hal_dma.c **** 
 1340              		.loc 1 585 0 discriminator 13
 1341 02b6 BB42     		cmp	r3, r7
 1342 02b8 00F0FF80 		beq	.L156
 585:Drivers/STM32F1xx_HAL_Driver/Src/stm32f1xx_hal_dma.c **** 
 1343              		.loc 1 585 0 discriminator 15
 1344 02bc 02F56772 		add	r2, r2, #924
 1345 02c0 9342     		cmp	r3, r2
 1346 02c2 00F0A380 		beq	.L157
 585:Drivers/STM32F1xx_HAL_Driver/Src/stm32f1xx_hal_dma.c **** 
 1347              		.loc 1 585 0 discriminator 17
 1348 02c6 1432     		adds	r2, r2, #20
 1349 02c8 9342     		cmp	r3, r2
 1350 02ca 00F0AB80 		beq	.L158
 585:Drivers/STM32F1xx_HAL_Driver/Src/stm32f1xx_hal_dma.c **** 
 1351              		.loc 1 585 0 discriminator 19
 1352 02ce 1432     		adds	r2, r2, #20
 1353 02d0 9342     		cmp	r3, r2
 1354 02d2 00F0B480 		beq	.L159
 585:Drivers/STM32F1xx_HAL_Driver/Src/stm32f1xx_hal_dma.c **** 
 1355              		.loc 1 585 0 discriminator 21
 1356 02d6 1432     		adds	r2, r2, #20
ARM GAS  /tmp/ccUJvcf6.s 			page 45


 1357 02d8 9342     		cmp	r3, r2
 1358 02da 14BF     		ite	ne
 1359 02dc 4FF40033 		movne	r3, #131072
 1360 02e0 4FF40053 		moveq	r3, #8192
 1361              	.L96:
 585:Drivers/STM32F1xx_HAL_Driver/Src/stm32f1xx_hal_dma.c **** 
 1362              		.loc 1 585 0 discriminator 46
 1363 02e4 224A     		ldr	r2, .L229+20
 1364 02e6 5360     		str	r3, [r2, #4]
 1365              	.L97:
 589:Drivers/STM32F1xx_HAL_Driver/Src/stm32f1xx_hal_dma.c ****   }
 1366              		.loc 1 589 0 is_stmt 1
 1367 02e8 0123     		movs	r3, #1
 1368 02ea 84F82130 		strb	r3, [r4, #33]
 1369 02ee 2EE0     		b	.L99
 1370              	.L228:
 594:Drivers/STM32F1xx_HAL_Driver/Src/stm32f1xx_hal_dma.c ****   }
 1371              		.loc 1 594 0 discriminator 1
 1372 02f0 1A4A     		ldr	r2, .L229
 1373 02f2 9342     		cmp	r3, r2
 1374 02f4 00F08880 		beq	.L179
 594:Drivers/STM32F1xx_HAL_Driver/Src/stm32f1xx_hal_dma.c ****   }
 1375              		.loc 1 594 0 is_stmt 0 discriminator 3
 1376 02f8 1432     		adds	r2, r2, #20
 1377 02fa 9342     		cmp	r3, r2
 1378 02fc 00F09080 		beq	.L180
 594:Drivers/STM32F1xx_HAL_Driver/Src/stm32f1xx_hal_dma.c ****   }
 1379              		.loc 1 594 0 discriminator 5
 1380 0300 1432     		adds	r2, r2, #20
 1381 0302 9342     		cmp	r3, r2
 1382 0304 00F09E80 		beq	.L181
 594:Drivers/STM32F1xx_HAL_Driver/Src/stm32f1xx_hal_dma.c ****   }
 1383              		.loc 1 594 0 discriminator 7
 1384 0308 1432     		adds	r2, r2, #20
 1385 030a 9342     		cmp	r3, r2
 1386 030c 00F0A980 		beq	.L175
 594:Drivers/STM32F1xx_HAL_Driver/Src/stm32f1xx_hal_dma.c ****   }
 1387              		.loc 1 594 0 discriminator 9
 1388 0310 1432     		adds	r2, r2, #20
 1389 0312 9342     		cmp	r3, r2
 1390 0314 00F0B980 		beq	.L176
 594:Drivers/STM32F1xx_HAL_Driver/Src/stm32f1xx_hal_dma.c ****   }
 1391              		.loc 1 594 0 discriminator 11
 1392 0318 1432     		adds	r2, r2, #20
 1393 031a 9342     		cmp	r3, r2
 1394 031c 00F0BB80 		beq	.L177
 594:Drivers/STM32F1xx_HAL_Driver/Src/stm32f1xx_hal_dma.c ****   }
 1395              		.loc 1 594 0 discriminator 13
 1396 0320 BB42     		cmp	r3, r7
 1397 0322 00F0C780 		beq	.L178
 594:Drivers/STM32F1xx_HAL_Driver/Src/stm32f1xx_hal_dma.c ****   }
 1398              		.loc 1 594 0 discriminator 15
 1399 0326 02F56772 		add	r2, r2, #924
 1400 032a 9342     		cmp	r3, r2
 1401 032c 6CD0     		beq	.L179
 594:Drivers/STM32F1xx_HAL_Driver/Src/stm32f1xx_hal_dma.c ****   }
 1402              		.loc 1 594 0 discriminator 17
ARM GAS  /tmp/ccUJvcf6.s 			page 46


 1403 032e 1432     		adds	r2, r2, #20
 1404 0330 9342     		cmp	r3, r2
 1405 0332 75D0     		beq	.L180
 594:Drivers/STM32F1xx_HAL_Driver/Src/stm32f1xx_hal_dma.c ****   }
 1406              		.loc 1 594 0 discriminator 19
 1407 0334 1432     		adds	r2, r2, #20
 1408 0336 9342     		cmp	r3, r2
 1409 0338 00F08480 		beq	.L181
 594:Drivers/STM32F1xx_HAL_Driver/Src/stm32f1xx_hal_dma.c ****   }
 1410              		.loc 1 594 0 discriminator 21
 1411 033c 1432     		adds	r2, r2, #20
 1412 033e 9342     		cmp	r3, r2
 1413 0340 14BF     		ite	ne
 1414 0342 4FF48023 		movne	r3, #262144
 1415 0346 4FF48043 		moveq	r3, #16384
 1416              	.L100:
 594:Drivers/STM32F1xx_HAL_Driver/Src/stm32f1xx_hal_dma.c ****   }
 1417              		.loc 1 594 0 discriminator 46
 1418 034a 094A     		ldr	r2, .L229+20
 1419 034c 5360     		str	r3, [r2, #4]
 1420              	.L99:
 598:Drivers/STM32F1xx_HAL_Driver/Src/stm32f1xx_hal_dma.c **** 
 1421              		.loc 1 598 0 is_stmt 1
 1422 034e 0020     		movs	r0, #0
 1423 0350 84F82000 		strb	r0, [r4, #32]
 601:Drivers/STM32F1xx_HAL_Driver/Src/stm32f1xx_hal_dma.c **** 
 1424              		.loc 1 601 0
 1425 0354 03B0     		add	sp, sp, #12
 1426              	.LCFI24:
 1427              		.cfi_remember_state
 1428              		.cfi_def_cfa_offset 36
 1429              	.LVL65:
 1430              		@ sp needed
 1431 0356 BDE8F08F 		pop	{r4, r5, r6, r7, r8, r9, r10, fp, pc}
 1432              	.LVL66:
 1433              	.L230:
 1434 035a 00BF     		.align	2
 1435              	.L229:
 1436 035c 08000240 		.word	1073872904
 1437 0360 44040240 		.word	1073873988
 1438 0364 80000240 		.word	1073873024
 1439 0368 44000240 		.word	1073872964
 1440 036c 58000240 		.word	1073872984
 1441 0370 00040240 		.word	1073873920
 1442 0374 1C040240 		.word	1073873948
 1443 0378 00000240 		.word	1073872896
 1444 037c 1C000240 		.word	1073872924
 1445 0380 30000240 		.word	1073872944
 1446 0384 6C000240 		.word	1073873004
 1447 0388 08040240 		.word	1073873928
 1448              	.LVL67:
 1449              	.L227:
 1450              	.LCFI25:
 1451              		.cfi_restore_state
 594:Drivers/STM32F1xx_HAL_Driver/Src/stm32f1xx_hal_dma.c ****   }
 1452              		.loc 1 594 0 discriminator 2
 1453 038c 4C4A     		ldr	r2, .L231
ARM GAS  /tmp/ccUJvcf6.s 			page 47


 1454 038e 9342     		cmp	r3, r2
 1455 0390 36D0     		beq	.L190
 594:Drivers/STM32F1xx_HAL_Driver/Src/stm32f1xx_hal_dma.c ****   }
 1456              		.loc 1 594 0 is_stmt 0 discriminator 47
 1457 0392 1432     		adds	r2, r2, #20
 1458 0394 9342     		cmp	r3, r2
 1459 0396 47D0     		beq	.L191
 594:Drivers/STM32F1xx_HAL_Driver/Src/stm32f1xx_hal_dma.c ****   }
 1460              		.loc 1 594 0 discriminator 49
 1461 0398 1432     		adds	r2, r2, #20
 1462 039a 9342     		cmp	r3, r2
 1463 039c 55D0     		beq	.L192
 594:Drivers/STM32F1xx_HAL_Driver/Src/stm32f1xx_hal_dma.c ****   }
 1464              		.loc 1 594 0 discriminator 51
 1465 039e 1432     		adds	r2, r2, #20
 1466 03a0 9342     		cmp	r3, r2
 1467 03a2 61D0     		beq	.L186
 594:Drivers/STM32F1xx_HAL_Driver/Src/stm32f1xx_hal_dma.c ****   }
 1468              		.loc 1 594 0 discriminator 53
 1469 03a4 1432     		adds	r2, r2, #20
 1470 03a6 9342     		cmp	r3, r2
 1471 03a8 6CD0     		beq	.L187
 594:Drivers/STM32F1xx_HAL_Driver/Src/stm32f1xx_hal_dma.c ****   }
 1472              		.loc 1 594 0 discriminator 55
 1473 03aa 1432     		adds	r2, r2, #20
 1474 03ac 9342     		cmp	r3, r2
 1475 03ae 6FD0     		beq	.L188
 594:Drivers/STM32F1xx_HAL_Driver/Src/stm32f1xx_hal_dma.c ****   }
 1476              		.loc 1 594 0 discriminator 57
 1477 03b0 BB42     		cmp	r3, r7
 1478 03b2 79D0     		beq	.L189
 594:Drivers/STM32F1xx_HAL_Driver/Src/stm32f1xx_hal_dma.c ****   }
 1479              		.loc 1 594 0 discriminator 59
 1480 03b4 02F56772 		add	r2, r2, #924
 1481 03b8 9342     		cmp	r3, r2
 1482 03ba 21D0     		beq	.L190
 594:Drivers/STM32F1xx_HAL_Driver/Src/stm32f1xx_hal_dma.c ****   }
 1483              		.loc 1 594 0 discriminator 61
 1484 03bc 1432     		adds	r2, r2, #20
 1485 03be 9342     		cmp	r3, r2
 1486 03c0 32D0     		beq	.L191
 594:Drivers/STM32F1xx_HAL_Driver/Src/stm32f1xx_hal_dma.c ****   }
 1487              		.loc 1 594 0 discriminator 63
 1488 03c2 1432     		adds	r2, r2, #20
 1489 03c4 9342     		cmp	r3, r2
 1490 03c6 40D0     		beq	.L192
 594:Drivers/STM32F1xx_HAL_Driver/Src/stm32f1xx_hal_dma.c ****   }
 1491              		.loc 1 594 0 discriminator 65
 1492 03c8 1432     		adds	r2, r2, #20
 1493 03ca 9342     		cmp	r3, r2
 1494 03cc 14BF     		ite	ne
 1495 03ce 4FF48023 		movne	r3, #262144
 1496 03d2 4FF48043 		moveq	r3, #16384
 1497              	.L101:
 594:Drivers/STM32F1xx_HAL_Driver/Src/stm32f1xx_hal_dma.c ****   }
 1498              		.loc 1 594 0 discriminator 90
 1499 03d6 3B4A     		ldr	r2, .L231+4
ARM GAS  /tmp/ccUJvcf6.s 			page 48


 1500 03d8 5360     		str	r3, [r2, #4]
 1501 03da B8E7     		b	.L99
 1502              	.LVL68:
 1503              	.L115:
 532:Drivers/STM32F1xx_HAL_Driver/Src/stm32f1xx_hal_dma.c ****   }
 1504              		.loc 1 532 0 is_stmt 1
 1505 03dc 4FF40075 		mov	r5, #512
 1506 03e0 56E6     		b	.L82
 1507              	.L126:
 537:Drivers/STM32F1xx_HAL_Driver/Src/stm32f1xx_hal_dma.c ****   }
 1508              		.loc 1 537 0
 1509 03e2 4FF48065 		mov	r5, #1024
 1510 03e6 53E6     		b	.L82
 1511              	.L124:
 1512 03e8 0425     		movs	r5, #4
 1513 03ea 51E6     		b	.L82
 1514              	.L125:
 1515 03ec 4025     		movs	r5, #64
 1516 03ee 4FE6     		b	.L82
 1517              	.L114:
 532:Drivers/STM32F1xx_HAL_Driver/Src/stm32f1xx_hal_dma.c ****   }
 1518              		.loc 1 532 0
 1519 03f0 2025     		movs	r5, #32
 1520 03f2 4DE6     		b	.L82
 1521              	.L109:
 1522 03f4 4FF40055 		mov	r5, #8192
 1523 03f8 4AE6     		b	.L82
 1524              	.L120:
 537:Drivers/STM32F1xx_HAL_Driver/Src/stm32f1xx_hal_dma.c ****   }
 1525              		.loc 1 537 0
 1526 03fa 4FF48045 		mov	r5, #16384
 1527 03fe 47E6     		b	.L82
 1528              	.LVL69:
 1529              	.L190:
 594:Drivers/STM32F1xx_HAL_Driver/Src/stm32f1xx_hal_dma.c ****   }
 1530              		.loc 1 594 0
 1531 0400 0423     		movs	r3, #4
 1532 0402 E8E7     		b	.L101
 1533              	.L168:
 585:Drivers/STM32F1xx_HAL_Driver/Src/stm32f1xx_hal_dma.c **** 
 1534              		.loc 1 585 0
 1535 0404 0223     		movs	r3, #2
 1536 0406 CDE6     		b	.L98
 1537              	.L179:
 594:Drivers/STM32F1xx_HAL_Driver/Src/stm32f1xx_hal_dma.c ****   }
 1538              		.loc 1 594 0
 1539 0408 0423     		movs	r3, #4
 1540 040a 9EE7     		b	.L100
 1541              	.L157:
 585:Drivers/STM32F1xx_HAL_Driver/Src/stm32f1xx_hal_dma.c **** 
 1542              		.loc 1 585 0
 1543 040c 0223     		movs	r3, #2
 1544 040e 69E7     		b	.L96
 1545              	.LVL70:
 1546              	.L121:
 537:Drivers/STM32F1xx_HAL_Driver/Src/stm32f1xx_hal_dma.c ****   }
 1547              		.loc 1 537 0
ARM GAS  /tmp/ccUJvcf6.s 			page 49


 1548 0410 4FF48025 		mov	r5, #262144
 1549 0414 3CE6     		b	.L82
 1550              	.L110:
 532:Drivers/STM32F1xx_HAL_Driver/Src/stm32f1xx_hal_dma.c ****   }
 1551              		.loc 1 532 0
 1552 0416 4FF40035 		mov	r5, #131072
 1553 041a 39E6     		b	.L82
 1554              	.LVL71:
 1555              	.L169:
 585:Drivers/STM32F1xx_HAL_Driver/Src/stm32f1xx_hal_dma.c **** 
 1556              		.loc 1 585 0
 1557 041c 2023     		movs	r3, #32
 1558 041e C1E6     		b	.L98
 1559              	.L180:
 594:Drivers/STM32F1xx_HAL_Driver/Src/stm32f1xx_hal_dma.c ****   }
 1560              		.loc 1 594 0
 1561 0420 4023     		movs	r3, #64
 1562 0422 92E7     		b	.L100
 1563              	.L158:
 585:Drivers/STM32F1xx_HAL_Driver/Src/stm32f1xx_hal_dma.c **** 
 1564              		.loc 1 585 0
 1565 0424 2023     		movs	r3, #32
 1566 0426 5DE7     		b	.L96
 1567              	.L191:
 594:Drivers/STM32F1xx_HAL_Driver/Src/stm32f1xx_hal_dma.c ****   }
 1568              		.loc 1 594 0
 1569 0428 4023     		movs	r3, #64
 1570 042a D4E7     		b	.L101
 1571              	.LVL72:
 1572              	.L111:
 532:Drivers/STM32F1xx_HAL_Driver/Src/stm32f1xx_hal_dma.c ****   }
 1573              		.loc 1 532 0
 1574 042c 4FF40015 		mov	r5, #2097152
 1575 0430 2EE6     		b	.L82
 1576              	.L122:
 537:Drivers/STM32F1xx_HAL_Driver/Src/stm32f1xx_hal_dma.c ****   }
 1577              		.loc 1 537 0
 1578 0432 4FF48005 		mov	r5, #4194304
 1579 0436 2BE6     		b	.L82
 1580              	.LVL73:
 1581              	.L170:
 585:Drivers/STM32F1xx_HAL_Driver/Src/stm32f1xx_hal_dma.c **** 
 1582              		.loc 1 585 0
 1583 0438 4FF40073 		mov	r3, #512
 1584 043c B2E6     		b	.L98
 1585              	.L159:
 1586 043e 4FF40073 		mov	r3, #512
 1587 0442 4FE7     		b	.L96
 1588              	.L181:
 594:Drivers/STM32F1xx_HAL_Driver/Src/stm32f1xx_hal_dma.c ****   }
 1589              		.loc 1 594 0
 1590 0444 4FF48063 		mov	r3, #1024
 1591 0448 7FE7     		b	.L100
 1592              	.L192:
 1593 044a 4FF48063 		mov	r3, #1024
 1594 044e C2E7     		b	.L101
 1595              	.LVL74:
ARM GAS  /tmp/ccUJvcf6.s 			page 50


 1596              	.L123:
 537:Drivers/STM32F1xx_HAL_Driver/Src/stm32f1xx_hal_dma.c ****   }
 1597              		.loc 1 537 0
 1598 0450 4FF08065 		mov	r5, #67108864
 1599 0454 1CE6     		b	.L82
 1600              	.L112:
 532:Drivers/STM32F1xx_HAL_Driver/Src/stm32f1xx_hal_dma.c ****   }
 1601              		.loc 1 532 0
 1602 0456 4FF00075 		mov	r5, #33554432
 1603 045a 19E6     		b	.L82
 1604              	.LVL75:
 1605              	.L153:
 585:Drivers/STM32F1xx_HAL_Driver/Src/stm32f1xx_hal_dma.c **** 
 1606              		.loc 1 585 0
 1607 045c 4FF40053 		mov	r3, #8192
 1608 0460 40E7     		b	.L96
 1609              	.L175:
 594:Drivers/STM32F1xx_HAL_Driver/Src/stm32f1xx_hal_dma.c ****   }
 1610              		.loc 1 594 0
 1611 0462 4FF48043 		mov	r3, #16384
 1612 0466 70E7     		b	.L100
 1613              	.L186:
 1614 0468 4FF48043 		mov	r3, #16384
 1615 046c B3E7     		b	.L101
 1616              	.L164:
 585:Drivers/STM32F1xx_HAL_Driver/Src/stm32f1xx_hal_dma.c **** 
 1617              		.loc 1 585 0
 1618 046e 4FF40053 		mov	r3, #8192
 1619 0472 97E6     		b	.L98
 1620              	.LVL76:
 1621              	.L113:
 532:Drivers/STM32F1xx_HAL_Driver/Src/stm32f1xx_hal_dma.c ****   }
 1622              		.loc 1 532 0
 1623 0474 0225     		movs	r5, #2
 1624 0476 0BE6     		b	.L82
 1625              	.LVL77:
 1626              	.L165:
 585:Drivers/STM32F1xx_HAL_Driver/Src/stm32f1xx_hal_dma.c **** 
 1627              		.loc 1 585 0
 1628 0478 4FF40033 		mov	r3, #131072
 1629 047c 92E6     		b	.L98
 1630              	.L154:
 1631 047e 4FF40033 		mov	r3, #131072
 1632 0482 2FE7     		b	.L96
 1633              	.L187:
 594:Drivers/STM32F1xx_HAL_Driver/Src/stm32f1xx_hal_dma.c ****   }
 1634              		.loc 1 594 0
 1635 0484 4FF48023 		mov	r3, #262144
 1636 0488 A5E7     		b	.L101
 1637              	.L176:
 1638 048a 4FF48023 		mov	r3, #262144
 1639 048e 5CE7     		b	.L100
 1640              	.L188:
 1641 0490 4FF48003 		mov	r3, #4194304
 1642 0494 9FE7     		b	.L101
 1643              	.L177:
 1644 0496 4FF48003 		mov	r3, #4194304
ARM GAS  /tmp/ccUJvcf6.s 			page 51


 1645 049a 56E7     		b	.L100
 1646              	.L166:
 585:Drivers/STM32F1xx_HAL_Driver/Src/stm32f1xx_hal_dma.c **** 
 1647              		.loc 1 585 0
 1648 049c 4FF40013 		mov	r3, #2097152
 1649 04a0 80E6     		b	.L98
 1650              	.L155:
 1651 04a2 4FF40013 		mov	r3, #2097152
 1652 04a6 1DE7     		b	.L96
 1653              	.L189:
 594:Drivers/STM32F1xx_HAL_Driver/Src/stm32f1xx_hal_dma.c ****   }
 1654              		.loc 1 594 0
 1655 04a8 4FF08063 		mov	r3, #67108864
 1656 04ac 93E7     		b	.L101
 1657              	.L167:
 585:Drivers/STM32F1xx_HAL_Driver/Src/stm32f1xx_hal_dma.c **** 
 1658              		.loc 1 585 0
 1659 04ae 4FF00073 		mov	r3, #33554432
 1660 04b2 77E6     		b	.L98
 1661              	.L178:
 594:Drivers/STM32F1xx_HAL_Driver/Src/stm32f1xx_hal_dma.c ****   }
 1662              		.loc 1 594 0
 1663 04b4 4FF08063 		mov	r3, #67108864
 1664 04b8 47E7     		b	.L100
 1665              	.L156:
 585:Drivers/STM32F1xx_HAL_Driver/Src/stm32f1xx_hal_dma.c **** 
 1666              		.loc 1 585 0
 1667 04ba 4FF00073 		mov	r3, #33554432
 1668 04be 11E7     		b	.L96
 1669              	.L232:
 1670              		.align	2
 1671              	.L231:
 1672 04c0 08000240 		.word	1073872904
 1673 04c4 00000240 		.word	1073872896
 1674              		.cfi_endproc
 1675              	.LFE72:
 1677              		.section	.text.HAL_DMA_IRQHandler,"ax",%progbits
 1678              		.align	1
 1679              		.p2align 2,,3
 1680              		.global	HAL_DMA_IRQHandler
 1681              		.syntax unified
 1682              		.thumb
 1683              		.thumb_func
 1684              		.fpu softvfp
 1686              	HAL_DMA_IRQHandler:
 1687              	.LFB73:
 610:Drivers/STM32F1xx_HAL_Driver/Src/stm32f1xx_hal_dma.c ****   uint32_t flag_it = hdma->DmaBaseAddress->ISR;
 1688              		.loc 1 610 0
 1689              		.cfi_startproc
 1690              		@ args = 0, pretend = 0, frame = 0
 1691              		@ frame_needed = 0, uses_anonymous_args = 0
 1692              		@ link register save eliminated.
 1693              	.LVL78:
 615:Drivers/STM32F1xx_HAL_Driver/Src/stm32f1xx_hal_dma.c ****   {
 1694              		.loc 1 615 0
 1695 0000 0422     		movs	r2, #4
 610:Drivers/STM32F1xx_HAL_Driver/Src/stm32f1xx_hal_dma.c ****   uint32_t flag_it = hdma->DmaBaseAddress->ISR;
ARM GAS  /tmp/ccUJvcf6.s 			page 52


 1696              		.loc 1 610 0
 1697 0002 70B4     		push	{r4, r5, r6}
 1698              	.LCFI26:
 1699              		.cfi_def_cfa_offset 12
 1700              		.cfi_offset 4, -12
 1701              		.cfi_offset 5, -8
 1702              		.cfi_offset 6, -4
 615:Drivers/STM32F1xx_HAL_Driver/Src/stm32f1xx_hal_dma.c ****   {
 1703              		.loc 1 615 0
 1704 0004 D0E90F61 		ldrd	r6, r1, [r0, #60]
 611:Drivers/STM32F1xx_HAL_Driver/Src/stm32f1xx_hal_dma.c ****   uint32_t source_it = hdma->Instance->CCR;
 1705              		.loc 1 611 0
 1706 0008 3468     		ldr	r4, [r6]
 1707              	.LVL79:
 612:Drivers/STM32F1xx_HAL_Driver/Src/stm32f1xx_hal_dma.c ****   
 1708              		.loc 1 612 0
 1709 000a 0368     		ldr	r3, [r0]
 615:Drivers/STM32F1xx_HAL_Driver/Src/stm32f1xx_hal_dma.c ****   {
 1710              		.loc 1 615 0
 1711 000c 8A40     		lsls	r2, r2, r1
 1712 000e 2242     		tst	r2, r4
 612:Drivers/STM32F1xx_HAL_Driver/Src/stm32f1xx_hal_dma.c ****   
 1713              		.loc 1 612 0
 1714 0010 1D68     		ldr	r5, [r3]
 1715              	.LVL80:
 615:Drivers/STM32F1xx_HAL_Driver/Src/stm32f1xx_hal_dma.c ****   {
 1716              		.loc 1 615 0
 1717 0012 42D0     		beq	.L234
 615:Drivers/STM32F1xx_HAL_Driver/Src/stm32f1xx_hal_dma.c ****   {
 1718              		.loc 1 615 0 is_stmt 0 discriminator 1
 1719 0014 6A07     		lsls	r2, r5, #29
 1720 0016 40D5     		bpl	.L234
 618:Drivers/STM32F1xx_HAL_Driver/Src/stm32f1xx_hal_dma.c ****     {
 1721              		.loc 1 618 0 is_stmt 1
 1722 0018 1A68     		ldr	r2, [r3]
 1723 001a 9106     		lsls	r1, r2, #26
 1724 001c 03D4     		bmi	.L235
 621:Drivers/STM32F1xx_HAL_Driver/Src/stm32f1xx_hal_dma.c ****     }
 1725              		.loc 1 621 0
 1726 001e 1A68     		ldr	r2, [r3]
 1727 0020 22F00402 		bic	r2, r2, #4
 1728 0024 1A60     		str	r2, [r3]
 1729              	.L235:
 624:Drivers/STM32F1xx_HAL_Driver/Src/stm32f1xx_hal_dma.c **** 
 1730              		.loc 1 624 0
 1731 0026 9C4A     		ldr	r2, .L319
 1732 0028 9C49     		ldr	r1, .L319+4
 1733 002a 9342     		cmp	r3, r2
 1734 002c 40F29280 		bls	.L236
 624:Drivers/STM32F1xx_HAL_Driver/Src/stm32f1xx_hal_dma.c **** 
 1735              		.loc 1 624 0 is_stmt 0 discriminator 1
 1736 0030 8B42     		cmp	r3, r1
 1737 0032 00F0F080 		beq	.L256
 624:Drivers/STM32F1xx_HAL_Driver/Src/stm32f1xx_hal_dma.c **** 
 1738              		.loc 1 624 0 discriminator 3
 1739 0036 1431     		adds	r1, r1, #20
 1740 0038 8B42     		cmp	r3, r1
ARM GAS  /tmp/ccUJvcf6.s 			page 53


 1741 003a 00F0F480 		beq	.L257
 624:Drivers/STM32F1xx_HAL_Driver/Src/stm32f1xx_hal_dma.c **** 
 1742              		.loc 1 624 0 discriminator 5
 1743 003e 1431     		adds	r1, r1, #20
 1744 0040 8B42     		cmp	r3, r1
 1745 0042 00F0E380 		beq	.L258
 624:Drivers/STM32F1xx_HAL_Driver/Src/stm32f1xx_hal_dma.c **** 
 1746              		.loc 1 624 0 discriminator 7
 1747 0046 1431     		adds	r1, r1, #20
 1748 0048 8B42     		cmp	r3, r1
 1749 004a 00F0F780 		beq	.L252
 624:Drivers/STM32F1xx_HAL_Driver/Src/stm32f1xx_hal_dma.c **** 
 1750              		.loc 1 624 0 discriminator 9
 1751 004e 1431     		adds	r1, r1, #20
 1752 0050 8B42     		cmp	r3, r1
 1753 0052 00F0FF80 		beq	.L253
 624:Drivers/STM32F1xx_HAL_Driver/Src/stm32f1xx_hal_dma.c **** 
 1754              		.loc 1 624 0 discriminator 11
 1755 0056 1431     		adds	r1, r1, #20
 1756 0058 8B42     		cmp	r3, r1
 1757 005a 00F00481 		beq	.L254
 624:Drivers/STM32F1xx_HAL_Driver/Src/stm32f1xx_hal_dma.c **** 
 1758              		.loc 1 624 0 discriminator 13
 1759 005e 9342     		cmp	r3, r2
 1760 0060 00F00D81 		beq	.L255
 624:Drivers/STM32F1xx_HAL_Driver/Src/stm32f1xx_hal_dma.c **** 
 1761              		.loc 1 624 0 discriminator 15
 1762 0064 02F56272 		add	r2, r2, #904
 1763 0068 9342     		cmp	r3, r2
 1764 006a 00F0D480 		beq	.L256
 624:Drivers/STM32F1xx_HAL_Driver/Src/stm32f1xx_hal_dma.c **** 
 1765              		.loc 1 624 0 discriminator 17
 1766 006e 1432     		adds	r2, r2, #20
 1767 0070 9342     		cmp	r3, r2
 1768 0072 00F0D880 		beq	.L257
 624:Drivers/STM32F1xx_HAL_Driver/Src/stm32f1xx_hal_dma.c **** 
 1769              		.loc 1 624 0 discriminator 19
 1770 0076 1432     		adds	r2, r2, #20
 1771 0078 9342     		cmp	r3, r2
 1772 007a 00F0C780 		beq	.L258
 624:Drivers/STM32F1xx_HAL_Driver/Src/stm32f1xx_hal_dma.c **** 
 1773              		.loc 1 624 0 discriminator 21
 1774 007e 1432     		adds	r2, r2, #20
 1775 0080 9342     		cmp	r3, r2
 1776 0082 14BF     		ite	ne
 1777 0084 4FF48023 		movne	r3, #262144
 1778 0088 4FF48043 		moveq	r3, #16384
 1779              	.L237:
 624:Drivers/STM32F1xx_HAL_Driver/Src/stm32f1xx_hal_dma.c **** 
 1780              		.loc 1 624 0 discriminator 46
 1781 008c 844A     		ldr	r2, .L319+8
 1782 008e 5360     		str	r3, [r2, #4]
 1783              	.L238:
 629:Drivers/STM32F1xx_HAL_Driver/Src/stm32f1xx_hal_dma.c ****     {
 1784              		.loc 1 629 0 is_stmt 1
 1785 0090 C36A     		ldr	r3, [r0, #44]
 1786 0092 002B     		cmp	r3, #0
ARM GAS  /tmp/ccUJvcf6.s 			page 54


 1787 0094 5CD1     		bne	.L318
 1788              	.LVL81:
 1789              	.L233:
 687:Drivers/STM32F1xx_HAL_Driver/Src/stm32f1xx_hal_dma.c **** 
 1790              		.loc 1 687 0
 1791 0096 70BC     		pop	{r4, r5, r6}
 1792              	.LCFI27:
 1793              		.cfi_remember_state
 1794              		.cfi_restore 6
 1795              		.cfi_restore 5
 1796              		.cfi_restore 4
 1797              		.cfi_def_cfa_offset 0
 1798 0098 7047     		bx	lr
 1799              	.LVL82:
 1800              	.L234:
 1801              	.LCFI28:
 1802              		.cfi_restore_state
 637:Drivers/STM32F1xx_HAL_Driver/Src/stm32f1xx_hal_dma.c ****   {
 1803              		.loc 1 637 0
 1804 009a 0222     		movs	r2, #2
 1805 009c 8A40     		lsls	r2, r2, r1
 1806 009e 2242     		tst	r2, r4
 1807 00a0 3FD0     		beq	.L242
 637:Drivers/STM32F1xx_HAL_Driver/Src/stm32f1xx_hal_dma.c ****   {
 1808              		.loc 1 637 0 is_stmt 0 discriminator 1
 1809 00a2 AA07     		lsls	r2, r5, #30
 1810 00a4 3DD5     		bpl	.L242
 639:Drivers/STM32F1xx_HAL_Driver/Src/stm32f1xx_hal_dma.c ****     {
 1811              		.loc 1 639 0 is_stmt 1
 1812 00a6 1A68     		ldr	r2, [r3]
 1813 00a8 9106     		lsls	r1, r2, #26
 1814 00aa 06D4     		bmi	.L243
 645:Drivers/STM32F1xx_HAL_Driver/Src/stm32f1xx_hal_dma.c ****     }
 1815              		.loc 1 645 0
 1816 00ac 0121     		movs	r1, #1
 642:Drivers/STM32F1xx_HAL_Driver/Src/stm32f1xx_hal_dma.c **** 
 1817              		.loc 1 642 0
 1818 00ae 1A68     		ldr	r2, [r3]
 1819 00b0 22F00A02 		bic	r2, r2, #10
 1820 00b4 1A60     		str	r2, [r3]
 645:Drivers/STM32F1xx_HAL_Driver/Src/stm32f1xx_hal_dma.c ****     }
 1821              		.loc 1 645 0
 1822 00b6 80F82110 		strb	r1, [r0, #33]
 1823              	.L243:
 648:Drivers/STM32F1xx_HAL_Driver/Src/stm32f1xx_hal_dma.c **** 
 1824              		.loc 1 648 0
 1825 00ba 774A     		ldr	r2, .L319
 1826 00bc 7749     		ldr	r1, .L319+4
 1827 00be 9342     		cmp	r3, r2
 1828 00c0 6FD9     		bls	.L244
 648:Drivers/STM32F1xx_HAL_Driver/Src/stm32f1xx_hal_dma.c **** 
 1829              		.loc 1 648 0 is_stmt 0 discriminator 1
 1830 00c2 8B42     		cmp	r3, r1
 1831 00c4 00F0A980 		beq	.L278
 648:Drivers/STM32F1xx_HAL_Driver/Src/stm32f1xx_hal_dma.c **** 
 1832              		.loc 1 648 0 discriminator 3
 1833 00c8 1431     		adds	r1, r1, #20
ARM GAS  /tmp/ccUJvcf6.s 			page 55


 1834 00ca 8B42     		cmp	r3, r1
 1835 00cc 00F09980 		beq	.L279
 648:Drivers/STM32F1xx_HAL_Driver/Src/stm32f1xx_hal_dma.c **** 
 1836              		.loc 1 648 0 discriminator 5
 1837 00d0 1431     		adds	r1, r1, #20
 1838 00d2 8B42     		cmp	r3, r1
 1839 00d4 00F0A980 		beq	.L280
 648:Drivers/STM32F1xx_HAL_Driver/Src/stm32f1xx_hal_dma.c **** 
 1840              		.loc 1 648 0 discriminator 7
 1841 00d8 1431     		adds	r1, r1, #20
 1842 00da 8B42     		cmp	r3, r1
 1843 00dc 00F0B180 		beq	.L274
 648:Drivers/STM32F1xx_HAL_Driver/Src/stm32f1xx_hal_dma.c **** 
 1844              		.loc 1 648 0 discriminator 9
 1845 00e0 1431     		adds	r1, r1, #20
 1846 00e2 8B42     		cmp	r3, r1
 1847 00e4 00F0BC80 		beq	.L275
 648:Drivers/STM32F1xx_HAL_Driver/Src/stm32f1xx_hal_dma.c **** 
 1848              		.loc 1 648 0 discriminator 11
 1849 00e8 1431     		adds	r1, r1, #20
 1850 00ea 8B42     		cmp	r3, r1
 1851 00ec 00F0C480 		beq	.L276
 648:Drivers/STM32F1xx_HAL_Driver/Src/stm32f1xx_hal_dma.c **** 
 1852              		.loc 1 648 0 discriminator 13
 1853 00f0 9342     		cmp	r3, r2
 1854 00f2 00F0CD80 		beq	.L277
 648:Drivers/STM32F1xx_HAL_Driver/Src/stm32f1xx_hal_dma.c **** 
 1855              		.loc 1 648 0 discriminator 15
 1856 00f6 02F56272 		add	r2, r2, #904
 1857 00fa 9342     		cmp	r3, r2
 1858 00fc 00F08D80 		beq	.L278
 648:Drivers/STM32F1xx_HAL_Driver/Src/stm32f1xx_hal_dma.c **** 
 1859              		.loc 1 648 0 discriminator 17
 1860 0100 1432     		adds	r2, r2, #20
 1861 0102 9342     		cmp	r3, r2
 1862 0104 7DD0     		beq	.L279
 648:Drivers/STM32F1xx_HAL_Driver/Src/stm32f1xx_hal_dma.c **** 
 1863              		.loc 1 648 0 discriminator 19
 1864 0106 1432     		adds	r2, r2, #20
 1865 0108 9342     		cmp	r3, r2
 1866 010a 00F08E80 		beq	.L280
 648:Drivers/STM32F1xx_HAL_Driver/Src/stm32f1xx_hal_dma.c **** 
 1867              		.loc 1 648 0 discriminator 21
 1868 010e 1432     		adds	r2, r2, #20
 1869 0110 9342     		cmp	r3, r2
 1870 0112 14BF     		ite	ne
 1871 0114 4FF40032 		movne	r2, #131072
 1872 0118 4FF40052 		moveq	r2, #8192
 1873              	.L245:
 648:Drivers/STM32F1xx_HAL_Driver/Src/stm32f1xx_hal_dma.c **** 
 1874              		.loc 1 648 0 discriminator 46
 1875 011c 604B     		ldr	r3, .L319+8
 1876 011e 5A60     		str	r2, [r3, #4]
 1877 0120 64E0     		b	.L246
 1878              	.L242:
 661:Drivers/STM32F1xx_HAL_Driver/Src/stm32f1xx_hal_dma.c ****   {
 1879              		.loc 1 661 0 is_stmt 1
ARM GAS  /tmp/ccUJvcf6.s 			page 56


 1880 0122 0822     		movs	r2, #8
 1881 0124 8A40     		lsls	r2, r2, r1
 1882 0126 2242     		tst	r2, r4
 1883 0128 B5D0     		beq	.L233
 661:Drivers/STM32F1xx_HAL_Driver/Src/stm32f1xx_hal_dma.c ****   {
 1884              		.loc 1 661 0 is_stmt 0 discriminator 1
 1885 012a 2A07     		lsls	r2, r5, #28
 1886 012c B3D5     		bpl	.L233
 669:Drivers/STM32F1xx_HAL_Driver/Src/stm32f1xx_hal_dma.c **** 
 1887              		.loc 1 669 0 is_stmt 1
 1888 012e 0122     		movs	r2, #1
 678:Drivers/STM32F1xx_HAL_Driver/Src/stm32f1xx_hal_dma.c **** 
 1889              		.loc 1 678 0
 1890 0130 0025     		movs	r5, #0
 1891              	.LVL83:
 666:Drivers/STM32F1xx_HAL_Driver/Src/stm32f1xx_hal_dma.c **** 
 1892              		.loc 1 666 0
 1893 0132 1C68     		ldr	r4, [r3]
 1894              	.LVL84:
 669:Drivers/STM32F1xx_HAL_Driver/Src/stm32f1xx_hal_dma.c **** 
 1895              		.loc 1 669 0
 1896 0134 02FA01F1 		lsl	r1, r2, r1
 666:Drivers/STM32F1xx_HAL_Driver/Src/stm32f1xx_hal_dma.c **** 
 1897              		.loc 1 666 0
 1898 0138 24F00E04 		bic	r4, r4, #14
 1899 013c 1C60     		str	r4, [r3]
 680:Drivers/STM32F1xx_HAL_Driver/Src/stm32f1xx_hal_dma.c ****     {
 1900              		.loc 1 680 0
 1901 013e 036B     		ldr	r3, [r0, #48]
 669:Drivers/STM32F1xx_HAL_Driver/Src/stm32f1xx_hal_dma.c **** 
 1902              		.loc 1 669 0
 1903 0140 7160     		str	r1, [r6, #4]
 672:Drivers/STM32F1xx_HAL_Driver/Src/stm32f1xx_hal_dma.c **** 
 1904              		.loc 1 672 0
 1905 0142 8263     		str	r2, [r0, #56]
 675:Drivers/STM32F1xx_HAL_Driver/Src/stm32f1xx_hal_dma.c **** 
 1906              		.loc 1 675 0
 1907 0144 80F82120 		strb	r2, [r0, #33]
 678:Drivers/STM32F1xx_HAL_Driver/Src/stm32f1xx_hal_dma.c **** 
 1908              		.loc 1 678 0
 1909 0148 80F82050 		strb	r5, [r0, #32]
 680:Drivers/STM32F1xx_HAL_Driver/Src/stm32f1xx_hal_dma.c ****     {
 1910              		.loc 1 680 0
 1911 014c 002B     		cmp	r3, #0
 1912 014e A2D0     		beq	.L233
 1913              	.L318:
 687:Drivers/STM32F1xx_HAL_Driver/Src/stm32f1xx_hal_dma.c **** 
 1914              		.loc 1 687 0
 1915 0150 70BC     		pop	{r4, r5, r6}
 1916              	.LCFI29:
 1917              		.cfi_remember_state
 1918              		.cfi_restore 6
 1919              		.cfi_restore 5
 1920              		.cfi_restore 4
 1921              		.cfi_def_cfa_offset 0
 683:Drivers/STM32F1xx_HAL_Driver/Src/stm32f1xx_hal_dma.c ****     }
 1922              		.loc 1 683 0
ARM GAS  /tmp/ccUJvcf6.s 			page 57


 1923 0152 1847     		bx	r3	@ indirect register sibling call
 1924              	.LVL85:
 1925              	.L236:
 1926              	.LCFI30:
 1927              		.cfi_restore_state
 624:Drivers/STM32F1xx_HAL_Driver/Src/stm32f1xx_hal_dma.c **** 
 1928              		.loc 1 624 0 discriminator 2
 1929 0154 8B42     		cmp	r3, r1
 1930 0156 5CD0     		beq	.L267
 624:Drivers/STM32F1xx_HAL_Driver/Src/stm32f1xx_hal_dma.c **** 
 1931              		.loc 1 624 0 is_stmt 0 discriminator 47
 1932 0158 1431     		adds	r1, r1, #20
 1933 015a 8B42     		cmp	r3, r1
 1934 015c 61D0     		beq	.L268
 624:Drivers/STM32F1xx_HAL_Driver/Src/stm32f1xx_hal_dma.c **** 
 1935              		.loc 1 624 0 discriminator 49
 1936 015e 1431     		adds	r1, r1, #20
 1937 0160 8B42     		cmp	r3, r1
 1938 0162 50D0     		beq	.L269
 624:Drivers/STM32F1xx_HAL_Driver/Src/stm32f1xx_hal_dma.c **** 
 1939              		.loc 1 624 0 discriminator 51
 1940 0164 1431     		adds	r1, r1, #20
 1941 0166 8B42     		cmp	r3, r1
 1942 0168 65D0     		beq	.L263
 624:Drivers/STM32F1xx_HAL_Driver/Src/stm32f1xx_hal_dma.c **** 
 1943              		.loc 1 624 0 discriminator 53
 1944 016a 1431     		adds	r1, r1, #20
 1945 016c 8B42     		cmp	r3, r1
 1946 016e 6ED0     		beq	.L264
 624:Drivers/STM32F1xx_HAL_Driver/Src/stm32f1xx_hal_dma.c **** 
 1947              		.loc 1 624 0 discriminator 55
 1948 0170 1431     		adds	r1, r1, #20
 1949 0172 8B42     		cmp	r3, r1
 1950 0174 7AD0     		beq	.L265
 624:Drivers/STM32F1xx_HAL_Driver/Src/stm32f1xx_hal_dma.c **** 
 1951              		.loc 1 624 0 discriminator 57
 1952 0176 9342     		cmp	r3, r2
 1953 0178 00F08480 		beq	.L266
 624:Drivers/STM32F1xx_HAL_Driver/Src/stm32f1xx_hal_dma.c **** 
 1954              		.loc 1 624 0 discriminator 59
 1955 017c 494A     		ldr	r2, .L319+12
 1956 017e 9342     		cmp	r3, r2
 1957 0180 47D0     		beq	.L267
 624:Drivers/STM32F1xx_HAL_Driver/Src/stm32f1xx_hal_dma.c **** 
 1958              		.loc 1 624 0 discriminator 61
 1959 0182 1432     		adds	r2, r2, #20
 1960 0184 9342     		cmp	r3, r2
 1961 0186 4CD0     		beq	.L268
 624:Drivers/STM32F1xx_HAL_Driver/Src/stm32f1xx_hal_dma.c **** 
 1962              		.loc 1 624 0 discriminator 63
 1963 0188 1432     		adds	r2, r2, #20
 1964 018a 9342     		cmp	r3, r2
 1965 018c 3BD0     		beq	.L269
 624:Drivers/STM32F1xx_HAL_Driver/Src/stm32f1xx_hal_dma.c **** 
 1966              		.loc 1 624 0 discriminator 65
 1967 018e 1432     		adds	r2, r2, #20
 1968 0190 9342     		cmp	r3, r2
ARM GAS  /tmp/ccUJvcf6.s 			page 58


 1969 0192 14BF     		ite	ne
 1970 0194 4FF48023 		movne	r3, #262144
 1971 0198 4FF48043 		moveq	r3, #16384
 1972              	.L239:
 624:Drivers/STM32F1xx_HAL_Driver/Src/stm32f1xx_hal_dma.c **** 
 1973              		.loc 1 624 0 discriminator 90
 1974 019c 424A     		ldr	r2, .L319+16
 1975 019e 5360     		str	r3, [r2, #4]
 1976 01a0 76E7     		b	.L238
 1977              	.L244:
 648:Drivers/STM32F1xx_HAL_Driver/Src/stm32f1xx_hal_dma.c **** 
 1978              		.loc 1 648 0 is_stmt 1 discriminator 2
 1979 01a2 8B42     		cmp	r3, r1
 1980 01a4 3BD0     		beq	.L289
 648:Drivers/STM32F1xx_HAL_Driver/Src/stm32f1xx_hal_dma.c **** 
 1981              		.loc 1 648 0 is_stmt 0 discriminator 47
 1982 01a6 1431     		adds	r1, r1, #20
 1983 01a8 8B42     		cmp	r3, r1
 1984 01aa 28D0     		beq	.L290
 648:Drivers/STM32F1xx_HAL_Driver/Src/stm32f1xx_hal_dma.c **** 
 1985              		.loc 1 648 0 discriminator 49
 1986 01ac 1431     		adds	r1, r1, #20
 1987 01ae 8B42     		cmp	r3, r1
 1988 01b0 3ED0     		beq	.L291
 648:Drivers/STM32F1xx_HAL_Driver/Src/stm32f1xx_hal_dma.c **** 
 1989              		.loc 1 648 0 discriminator 51
 1990 01b2 1431     		adds	r1, r1, #20
 1991 01b4 8B42     		cmp	r3, r1
 1992 01b6 47D0     		beq	.L285
 648:Drivers/STM32F1xx_HAL_Driver/Src/stm32f1xx_hal_dma.c **** 
 1993              		.loc 1 648 0 discriminator 53
 1994 01b8 1431     		adds	r1, r1, #20
 1995 01ba 8B42     		cmp	r3, r1
 1996 01bc 4DD0     		beq	.L286
 648:Drivers/STM32F1xx_HAL_Driver/Src/stm32f1xx_hal_dma.c **** 
 1997              		.loc 1 648 0 discriminator 55
 1998 01be 1431     		adds	r1, r1, #20
 1999 01c0 8B42     		cmp	r3, r1
 2000 01c2 56D0     		beq	.L287
 648:Drivers/STM32F1xx_HAL_Driver/Src/stm32f1xx_hal_dma.c **** 
 2001              		.loc 1 648 0 discriminator 57
 2002 01c4 9342     		cmp	r3, r2
 2003 01c6 60D0     		beq	.L288
 648:Drivers/STM32F1xx_HAL_Driver/Src/stm32f1xx_hal_dma.c **** 
 2004              		.loc 1 648 0 discriminator 59
 2005 01c8 364A     		ldr	r2, .L319+12
 2006 01ca 9342     		cmp	r3, r2
 2007 01cc 27D0     		beq	.L289
 648:Drivers/STM32F1xx_HAL_Driver/Src/stm32f1xx_hal_dma.c **** 
 2008              		.loc 1 648 0 discriminator 61
 2009 01ce 1432     		adds	r2, r2, #20
 2010 01d0 9342     		cmp	r3, r2
 2011 01d2 14D0     		beq	.L290
 648:Drivers/STM32F1xx_HAL_Driver/Src/stm32f1xx_hal_dma.c **** 
 2012              		.loc 1 648 0 discriminator 63
 2013 01d4 1432     		adds	r2, r2, #20
 2014 01d6 9342     		cmp	r3, r2
ARM GAS  /tmp/ccUJvcf6.s 			page 59


 2015 01d8 2AD0     		beq	.L291
 648:Drivers/STM32F1xx_HAL_Driver/Src/stm32f1xx_hal_dma.c **** 
 2016              		.loc 1 648 0 discriminator 65
 2017 01da 1432     		adds	r2, r2, #20
 2018 01dc 9342     		cmp	r3, r2
 2019 01de 14BF     		ite	ne
 2020 01e0 4FF40032 		movne	r2, #131072
 2021 01e4 4FF40052 		moveq	r2, #8192
 2022              	.L247:
 648:Drivers/STM32F1xx_HAL_Driver/Src/stm32f1xx_hal_dma.c **** 
 2023              		.loc 1 648 0 discriminator 90
 2024 01e8 2F4B     		ldr	r3, .L319+16
 2025 01ea 5A60     		str	r2, [r3, #4]
 2026              	.L246:
 651:Drivers/STM32F1xx_HAL_Driver/Src/stm32f1xx_hal_dma.c **** 
 2027              		.loc 1 651 0 is_stmt 1
 2028 01ec 0022     		movs	r2, #0
 653:Drivers/STM32F1xx_HAL_Driver/Src/stm32f1xx_hal_dma.c ****     {
 2029              		.loc 1 653 0
 2030 01ee 836A     		ldr	r3, [r0, #40]
 651:Drivers/STM32F1xx_HAL_Driver/Src/stm32f1xx_hal_dma.c **** 
 2031              		.loc 1 651 0
 2032 01f0 80F82020 		strb	r2, [r0, #32]
 653:Drivers/STM32F1xx_HAL_Driver/Src/stm32f1xx_hal_dma.c ****     {
 2033              		.loc 1 653 0
 2034 01f4 002B     		cmp	r3, #0
 2035 01f6 3FF44EAF 		beq	.L233
 687:Drivers/STM32F1xx_HAL_Driver/Src/stm32f1xx_hal_dma.c **** 
 2036              		.loc 1 687 0
 2037 01fa 70BC     		pop	{r4, r5, r6}
 2038              	.LCFI31:
 2039              		.cfi_remember_state
 2040              		.cfi_restore 6
 2041              		.cfi_restore 5
 2042              		.cfi_restore 4
 2043              		.cfi_def_cfa_offset 0
 2044              	.LVL86:
 683:Drivers/STM32F1xx_HAL_Driver/Src/stm32f1xx_hal_dma.c ****     }
 2045              		.loc 1 683 0
 2046 01fc 1847     		bx	r3	@ indirect register sibling call
 2047              	.LVL87:
 2048              	.L290:
 2049              	.LCFI32:
 2050              		.cfi_restore_state
 648:Drivers/STM32F1xx_HAL_Driver/Src/stm32f1xx_hal_dma.c **** 
 2051              		.loc 1 648 0
 2052 01fe 2022     		movs	r2, #32
 2053 0200 F2E7     		b	.L247
 2054              	.L279:
 2055 0202 2022     		movs	r2, #32
 2056 0204 8AE7     		b	.L245
 2057              	.L269:
 624:Drivers/STM32F1xx_HAL_Driver/Src/stm32f1xx_hal_dma.c **** 
 2058              		.loc 1 624 0
 2059 0206 4FF48063 		mov	r3, #1024
 2060 020a C7E7     		b	.L239
 2061              	.L258:
ARM GAS  /tmp/ccUJvcf6.s 			page 60


 2062 020c 4FF48063 		mov	r3, #1024
 2063 0210 3CE7     		b	.L237
 2064              	.L267:
 2065 0212 0423     		movs	r3, #4
 2066 0214 C2E7     		b	.L239
 2067              	.L256:
 2068 0216 0423     		movs	r3, #4
 2069 0218 38E7     		b	.L237
 2070              	.L278:
 648:Drivers/STM32F1xx_HAL_Driver/Src/stm32f1xx_hal_dma.c **** 
 2071              		.loc 1 648 0
 2072 021a 0222     		movs	r2, #2
 2073 021c 7EE7     		b	.L245
 2074              	.L289:
 2075 021e 0222     		movs	r2, #2
 2076 0220 E2E7     		b	.L247
 2077              	.L268:
 624:Drivers/STM32F1xx_HAL_Driver/Src/stm32f1xx_hal_dma.c **** 
 2078              		.loc 1 624 0
 2079 0222 4023     		movs	r3, #64
 2080 0224 BAE7     		b	.L239
 2081              	.L257:
 2082 0226 4023     		movs	r3, #64
 2083 0228 30E7     		b	.L237
 2084              	.L280:
 648:Drivers/STM32F1xx_HAL_Driver/Src/stm32f1xx_hal_dma.c **** 
 2085              		.loc 1 648 0
 2086 022a 4FF40072 		mov	r2, #512
 2087 022e 75E7     		b	.L245
 2088              	.L291:
 2089 0230 4FF40072 		mov	r2, #512
 2090 0234 D8E7     		b	.L247
 2091              	.L263:
 624:Drivers/STM32F1xx_HAL_Driver/Src/stm32f1xx_hal_dma.c **** 
 2092              		.loc 1 624 0
 2093 0236 4FF48043 		mov	r3, #16384
 2094 023a AFE7     		b	.L239
 2095              	.L252:
 2096 023c 4FF48043 		mov	r3, #16384
 2097 0240 24E7     		b	.L237
 2098              	.L274:
 648:Drivers/STM32F1xx_HAL_Driver/Src/stm32f1xx_hal_dma.c **** 
 2099              		.loc 1 648 0
 2100 0242 4FF40052 		mov	r2, #8192
 2101 0246 69E7     		b	.L245
 2102              	.L285:
 2103 0248 4FF40052 		mov	r2, #8192
 2104 024c CCE7     		b	.L247
 2105              	.L264:
 624:Drivers/STM32F1xx_HAL_Driver/Src/stm32f1xx_hal_dma.c **** 
 2106              		.loc 1 624 0
 2107 024e 4FF48023 		mov	r3, #262144
 2108 0252 A3E7     		b	.L239
 2109              	.L253:
 2110 0254 4FF48023 		mov	r3, #262144
 2111 0258 18E7     		b	.L237
 2112              	.L286:
ARM GAS  /tmp/ccUJvcf6.s 			page 61


 648:Drivers/STM32F1xx_HAL_Driver/Src/stm32f1xx_hal_dma.c **** 
 2113              		.loc 1 648 0
 2114 025a 4FF40032 		mov	r2, #131072
 2115 025e C3E7     		b	.L247
 2116              	.L275:
 2117 0260 4FF40032 		mov	r2, #131072
 2118 0264 5AE7     		b	.L245
 2119              	.L254:
 624:Drivers/STM32F1xx_HAL_Driver/Src/stm32f1xx_hal_dma.c **** 
 2120              		.loc 1 624 0
 2121 0266 4FF48003 		mov	r3, #4194304
 2122 026a 0FE7     		b	.L237
 2123              	.L265:
 2124 026c 4FF48003 		mov	r3, #4194304
 2125 0270 94E7     		b	.L239
 2126              	.L287:
 648:Drivers/STM32F1xx_HAL_Driver/Src/stm32f1xx_hal_dma.c **** 
 2127              		.loc 1 648 0
 2128 0272 4FF40012 		mov	r2, #2097152
 2129 0276 B7E7     		b	.L247
 2130              	.L276:
 2131 0278 4FF40012 		mov	r2, #2097152
 2132 027c 4EE7     		b	.L245
 2133              	.L255:
 624:Drivers/STM32F1xx_HAL_Driver/Src/stm32f1xx_hal_dma.c **** 
 2134              		.loc 1 624 0
 2135 027e 4FF08063 		mov	r3, #67108864
 2136 0282 03E7     		b	.L237
 2137              	.L266:
 2138 0284 4FF08063 		mov	r3, #67108864
 2139 0288 88E7     		b	.L239
 2140              	.L288:
 648:Drivers/STM32F1xx_HAL_Driver/Src/stm32f1xx_hal_dma.c **** 
 2141              		.loc 1 648 0
 2142 028a 4FF00072 		mov	r2, #33554432
 2143 028e ABE7     		b	.L247
 2144              	.L277:
 2145 0290 4FF00072 		mov	r2, #33554432
 2146 0294 42E7     		b	.L245
 2147              	.L320:
 2148 0296 00BF     		.align	2
 2149              	.L319:
 2150 0298 80000240 		.word	1073873024
 2151 029c 08000240 		.word	1073872904
 2152 02a0 00040240 		.word	1073873920
 2153 02a4 08040240 		.word	1073873928
 2154 02a8 00000240 		.word	1073872896
 2155              		.cfi_endproc
 2156              	.LFE73:
 2158              		.section	.text.HAL_DMA_RegisterCallback,"ax",%progbits
 2159              		.align	1
 2160              		.p2align 2,,3
 2161              		.global	HAL_DMA_RegisterCallback
 2162              		.syntax unified
 2163              		.thumb
 2164              		.thumb_func
 2165              		.fpu softvfp
ARM GAS  /tmp/ccUJvcf6.s 			page 62


 2167              	HAL_DMA_RegisterCallback:
 2168              	.LFB74:
 700:Drivers/STM32F1xx_HAL_Driver/Src/stm32f1xx_hal_dma.c ****   HAL_StatusTypeDef status = HAL_OK;
 2169              		.loc 1 700 0
 2170              		.cfi_startproc
 2171              		@ args = 0, pretend = 0, frame = 0
 2172              		@ frame_needed = 0, uses_anonymous_args = 0
 2173              		@ link register save eliminated.
 2174              	.LVL88:
 2175 0000 0346     		mov	r3, r0
 704:Drivers/STM32F1xx_HAL_Driver/Src/stm32f1xx_hal_dma.c ****   
 2176              		.loc 1 704 0
 2177 0002 90F82000 		ldrb	r0, [r0, #32]	@ zero_extendqisi2
 2178              	.LVL89:
 2179 0006 0128     		cmp	r0, #1
 2180 0008 1ED0     		beq	.L329
 704:Drivers/STM32F1xx_HAL_Driver/Src/stm32f1xx_hal_dma.c ****   
 2181              		.loc 1 704 0 is_stmt 0 discriminator 2
 2182 000a 0120     		movs	r0, #1
 700:Drivers/STM32F1xx_HAL_Driver/Src/stm32f1xx_hal_dma.c ****   HAL_StatusTypeDef status = HAL_OK;
 2183              		.loc 1 700 0 is_stmt 1 discriminator 2
 2184 000c 10B4     		push	{r4}
 2185              	.LCFI33:
 2186              		.cfi_def_cfa_offset 4
 2187              		.cfi_offset 4, -4
 706:Drivers/STM32F1xx_HAL_Driver/Src/stm32f1xx_hal_dma.c ****   {
 2188              		.loc 1 706 0 discriminator 2
 2189 000e 93F82140 		ldrb	r4, [r3, #33]	@ zero_extendqisi2
 704:Drivers/STM32F1xx_HAL_Driver/Src/stm32f1xx_hal_dma.c ****   
 2190              		.loc 1 704 0 discriminator 2
 2191 0012 83F82000 		strb	r0, [r3, #32]
 706:Drivers/STM32F1xx_HAL_Driver/Src/stm32f1xx_hal_dma.c ****   {
 2192              		.loc 1 706 0 discriminator 2
 2193 0016 8442     		cmp	r4, r0
 2194 0018 04D0     		beq	.L336
 2195              	.L323:
 2196              	.LVL90:
 737:Drivers/STM32F1xx_HAL_Driver/Src/stm32f1xx_hal_dma.c ****   
 2197              		.loc 1 737 0
 2198 001a 0022     		movs	r2, #0
 2199              	.LVL91:
 740:Drivers/STM32F1xx_HAL_Driver/Src/stm32f1xx_hal_dma.c **** 
 2200              		.loc 1 740 0
 2201 001c 10BC     		pop	{r4}
 2202              	.LCFI34:
 2203              		.cfi_remember_state
 2204              		.cfi_restore 4
 2205              		.cfi_def_cfa_offset 0
 737:Drivers/STM32F1xx_HAL_Driver/Src/stm32f1xx_hal_dma.c ****   
 2206              		.loc 1 737 0
 2207 001e 83F82020 		strb	r2, [r3, #32]
 740:Drivers/STM32F1xx_HAL_Driver/Src/stm32f1xx_hal_dma.c **** 
 2208              		.loc 1 740 0
 2209 0022 7047     		bx	lr
 2210              	.LVL92:
 2211              	.L336:
 2212              	.LCFI35:
ARM GAS  /tmp/ccUJvcf6.s 			page 63


 2213              		.cfi_restore_state
 708:Drivers/STM32F1xx_HAL_Driver/Src/stm32f1xx_hal_dma.c ****     {
 2214              		.loc 1 708 0
 2215 0024 0329     		cmp	r1, #3
 2216 0026 11D8     		bhi	.L331
 2217 0028 DFE801F0 		tbb	[pc, r1]
 2218              	.L325:
 2219 002c 0B       		.byte	(.L324-.L325)/2
 2220 002d 08       		.byte	(.L326-.L325)/2
 2221 002e 05       		.byte	(.L327-.L325)/2
 2222 002f 02       		.byte	(.L328-.L325)/2
 2223              		.p2align 1
 2224              	.L328:
 723:Drivers/STM32F1xx_HAL_Driver/Src/stm32f1xx_hal_dma.c ****       break; 
 2225              		.loc 1 723 0
 2226 0030 5A63     		str	r2, [r3, #52]
 701:Drivers/STM32F1xx_HAL_Driver/Src/stm32f1xx_hal_dma.c ****   
 2227              		.loc 1 701 0
 2228 0032 0020     		movs	r0, #0
 724:Drivers/STM32F1xx_HAL_Driver/Src/stm32f1xx_hal_dma.c ****       
 2229              		.loc 1 724 0
 2230 0034 F1E7     		b	.L323
 2231              	.L327:
 719:Drivers/STM32F1xx_HAL_Driver/Src/stm32f1xx_hal_dma.c ****       break;         
 2232              		.loc 1 719 0
 2233 0036 1A63     		str	r2, [r3, #48]
 701:Drivers/STM32F1xx_HAL_Driver/Src/stm32f1xx_hal_dma.c ****   
 2234              		.loc 1 701 0
 2235 0038 0020     		movs	r0, #0
 720:Drivers/STM32F1xx_HAL_Driver/Src/stm32f1xx_hal_dma.c ****       
 2236              		.loc 1 720 0
 2237 003a EEE7     		b	.L323
 2238              	.L326:
 715:Drivers/STM32F1xx_HAL_Driver/Src/stm32f1xx_hal_dma.c ****       break;         
 2239              		.loc 1 715 0
 2240 003c DA62     		str	r2, [r3, #44]
 701:Drivers/STM32F1xx_HAL_Driver/Src/stm32f1xx_hal_dma.c ****   
 2241              		.loc 1 701 0
 2242 003e 0020     		movs	r0, #0
 716:Drivers/STM32F1xx_HAL_Driver/Src/stm32f1xx_hal_dma.c **** 
 2243              		.loc 1 716 0
 2244 0040 EBE7     		b	.L323
 2245              	.L324:
 711:Drivers/STM32F1xx_HAL_Driver/Src/stm32f1xx_hal_dma.c ****       break;
 2246              		.loc 1 711 0
 2247 0042 9A62     		str	r2, [r3, #40]
 701:Drivers/STM32F1xx_HAL_Driver/Src/stm32f1xx_hal_dma.c ****   
 2248              		.loc 1 701 0
 2249 0044 0020     		movs	r0, #0
 712:Drivers/STM32F1xx_HAL_Driver/Src/stm32f1xx_hal_dma.c ****       
 2250              		.loc 1 712 0
 2251 0046 E8E7     		b	.L323
 2252              	.L329:
 2253              	.LCFI36:
 2254              		.cfi_def_cfa_offset 0
 2255              		.cfi_restore 4
 704:Drivers/STM32F1xx_HAL_Driver/Src/stm32f1xx_hal_dma.c ****   
ARM GAS  /tmp/ccUJvcf6.s 			page 64


 2256              		.loc 1 704 0
 2257 0048 0220     		movs	r0, #2
 740:Drivers/STM32F1xx_HAL_Driver/Src/stm32f1xx_hal_dma.c **** 
 2258              		.loc 1 740 0
 2259 004a 7047     		bx	lr
 2260              	.L331:
 727:Drivers/STM32F1xx_HAL_Driver/Src/stm32f1xx_hal_dma.c ****       break;                                                            
 2261              		.loc 1 727 0
 2262 004c 0120     		movs	r0, #1
 2263 004e E4E7     		b	.L323
 2264              		.cfi_endproc
 2265              	.LFE74:
 2267              		.section	.text.HAL_DMA_UnRegisterCallback,"ax",%progbits
 2268              		.align	1
 2269              		.p2align 2,,3
 2270              		.global	HAL_DMA_UnRegisterCallback
 2271              		.syntax unified
 2272              		.thumb
 2273              		.thumb_func
 2274              		.fpu softvfp
 2276              	HAL_DMA_UnRegisterCallback:
 2277              	.LFB75:
 751:Drivers/STM32F1xx_HAL_Driver/Src/stm32f1xx_hal_dma.c ****   HAL_StatusTypeDef status = HAL_OK;
 2278              		.loc 1 751 0
 2279              		.cfi_startproc
 2280              		@ args = 0, pretend = 0, frame = 0
 2281              		@ frame_needed = 0, uses_anonymous_args = 0
 2282              		@ link register save eliminated.
 2283              	.LVL93:
 755:Drivers/STM32F1xx_HAL_Driver/Src/stm32f1xx_hal_dma.c ****   
 2284              		.loc 1 755 0
 2285 0000 90F82030 		ldrb	r3, [r0, #32]	@ zero_extendqisi2
 2286 0004 012B     		cmp	r3, #1
 2287 0006 12D0     		beq	.L346
 755:Drivers/STM32F1xx_HAL_Driver/Src/stm32f1xx_hal_dma.c ****   
 2288              		.loc 1 755 0 is_stmt 0 discriminator 2
 2289 0008 0123     		movs	r3, #1
 757:Drivers/STM32F1xx_HAL_Driver/Src/stm32f1xx_hal_dma.c ****   {
 2290              		.loc 1 757 0 is_stmt 1 discriminator 2
 2291 000a 90F82120 		ldrb	r2, [r0, #33]	@ zero_extendqisi2
 755:Drivers/STM32F1xx_HAL_Driver/Src/stm32f1xx_hal_dma.c ****   
 2292              		.loc 1 755 0 discriminator 2
 2293 000e 80F82030 		strb	r3, [r0, #32]
 757:Drivers/STM32F1xx_HAL_Driver/Src/stm32f1xx_hal_dma.c ****   {
 2294              		.loc 1 757 0 discriminator 2
 2295 0012 9A42     		cmp	r2, r3
 2296 0014 04D0     		beq	.L349
 2297              	.L339:
 2298              	.LVL94:
 795:Drivers/STM32F1xx_HAL_Driver/Src/stm32f1xx_hal_dma.c ****   
 2299              		.loc 1 795 0
 2300 0016 0022     		movs	r2, #0
 2301 0018 80F82020 		strb	r2, [r0, #32]
 798:Drivers/STM32F1xx_HAL_Driver/Src/stm32f1xx_hal_dma.c ****   
 2302              		.loc 1 798 0
 2303 001c 1846     		mov	r0, r3
 2304              	.LVL95:
ARM GAS  /tmp/ccUJvcf6.s 			page 65


 2305 001e 7047     		bx	lr
 2306              	.LVL96:
 2307              	.L349:
 759:Drivers/STM32F1xx_HAL_Driver/Src/stm32f1xx_hal_dma.c ****     {
 2308              		.loc 1 759 0
 2309 0020 0429     		cmp	r1, #4
 2310 0022 19D8     		bhi	.L348
 2311 0024 DFE801F0 		tbb	[pc, r1]
 2312              	.L341:
 2313 0028 0C       		.byte	(.L340-.L341)/2
 2314 0029 0F       		.byte	(.L342-.L341)/2
 2315 002a 12       		.byte	(.L343-.L341)/2
 2316 002b 15       		.byte	(.L344-.L341)/2
 2317 002c 06       		.byte	(.L345-.L341)/2
 2318 002d 00       		.p2align 1
 2319              	.L346:
 755:Drivers/STM32F1xx_HAL_Driver/Src/stm32f1xx_hal_dma.c ****   
 2320              		.loc 1 755 0
 2321 002e 0223     		movs	r3, #2
 798:Drivers/STM32F1xx_HAL_Driver/Src/stm32f1xx_hal_dma.c ****   
 2322              		.loc 1 798 0
 2323 0030 1846     		mov	r0, r3
 2324              	.LVL97:
 2325 0032 7047     		bx	lr
 2326              	.LVL98:
 2327              	.L345:
 778:Drivers/STM32F1xx_HAL_Driver/Src/stm32f1xx_hal_dma.c ****       hdma->XferHalfCpltCallback = NULL;
 2328              		.loc 1 778 0
 2329 0034 0023     		movs	r3, #0
 779:Drivers/STM32F1xx_HAL_Driver/Src/stm32f1xx_hal_dma.c ****       hdma->XferErrorCallback = NULL;
 2330              		.loc 1 779 0
 2331 0036 C0E90A33 		strd	r3, r3, [r0, #40]
 781:Drivers/STM32F1xx_HAL_Driver/Src/stm32f1xx_hal_dma.c ****       break; 
 2332              		.loc 1 781 0
 2333 003a C0E90C33 		strd	r3, r3, [r0, #48]
 782:Drivers/STM32F1xx_HAL_Driver/Src/stm32f1xx_hal_dma.c **** 
 2334              		.loc 1 782 0
 2335 003e EAE7     		b	.L339
 2336              	.L340:
 762:Drivers/STM32F1xx_HAL_Driver/Src/stm32f1xx_hal_dma.c ****       break;
 2337              		.loc 1 762 0
 2338 0040 0023     		movs	r3, #0
 2339 0042 8362     		str	r3, [r0, #40]
 763:Drivers/STM32F1xx_HAL_Driver/Src/stm32f1xx_hal_dma.c **** 
 2340              		.loc 1 763 0
 2341 0044 E7E7     		b	.L339
 2342              	.L342:
 766:Drivers/STM32F1xx_HAL_Driver/Src/stm32f1xx_hal_dma.c ****       break;         
 2343              		.loc 1 766 0
 2344 0046 0023     		movs	r3, #0
 2345 0048 C362     		str	r3, [r0, #44]
 767:Drivers/STM32F1xx_HAL_Driver/Src/stm32f1xx_hal_dma.c **** 
 2346              		.loc 1 767 0
 2347 004a E4E7     		b	.L339
 2348              	.L343:
 770:Drivers/STM32F1xx_HAL_Driver/Src/stm32f1xx_hal_dma.c ****       break;         
 2349              		.loc 1 770 0
ARM GAS  /tmp/ccUJvcf6.s 			page 66


 2350 004c 0023     		movs	r3, #0
 2351 004e 0363     		str	r3, [r0, #48]
 771:Drivers/STM32F1xx_HAL_Driver/Src/stm32f1xx_hal_dma.c **** 
 2352              		.loc 1 771 0
 2353 0050 E1E7     		b	.L339
 2354              	.L344:
 774:Drivers/STM32F1xx_HAL_Driver/Src/stm32f1xx_hal_dma.c ****       break; 
 2355              		.loc 1 774 0
 2356 0052 0023     		movs	r3, #0
 2357 0054 4363     		str	r3, [r0, #52]
 775:Drivers/STM32F1xx_HAL_Driver/Src/stm32f1xx_hal_dma.c **** 
 2358              		.loc 1 775 0
 2359 0056 DEE7     		b	.L339
 2360              	.L348:
 785:Drivers/STM32F1xx_HAL_Driver/Src/stm32f1xx_hal_dma.c ****       break;
 2361              		.loc 1 785 0
 2362 0058 0123     		movs	r3, #1
 2363 005a DCE7     		b	.L339
 2364              		.cfi_endproc
 2365              	.LFE75:
 2367              		.section	.text.HAL_DMA_GetState,"ax",%progbits
 2368              		.align	1
 2369              		.p2align 2,,3
 2370              		.global	HAL_DMA_GetState
 2371              		.syntax unified
 2372              		.thumb
 2373              		.thumb_func
 2374              		.fpu softvfp
 2376              	HAL_DMA_GetState:
 2377              	.LFB76:
 827:Drivers/STM32F1xx_HAL_Driver/Src/stm32f1xx_hal_dma.c ****   /* Return DMA handle state */
 2378              		.loc 1 827 0
 2379              		.cfi_startproc
 2380              		@ args = 0, pretend = 0, frame = 0
 2381              		@ frame_needed = 0, uses_anonymous_args = 0
 2382              		@ link register save eliminated.
 2383              	.LVL99:
 830:Drivers/STM32F1xx_HAL_Driver/Src/stm32f1xx_hal_dma.c **** 
 2384              		.loc 1 830 0
 2385 0000 90F82100 		ldrb	r0, [r0, #33]	@ zero_extendqisi2
 2386              	.LVL100:
 2387 0004 7047     		bx	lr
 2388              		.cfi_endproc
 2389              	.LFE76:
 2391 0006 00BF     		.section	.text.HAL_DMA_GetError,"ax",%progbits
 2392              		.align	1
 2393              		.p2align 2,,3
 2394              		.global	HAL_DMA_GetError
 2395              		.syntax unified
 2396              		.thumb
 2397              		.thumb_func
 2398              		.fpu softvfp
 2400              	HAL_DMA_GetError:
 2401              	.LFB77:
 839:Drivers/STM32F1xx_HAL_Driver/Src/stm32f1xx_hal_dma.c ****   return hdma->ErrorCode;
 2402              		.loc 1 839 0
 2403              		.cfi_startproc
ARM GAS  /tmp/ccUJvcf6.s 			page 67


 2404              		@ args = 0, pretend = 0, frame = 0
 2405              		@ frame_needed = 0, uses_anonymous_args = 0
 2406              		@ link register save eliminated.
 2407              	.LVL101:
 840:Drivers/STM32F1xx_HAL_Driver/Src/stm32f1xx_hal_dma.c **** }
 2408              		.loc 1 840 0
 2409 0000 806B     		ldr	r0, [r0, #56]
 2410              	.LVL102:
 841:Drivers/STM32F1xx_HAL_Driver/Src/stm32f1xx_hal_dma.c **** 
 2411              		.loc 1 841 0
 2412 0002 7047     		bx	lr
 2413              		.cfi_endproc
 2414              	.LFE77:
 2416              		.text
 2417              	.Letext0:
 2418              		.file 2 "/usr/local/gcc-arm-none-eabi-7-2018-q2-update/arm-none-eabi/include/machine/_default_type
 2419              		.file 3 "/usr/local/gcc-arm-none-eabi-7-2018-q2-update/arm-none-eabi/include/sys/_stdint.h"
 2420              		.file 4 "Drivers/CMSIS/Include/core_cm3.h"
 2421              		.file 5 "Drivers/CMSIS/Device/ST/STM32F1xx/Include/system_stm32f1xx.h"
 2422              		.file 6 "Drivers/CMSIS/Device/ST/STM32F1xx/Include/stm32f103xe.h"
 2423              		.file 7 "/usr/local/gcc-arm-none-eabi-7-2018-q2-update/arm-none-eabi/include/sys/lock.h"
 2424              		.file 8 "/usr/local/gcc-arm-none-eabi-7-2018-q2-update/arm-none-eabi/include/sys/_types.h"
 2425              		.file 9 "/usr/local/gcc-arm-none-eabi-7-2018-q2-update/lib/gcc/arm-none-eabi/7.3.1/include/stddef.
 2426              		.file 10 "/usr/local/gcc-arm-none-eabi-7-2018-q2-update/arm-none-eabi/include/sys/reent.h"
 2427              		.file 11 "Drivers/CMSIS/Device/ST/STM32F1xx/Include/stm32f1xx.h"
 2428              		.file 12 "Drivers/STM32F1xx_HAL_Driver/Inc/stm32f1xx_hal_def.h"
 2429              		.file 13 "Drivers/STM32F1xx_HAL_Driver/Inc/stm32f1xx_hal_dma.h"
 2430              		.file 14 "Drivers/STM32F1xx_HAL_Driver/Inc/stm32f1xx_hal.h"
ARM GAS  /tmp/ccUJvcf6.s 			page 68

