ARM GAS  /tmp/ccIpqr7A.s 			page 1


   1              		.cpu cortex-m3
   2              		.eabi_attribute 20, 1
   3              		.eabi_attribute 21, 1
   4              		.eabi_attribute 23, 3
   5              		.eabi_attribute 24, 1
   6              		.eabi_attribute 25, 1
   7              		.eabi_attribute 26, 1
   8              		.eabi_attribute 30, 2
   9              		.eabi_attribute 34, 1
  10              		.eabi_attribute 18, 4
  11              		.file	"stm32f1xx_hal_tim.c"
  12              		.text
  13              	.Ltext0:
  14              		.cfi_sections	.debug_frame
  15              		.section	.text.HAL_TIM_Base_MspInit,"ax",%progbits
  16              		.align	1
  17              		.p2align 2,,3
  18              		.weak	HAL_TIM_Base_MspInit
  19              		.syntax unified
  20              		.thumb
  21              		.thumb_func
  22              		.fpu softvfp
  24              	HAL_TIM_Base_MspInit:
  25              	.LFB68:
  26              		.file 1 "Drivers/STM32F1xx_HAL_Driver/Src/stm32f1xx_hal_tim.c"
   1:Drivers/STM32F1xx_HAL_Driver/Src/stm32f1xx_hal_tim.c **** /**
   2:Drivers/STM32F1xx_HAL_Driver/Src/stm32f1xx_hal_tim.c ****   ******************************************************************************
   3:Drivers/STM32F1xx_HAL_Driver/Src/stm32f1xx_hal_tim.c ****   * @file    stm32f1xx_hal_tim.c
   4:Drivers/STM32F1xx_HAL_Driver/Src/stm32f1xx_hal_tim.c ****   * @author  MCD Application Team
   5:Drivers/STM32F1xx_HAL_Driver/Src/stm32f1xx_hal_tim.c ****   * @version V1.1.1
   6:Drivers/STM32F1xx_HAL_Driver/Src/stm32f1xx_hal_tim.c ****   * @date    12-May-2017
   7:Drivers/STM32F1xx_HAL_Driver/Src/stm32f1xx_hal_tim.c ****   * @brief   TIM HAL module driver
   8:Drivers/STM32F1xx_HAL_Driver/Src/stm32f1xx_hal_tim.c ****   *          This file provides firmware functions to manage the following 
   9:Drivers/STM32F1xx_HAL_Driver/Src/stm32f1xx_hal_tim.c ****   *          functionalities of the Timer (TIM) peripheral:
  10:Drivers/STM32F1xx_HAL_Driver/Src/stm32f1xx_hal_tim.c ****   *           + Time Base Initialization
  11:Drivers/STM32F1xx_HAL_Driver/Src/stm32f1xx_hal_tim.c ****   *           + Time Base Start
  12:Drivers/STM32F1xx_HAL_Driver/Src/stm32f1xx_hal_tim.c ****   *           + Time Base Start Interruption
  13:Drivers/STM32F1xx_HAL_Driver/Src/stm32f1xx_hal_tim.c ****   *           + Time Base Start DMA
  14:Drivers/STM32F1xx_HAL_Driver/Src/stm32f1xx_hal_tim.c ****   *           + Time Output Compare/PWM Initialization
  15:Drivers/STM32F1xx_HAL_Driver/Src/stm32f1xx_hal_tim.c ****   *           + Time Output Compare/PWM Channel Configuration
  16:Drivers/STM32F1xx_HAL_Driver/Src/stm32f1xx_hal_tim.c ****   *           + Time Output Compare/PWM  Start
  17:Drivers/STM32F1xx_HAL_Driver/Src/stm32f1xx_hal_tim.c ****   *           + Time Output Compare/PWM  Start Interruption
  18:Drivers/STM32F1xx_HAL_Driver/Src/stm32f1xx_hal_tim.c ****   *           + Time Output Compare/PWM Start DMA
  19:Drivers/STM32F1xx_HAL_Driver/Src/stm32f1xx_hal_tim.c ****   *           + Time Input Capture Initialization
  20:Drivers/STM32F1xx_HAL_Driver/Src/stm32f1xx_hal_tim.c ****   *           + Time Input Capture Channel Configuration
  21:Drivers/STM32F1xx_HAL_Driver/Src/stm32f1xx_hal_tim.c ****   *           + Time Input Capture Start
  22:Drivers/STM32F1xx_HAL_Driver/Src/stm32f1xx_hal_tim.c ****   *           + Time Input Capture Start Interruption 
  23:Drivers/STM32F1xx_HAL_Driver/Src/stm32f1xx_hal_tim.c ****   *           + Time Input Capture Start DMA
  24:Drivers/STM32F1xx_HAL_Driver/Src/stm32f1xx_hal_tim.c ****   *           + Time One Pulse Initialization
  25:Drivers/STM32F1xx_HAL_Driver/Src/stm32f1xx_hal_tim.c ****   *           + Time One Pulse Channel Configuration
  26:Drivers/STM32F1xx_HAL_Driver/Src/stm32f1xx_hal_tim.c ****   *           + Time One Pulse Start 
  27:Drivers/STM32F1xx_HAL_Driver/Src/stm32f1xx_hal_tim.c ****   *           + Time Encoder Interface Initialization
  28:Drivers/STM32F1xx_HAL_Driver/Src/stm32f1xx_hal_tim.c ****   *           + Time Encoder Interface Start
  29:Drivers/STM32F1xx_HAL_Driver/Src/stm32f1xx_hal_tim.c ****   *           + Time Encoder Interface Start Interruption
  30:Drivers/STM32F1xx_HAL_Driver/Src/stm32f1xx_hal_tim.c ****   *           + Time Encoder Interface Start DMA
  31:Drivers/STM32F1xx_HAL_Driver/Src/stm32f1xx_hal_tim.c ****   *           + Commutation Event configuration with Interruption and DMA
  32:Drivers/STM32F1xx_HAL_Driver/Src/stm32f1xx_hal_tim.c ****   *           + Time OCRef clear configuration
ARM GAS  /tmp/ccIpqr7A.s 			page 2


  33:Drivers/STM32F1xx_HAL_Driver/Src/stm32f1xx_hal_tim.c ****   *           + Time External Clock configuration
  34:Drivers/STM32F1xx_HAL_Driver/Src/stm32f1xx_hal_tim.c ****   @verbatim
  35:Drivers/STM32F1xx_HAL_Driver/Src/stm32f1xx_hal_tim.c ****   ==============================================================================
  36:Drivers/STM32F1xx_HAL_Driver/Src/stm32f1xx_hal_tim.c ****                       ##### TIMER Generic features #####
  37:Drivers/STM32F1xx_HAL_Driver/Src/stm32f1xx_hal_tim.c ****   ==============================================================================
  38:Drivers/STM32F1xx_HAL_Driver/Src/stm32f1xx_hal_tim.c ****   [..] The Timer features include:
  39:Drivers/STM32F1xx_HAL_Driver/Src/stm32f1xx_hal_tim.c ****        (#) 16-bit up, down, up/down auto-reload counter.
  40:Drivers/STM32F1xx_HAL_Driver/Src/stm32f1xx_hal_tim.c ****        (#) 16-bit programmable prescaler allowing dividing (also on the fly) the 
  41:Drivers/STM32F1xx_HAL_Driver/Src/stm32f1xx_hal_tim.c ****            counter clock frequency either by any factor between 1 and 65536.
  42:Drivers/STM32F1xx_HAL_Driver/Src/stm32f1xx_hal_tim.c ****        (#) Up to 4 independent channels for:
  43:Drivers/STM32F1xx_HAL_Driver/Src/stm32f1xx_hal_tim.c ****            (++) Input Capture
  44:Drivers/STM32F1xx_HAL_Driver/Src/stm32f1xx_hal_tim.c ****            (++) Output Compare
  45:Drivers/STM32F1xx_HAL_Driver/Src/stm32f1xx_hal_tim.c ****            (++) PWM generation (Edge and Center-aligned Mode)
  46:Drivers/STM32F1xx_HAL_Driver/Src/stm32f1xx_hal_tim.c ****            (++) One-pulse mode output 
  47:Drivers/STM32F1xx_HAL_Driver/Src/stm32f1xx_hal_tim.c **** 
  48:Drivers/STM32F1xx_HAL_Driver/Src/stm32f1xx_hal_tim.c ****             ##### How to use this driver #####
  49:Drivers/STM32F1xx_HAL_Driver/Src/stm32f1xx_hal_tim.c ****   ==============================================================================
  50:Drivers/STM32F1xx_HAL_Driver/Src/stm32f1xx_hal_tim.c ****     [..]
  51:Drivers/STM32F1xx_HAL_Driver/Src/stm32f1xx_hal_tim.c ****      (#) Initialize the TIM low level resources by implementing the following functions 
  52:Drivers/STM32F1xx_HAL_Driver/Src/stm32f1xx_hal_tim.c ****          depending from feature used :
  53:Drivers/STM32F1xx_HAL_Driver/Src/stm32f1xx_hal_tim.c ****            (++) Time Base : HAL_TIM_Base_MspInit()
  54:Drivers/STM32F1xx_HAL_Driver/Src/stm32f1xx_hal_tim.c ****            (++) Input Capture : HAL_TIM_IC_MspInit()
  55:Drivers/STM32F1xx_HAL_Driver/Src/stm32f1xx_hal_tim.c ****            (++) Output Compare : HAL_TIM_OC_MspInit()
  56:Drivers/STM32F1xx_HAL_Driver/Src/stm32f1xx_hal_tim.c ****            (++) PWM generation : HAL_TIM_PWM_MspInit()
  57:Drivers/STM32F1xx_HAL_Driver/Src/stm32f1xx_hal_tim.c ****            (++) One-pulse mode output : HAL_TIM_OnePulse_MspInit()
  58:Drivers/STM32F1xx_HAL_Driver/Src/stm32f1xx_hal_tim.c ****            (++) Encoder mode output : HAL_TIM_Encoder_MspInit()
  59:Drivers/STM32F1xx_HAL_Driver/Src/stm32f1xx_hal_tim.c **** 
  60:Drivers/STM32F1xx_HAL_Driver/Src/stm32f1xx_hal_tim.c ****      (#) Initialize the TIM low level resources :
  61:Drivers/STM32F1xx_HAL_Driver/Src/stm32f1xx_hal_tim.c ****         (##) Enable the TIM interface clock using __HAL_RCC_TIMx_CLK_ENABLE();
  62:Drivers/STM32F1xx_HAL_Driver/Src/stm32f1xx_hal_tim.c ****         (##) TIM pins configuration
  63:Drivers/STM32F1xx_HAL_Driver/Src/stm32f1xx_hal_tim.c ****             (+++) Enable the clock for the TIM GPIOs using the following function:
  64:Drivers/STM32F1xx_HAL_Driver/Src/stm32f1xx_hal_tim.c ****              __HAL_RCC_GPIOx_CLK_ENABLE();
  65:Drivers/STM32F1xx_HAL_Driver/Src/stm32f1xx_hal_tim.c ****             (+++) Configure these TIM pins in Alternate function mode using HAL_GPIO_Init();
  66:Drivers/STM32F1xx_HAL_Driver/Src/stm32f1xx_hal_tim.c **** 
  67:Drivers/STM32F1xx_HAL_Driver/Src/stm32f1xx_hal_tim.c ****      (#) The external Clock can be configured, if needed (the default clock is the 
  68:Drivers/STM32F1xx_HAL_Driver/Src/stm32f1xx_hal_tim.c ****          internal clock from the APBx), using the following function:
  69:Drivers/STM32F1xx_HAL_Driver/Src/stm32f1xx_hal_tim.c ****          HAL_TIM_ConfigClockSource, the clock configuration should be done before 
  70:Drivers/STM32F1xx_HAL_Driver/Src/stm32f1xx_hal_tim.c ****          any start function.
  71:Drivers/STM32F1xx_HAL_Driver/Src/stm32f1xx_hal_tim.c **** 
  72:Drivers/STM32F1xx_HAL_Driver/Src/stm32f1xx_hal_tim.c ****      (#) Configure the TIM in the desired functioning mode using one of the 
  73:Drivers/STM32F1xx_HAL_Driver/Src/stm32f1xx_hal_tim.c ****        Initialization function of this driver:
  74:Drivers/STM32F1xx_HAL_Driver/Src/stm32f1xx_hal_tim.c ****        (++) HAL_TIM_Base_Init: to use the Timer to generate a simple time base
  75:Drivers/STM32F1xx_HAL_Driver/Src/stm32f1xx_hal_tim.c ****        (++) HAL_TIM_OC_Init and HAL_TIM_OC_ConfigChannel: to use the Timer to generate an 
  76:Drivers/STM32F1xx_HAL_Driver/Src/stm32f1xx_hal_tim.c ****             Output Compare signal.
  77:Drivers/STM32F1xx_HAL_Driver/Src/stm32f1xx_hal_tim.c ****        (++) HAL_TIM_PWM_Init and HAL_TIM_PWM_ConfigChannel: to use the Timer to generate a 
  78:Drivers/STM32F1xx_HAL_Driver/Src/stm32f1xx_hal_tim.c ****             PWM signal.
  79:Drivers/STM32F1xx_HAL_Driver/Src/stm32f1xx_hal_tim.c ****        (++) HAL_TIM_IC_Init and HAL_TIM_IC_ConfigChannel: to use the Timer to measure an 
  80:Drivers/STM32F1xx_HAL_Driver/Src/stm32f1xx_hal_tim.c ****             external signal.
  81:Drivers/STM32F1xx_HAL_Driver/Src/stm32f1xx_hal_tim.c ****          (++) HAL_TIM_OnePulse_Init and HAL_TIM_OnePulse_ConfigChannel: to use the Timer 
  82:Drivers/STM32F1xx_HAL_Driver/Src/stm32f1xx_hal_tim.c ****               in One Pulse Mode.
  83:Drivers/STM32F1xx_HAL_Driver/Src/stm32f1xx_hal_tim.c ****        (++) HAL_TIM_Encoder_Init: to use the Timer Encoder Interface.
  84:Drivers/STM32F1xx_HAL_Driver/Src/stm32f1xx_hal_tim.c **** 
  85:Drivers/STM32F1xx_HAL_Driver/Src/stm32f1xx_hal_tim.c ****      (#) Activate the TIM peripheral using one of the start functions depending from the feature us
  86:Drivers/STM32F1xx_HAL_Driver/Src/stm32f1xx_hal_tim.c ****            (++) Time Base : HAL_TIM_Base_Start(), HAL_TIM_Base_Start_DMA(), HAL_TIM_Base_Start_IT()
  87:Drivers/STM32F1xx_HAL_Driver/Src/stm32f1xx_hal_tim.c ****            (++) Input Capture :  HAL_TIM_IC_Start(), HAL_TIM_IC_Start_DMA(), HAL_TIM_IC_Start_IT()
  88:Drivers/STM32F1xx_HAL_Driver/Src/stm32f1xx_hal_tim.c ****            (++) Output Compare : HAL_TIM_OC_Start(), HAL_TIM_OC_Start_DMA(), HAL_TIM_OC_Start_IT()
  89:Drivers/STM32F1xx_HAL_Driver/Src/stm32f1xx_hal_tim.c ****            (++) PWM generation : HAL_TIM_PWM_Start(), HAL_TIM_PWM_Start_DMA(), HAL_TIM_PWM_Start_IT
ARM GAS  /tmp/ccIpqr7A.s 			page 3


  90:Drivers/STM32F1xx_HAL_Driver/Src/stm32f1xx_hal_tim.c ****            (++) One-pulse mode output : HAL_TIM_OnePulse_Start(), HAL_TIM_OnePulse_Start_IT()
  91:Drivers/STM32F1xx_HAL_Driver/Src/stm32f1xx_hal_tim.c ****            (++) Encoder mode output : HAL_TIM_Encoder_Start(), HAL_TIM_Encoder_Start_DMA(), HAL_TIM
  92:Drivers/STM32F1xx_HAL_Driver/Src/stm32f1xx_hal_tim.c **** 
  93:Drivers/STM32F1xx_HAL_Driver/Src/stm32f1xx_hal_tim.c ****      (#) The DMA Burst is managed with the two following functions:
  94:Drivers/STM32F1xx_HAL_Driver/Src/stm32f1xx_hal_tim.c ****          HAL_TIM_DMABurst_WriteStart()
  95:Drivers/STM32F1xx_HAL_Driver/Src/stm32f1xx_hal_tim.c ****          HAL_TIM_DMABurst_ReadStart()
  96:Drivers/STM32F1xx_HAL_Driver/Src/stm32f1xx_hal_tim.c **** 
  97:Drivers/STM32F1xx_HAL_Driver/Src/stm32f1xx_hal_tim.c ****   @endverbatim
  98:Drivers/STM32F1xx_HAL_Driver/Src/stm32f1xx_hal_tim.c ****   ******************************************************************************
  99:Drivers/STM32F1xx_HAL_Driver/Src/stm32f1xx_hal_tim.c ****   * @attention
 100:Drivers/STM32F1xx_HAL_Driver/Src/stm32f1xx_hal_tim.c ****   *
 101:Drivers/STM32F1xx_HAL_Driver/Src/stm32f1xx_hal_tim.c ****   * <h2><center>&copy; COPYRIGHT(c) 2016 STMicroelectronics</center></h2>
 102:Drivers/STM32F1xx_HAL_Driver/Src/stm32f1xx_hal_tim.c ****   *
 103:Drivers/STM32F1xx_HAL_Driver/Src/stm32f1xx_hal_tim.c ****   * Redistribution and use in source and binary forms, with or without modification,
 104:Drivers/STM32F1xx_HAL_Driver/Src/stm32f1xx_hal_tim.c ****   * are permitted provided that the following conditions are met:
 105:Drivers/STM32F1xx_HAL_Driver/Src/stm32f1xx_hal_tim.c ****   *   1. Redistributions of source code must retain the above copyright notice,
 106:Drivers/STM32F1xx_HAL_Driver/Src/stm32f1xx_hal_tim.c ****   *      this list of conditions and the following disclaimer.
 107:Drivers/STM32F1xx_HAL_Driver/Src/stm32f1xx_hal_tim.c ****   *   2. Redistributions in binary form must reproduce the above copyright notice,
 108:Drivers/STM32F1xx_HAL_Driver/Src/stm32f1xx_hal_tim.c ****   *      this list of conditions and the following disclaimer in the documentation
 109:Drivers/STM32F1xx_HAL_Driver/Src/stm32f1xx_hal_tim.c ****   *      and/or other materials provided with the distribution.
 110:Drivers/STM32F1xx_HAL_Driver/Src/stm32f1xx_hal_tim.c ****   *   3. Neither the name of STMicroelectronics nor the names of its contributors
 111:Drivers/STM32F1xx_HAL_Driver/Src/stm32f1xx_hal_tim.c ****   *      may be used to endorse or promote products derived from this software
 112:Drivers/STM32F1xx_HAL_Driver/Src/stm32f1xx_hal_tim.c ****   *      without specific prior written permission.
 113:Drivers/STM32F1xx_HAL_Driver/Src/stm32f1xx_hal_tim.c ****   *
 114:Drivers/STM32F1xx_HAL_Driver/Src/stm32f1xx_hal_tim.c ****   * THIS SOFTWARE IS PROVIDED BY THE COPYRIGHT HOLDERS AND CONTRIBUTORS "AS IS"
 115:Drivers/STM32F1xx_HAL_Driver/Src/stm32f1xx_hal_tim.c ****   * AND ANY EXPRESS OR IMPLIED WARRANTIES, INCLUDING, BUT NOT LIMITED TO, THE
 116:Drivers/STM32F1xx_HAL_Driver/Src/stm32f1xx_hal_tim.c ****   * IMPLIED WARRANTIES OF MERCHANTABILITY AND FITNESS FOR A PARTICULAR PURPOSE ARE
 117:Drivers/STM32F1xx_HAL_Driver/Src/stm32f1xx_hal_tim.c ****   * DISCLAIMED. IN NO EVENT SHALL THE COPYRIGHT HOLDER OR CONTRIBUTORS BE LIABLE
 118:Drivers/STM32F1xx_HAL_Driver/Src/stm32f1xx_hal_tim.c ****   * FOR ANY DIRECT, INDIRECT, INCIDENTAL, SPECIAL, EXEMPLARY, OR CONSEQUENTIAL
 119:Drivers/STM32F1xx_HAL_Driver/Src/stm32f1xx_hal_tim.c ****   * DAMAGES (INCLUDING, BUT NOT LIMITED TO, PROCUREMENT OF SUBSTITUTE GOODS OR
 120:Drivers/STM32F1xx_HAL_Driver/Src/stm32f1xx_hal_tim.c ****   * SERVICES; LOSS OF USE, DATA, OR PROFITS; OR BUSINESS INTERRUPTION) HOWEVER
 121:Drivers/STM32F1xx_HAL_Driver/Src/stm32f1xx_hal_tim.c ****   * CAUSED AND ON ANY THEORY OF LIABILITY, WHETHER IN CONTRACT, STRICT LIABILITY,
 122:Drivers/STM32F1xx_HAL_Driver/Src/stm32f1xx_hal_tim.c ****   * OR TORT (INCLUDING NEGLIGENCE OR OTHERWISE) ARISING IN ANY WAY OUT OF THE USE
 123:Drivers/STM32F1xx_HAL_Driver/Src/stm32f1xx_hal_tim.c ****   * OF THIS SOFTWARE, EVEN IF ADVISED OF THE POSSIBILITY OF SUCH DAMAGE.
 124:Drivers/STM32F1xx_HAL_Driver/Src/stm32f1xx_hal_tim.c ****   *
 125:Drivers/STM32F1xx_HAL_Driver/Src/stm32f1xx_hal_tim.c ****   ******************************************************************************
 126:Drivers/STM32F1xx_HAL_Driver/Src/stm32f1xx_hal_tim.c ****   */
 127:Drivers/STM32F1xx_HAL_Driver/Src/stm32f1xx_hal_tim.c **** 
 128:Drivers/STM32F1xx_HAL_Driver/Src/stm32f1xx_hal_tim.c **** /* Includes ------------------------------------------------------------------*/
 129:Drivers/STM32F1xx_HAL_Driver/Src/stm32f1xx_hal_tim.c **** #include "stm32f1xx_hal.h"
 130:Drivers/STM32F1xx_HAL_Driver/Src/stm32f1xx_hal_tim.c **** 
 131:Drivers/STM32F1xx_HAL_Driver/Src/stm32f1xx_hal_tim.c **** /** @addtogroup STM32F1xx_HAL_Driver
 132:Drivers/STM32F1xx_HAL_Driver/Src/stm32f1xx_hal_tim.c ****   * @{
 133:Drivers/STM32F1xx_HAL_Driver/Src/stm32f1xx_hal_tim.c ****   */
 134:Drivers/STM32F1xx_HAL_Driver/Src/stm32f1xx_hal_tim.c **** 
 135:Drivers/STM32F1xx_HAL_Driver/Src/stm32f1xx_hal_tim.c **** /** @defgroup TIM TIM
 136:Drivers/STM32F1xx_HAL_Driver/Src/stm32f1xx_hal_tim.c ****   * @brief TIM HAL module driver
 137:Drivers/STM32F1xx_HAL_Driver/Src/stm32f1xx_hal_tim.c ****   * @{
 138:Drivers/STM32F1xx_HAL_Driver/Src/stm32f1xx_hal_tim.c ****   */
 139:Drivers/STM32F1xx_HAL_Driver/Src/stm32f1xx_hal_tim.c **** 
 140:Drivers/STM32F1xx_HAL_Driver/Src/stm32f1xx_hal_tim.c **** #ifdef HAL_TIM_MODULE_ENABLED
 141:Drivers/STM32F1xx_HAL_Driver/Src/stm32f1xx_hal_tim.c **** 
 142:Drivers/STM32F1xx_HAL_Driver/Src/stm32f1xx_hal_tim.c **** /* Private typedef -----------------------------------------------------------*/
 143:Drivers/STM32F1xx_HAL_Driver/Src/stm32f1xx_hal_tim.c **** /* Private define ------------------------------------------------------------*/
 144:Drivers/STM32F1xx_HAL_Driver/Src/stm32f1xx_hal_tim.c **** /* Private macro -------------------------------------------------------------*/
 145:Drivers/STM32F1xx_HAL_Driver/Src/stm32f1xx_hal_tim.c **** /* Private variables ---------------------------------------------------------*/
 146:Drivers/STM32F1xx_HAL_Driver/Src/stm32f1xx_hal_tim.c **** /* Private function prototypes -----------------------------------------------*/
ARM GAS  /tmp/ccIpqr7A.s 			page 4


 147:Drivers/STM32F1xx_HAL_Driver/Src/stm32f1xx_hal_tim.c **** /** @defgroup TIM_Private_Functions TIM Private Functions
 148:Drivers/STM32F1xx_HAL_Driver/Src/stm32f1xx_hal_tim.c ****   * @{
 149:Drivers/STM32F1xx_HAL_Driver/Src/stm32f1xx_hal_tim.c ****   */
 150:Drivers/STM32F1xx_HAL_Driver/Src/stm32f1xx_hal_tim.c **** static void TIM_OC1_SetConfig(TIM_TypeDef *TIMx, TIM_OC_InitTypeDef *OC_Config);
 151:Drivers/STM32F1xx_HAL_Driver/Src/stm32f1xx_hal_tim.c **** static void TIM_OC3_SetConfig(TIM_TypeDef *TIMx, TIM_OC_InitTypeDef *OC_Config);
 152:Drivers/STM32F1xx_HAL_Driver/Src/stm32f1xx_hal_tim.c **** static void TIM_OC4_SetConfig(TIM_TypeDef *TIMx, TIM_OC_InitTypeDef *OC_Config);
 153:Drivers/STM32F1xx_HAL_Driver/Src/stm32f1xx_hal_tim.c **** static void TIM_TI1_ConfigInputStage(TIM_TypeDef *TIMx, uint32_t TIM_ICPolarity, uint32_t TIM_ICFil
 154:Drivers/STM32F1xx_HAL_Driver/Src/stm32f1xx_hal_tim.c **** static void TIM_TI2_SetConfig(TIM_TypeDef *TIMx, uint32_t TIM_ICPolarity, uint32_t TIM_ICSelection,
 155:Drivers/STM32F1xx_HAL_Driver/Src/stm32f1xx_hal_tim.c ****                        uint32_t TIM_ICFilter);
 156:Drivers/STM32F1xx_HAL_Driver/Src/stm32f1xx_hal_tim.c **** static void TIM_TI2_ConfigInputStage(TIM_TypeDef *TIMx, uint32_t TIM_ICPolarity, uint32_t TIM_ICFil
 157:Drivers/STM32F1xx_HAL_Driver/Src/stm32f1xx_hal_tim.c **** static void TIM_TI3_SetConfig(TIM_TypeDef *TIMx, uint32_t TIM_ICPolarity, uint32_t TIM_ICSelection,
 158:Drivers/STM32F1xx_HAL_Driver/Src/stm32f1xx_hal_tim.c ****                        uint32_t TIM_ICFilter);
 159:Drivers/STM32F1xx_HAL_Driver/Src/stm32f1xx_hal_tim.c **** static void TIM_TI4_SetConfig(TIM_TypeDef *TIMx, uint32_t TIM_ICPolarity, uint32_t TIM_ICSelection,
 160:Drivers/STM32F1xx_HAL_Driver/Src/stm32f1xx_hal_tim.c ****                        uint32_t TIM_ICFilter);
 161:Drivers/STM32F1xx_HAL_Driver/Src/stm32f1xx_hal_tim.c **** static void TIM_ETR_SetConfig(TIM_TypeDef* TIMx, uint32_t TIM_ExtTRGPrescaler,
 162:Drivers/STM32F1xx_HAL_Driver/Src/stm32f1xx_hal_tim.c ****                        uint32_t TIM_ExtTRGPolarity, uint32_t ExtTRGFilter);
 163:Drivers/STM32F1xx_HAL_Driver/Src/stm32f1xx_hal_tim.c **** static void TIM_ITRx_SetConfig(TIM_TypeDef* TIMx, uint16_t InputTriggerSource);
 164:Drivers/STM32F1xx_HAL_Driver/Src/stm32f1xx_hal_tim.c **** static void TIM_DMAPeriodElapsedCplt(DMA_HandleTypeDef *hdma);
 165:Drivers/STM32F1xx_HAL_Driver/Src/stm32f1xx_hal_tim.c **** static void TIM_DMATriggerCplt(DMA_HandleTypeDef *hdma);
 166:Drivers/STM32F1xx_HAL_Driver/Src/stm32f1xx_hal_tim.c **** static void TIM_SlaveTimer_SetConfig(TIM_HandleTypeDef *htim,
 167:Drivers/STM32F1xx_HAL_Driver/Src/stm32f1xx_hal_tim.c ****                                      TIM_SlaveConfigTypeDef * sSlaveConfig);
 168:Drivers/STM32F1xx_HAL_Driver/Src/stm32f1xx_hal_tim.c **** 
 169:Drivers/STM32F1xx_HAL_Driver/Src/stm32f1xx_hal_tim.c **** /**
 170:Drivers/STM32F1xx_HAL_Driver/Src/stm32f1xx_hal_tim.c ****   * @}
 171:Drivers/STM32F1xx_HAL_Driver/Src/stm32f1xx_hal_tim.c ****   */
 172:Drivers/STM32F1xx_HAL_Driver/Src/stm32f1xx_hal_tim.c **** 
 173:Drivers/STM32F1xx_HAL_Driver/Src/stm32f1xx_hal_tim.c **** /* Exported functions ---------------------------------------------------------*/
 174:Drivers/STM32F1xx_HAL_Driver/Src/stm32f1xx_hal_tim.c **** 
 175:Drivers/STM32F1xx_HAL_Driver/Src/stm32f1xx_hal_tim.c **** /** @defgroup TIM_Exported_Functions TIM Exported Functions
 176:Drivers/STM32F1xx_HAL_Driver/Src/stm32f1xx_hal_tim.c ****   * @{
 177:Drivers/STM32F1xx_HAL_Driver/Src/stm32f1xx_hal_tim.c ****   */
 178:Drivers/STM32F1xx_HAL_Driver/Src/stm32f1xx_hal_tim.c **** 
 179:Drivers/STM32F1xx_HAL_Driver/Src/stm32f1xx_hal_tim.c **** /** @defgroup TIM_Exported_Functions_Group1 Time Base functions 
 180:Drivers/STM32F1xx_HAL_Driver/Src/stm32f1xx_hal_tim.c ****  *  @brief    Time Base functions 
 181:Drivers/STM32F1xx_HAL_Driver/Src/stm32f1xx_hal_tim.c ****  *
 182:Drivers/STM32F1xx_HAL_Driver/Src/stm32f1xx_hal_tim.c **** @verbatim 
 183:Drivers/STM32F1xx_HAL_Driver/Src/stm32f1xx_hal_tim.c ****   ==============================================================================
 184:Drivers/STM32F1xx_HAL_Driver/Src/stm32f1xx_hal_tim.c ****               ##### Time Base functions #####
 185:Drivers/STM32F1xx_HAL_Driver/Src/stm32f1xx_hal_tim.c ****   ==============================================================================
 186:Drivers/STM32F1xx_HAL_Driver/Src/stm32f1xx_hal_tim.c ****   [..]
 187:Drivers/STM32F1xx_HAL_Driver/Src/stm32f1xx_hal_tim.c ****     This section provides functions allowing to:
 188:Drivers/STM32F1xx_HAL_Driver/Src/stm32f1xx_hal_tim.c ****     (+) Initialize and configure the TIM base.
 189:Drivers/STM32F1xx_HAL_Driver/Src/stm32f1xx_hal_tim.c ****     (+) De-initialize the TIM base.
 190:Drivers/STM32F1xx_HAL_Driver/Src/stm32f1xx_hal_tim.c ****     (+) Start the Time Base.
 191:Drivers/STM32F1xx_HAL_Driver/Src/stm32f1xx_hal_tim.c ****     (+) Stop the Time Base.
 192:Drivers/STM32F1xx_HAL_Driver/Src/stm32f1xx_hal_tim.c ****     (+) Start the Time Base and enable interrupt.
 193:Drivers/STM32F1xx_HAL_Driver/Src/stm32f1xx_hal_tim.c ****     (+) Stop the Time Base and disable interrupt.
 194:Drivers/STM32F1xx_HAL_Driver/Src/stm32f1xx_hal_tim.c ****     (+) Start the Time Base and enable DMA transfer.
 195:Drivers/STM32F1xx_HAL_Driver/Src/stm32f1xx_hal_tim.c ****     (+) Stop the Time Base and disable DMA transfer.
 196:Drivers/STM32F1xx_HAL_Driver/Src/stm32f1xx_hal_tim.c **** 
 197:Drivers/STM32F1xx_HAL_Driver/Src/stm32f1xx_hal_tim.c **** @endverbatim
 198:Drivers/STM32F1xx_HAL_Driver/Src/stm32f1xx_hal_tim.c ****   * @{
 199:Drivers/STM32F1xx_HAL_Driver/Src/stm32f1xx_hal_tim.c ****   */
 200:Drivers/STM32F1xx_HAL_Driver/Src/stm32f1xx_hal_tim.c **** /**
 201:Drivers/STM32F1xx_HAL_Driver/Src/stm32f1xx_hal_tim.c ****   * @brief  Initializes the TIM Time base Unit according to the specified
 202:Drivers/STM32F1xx_HAL_Driver/Src/stm32f1xx_hal_tim.c ****   *         parameters in the TIM_HandleTypeDef and create the associated handle.
 203:Drivers/STM32F1xx_HAL_Driver/Src/stm32f1xx_hal_tim.c ****   * @param  htim : TIM Base handle
ARM GAS  /tmp/ccIpqr7A.s 			page 5


 204:Drivers/STM32F1xx_HAL_Driver/Src/stm32f1xx_hal_tim.c ****   * @retval HAL status
 205:Drivers/STM32F1xx_HAL_Driver/Src/stm32f1xx_hal_tim.c ****   */
 206:Drivers/STM32F1xx_HAL_Driver/Src/stm32f1xx_hal_tim.c **** HAL_StatusTypeDef HAL_TIM_Base_Init(TIM_HandleTypeDef *htim)
 207:Drivers/STM32F1xx_HAL_Driver/Src/stm32f1xx_hal_tim.c **** {
 208:Drivers/STM32F1xx_HAL_Driver/Src/stm32f1xx_hal_tim.c ****   /* Check the TIM handle allocation */
 209:Drivers/STM32F1xx_HAL_Driver/Src/stm32f1xx_hal_tim.c ****   if(htim == NULL)
 210:Drivers/STM32F1xx_HAL_Driver/Src/stm32f1xx_hal_tim.c ****   {
 211:Drivers/STM32F1xx_HAL_Driver/Src/stm32f1xx_hal_tim.c ****     return HAL_ERROR;
 212:Drivers/STM32F1xx_HAL_Driver/Src/stm32f1xx_hal_tim.c ****   }
 213:Drivers/STM32F1xx_HAL_Driver/Src/stm32f1xx_hal_tim.c **** 
 214:Drivers/STM32F1xx_HAL_Driver/Src/stm32f1xx_hal_tim.c ****   /* Check the parameters */
 215:Drivers/STM32F1xx_HAL_Driver/Src/stm32f1xx_hal_tim.c ****   assert_param(IS_TIM_INSTANCE(htim->Instance));
 216:Drivers/STM32F1xx_HAL_Driver/Src/stm32f1xx_hal_tim.c ****   assert_param(IS_TIM_COUNTER_MODE(htim->Init.CounterMode));
 217:Drivers/STM32F1xx_HAL_Driver/Src/stm32f1xx_hal_tim.c ****   assert_param(IS_TIM_CLOCKDIVISION_DIV(htim->Init.ClockDivision));
 218:Drivers/STM32F1xx_HAL_Driver/Src/stm32f1xx_hal_tim.c ****   assert_param(IS_TIM_AUTORELOAD_PRELOAD(htim->Init.AutoReloadPreload));
 219:Drivers/STM32F1xx_HAL_Driver/Src/stm32f1xx_hal_tim.c **** 
 220:Drivers/STM32F1xx_HAL_Driver/Src/stm32f1xx_hal_tim.c ****   if(htim->State == HAL_TIM_STATE_RESET)
 221:Drivers/STM32F1xx_HAL_Driver/Src/stm32f1xx_hal_tim.c ****   {
 222:Drivers/STM32F1xx_HAL_Driver/Src/stm32f1xx_hal_tim.c ****     /* Allocate lock resource and initialize it */
 223:Drivers/STM32F1xx_HAL_Driver/Src/stm32f1xx_hal_tim.c ****     htim->Lock = HAL_UNLOCKED;
 224:Drivers/STM32F1xx_HAL_Driver/Src/stm32f1xx_hal_tim.c ****     
 225:Drivers/STM32F1xx_HAL_Driver/Src/stm32f1xx_hal_tim.c ****     /* Init the low level hardware : GPIO, CLOCK, NVIC */
 226:Drivers/STM32F1xx_HAL_Driver/Src/stm32f1xx_hal_tim.c ****     HAL_TIM_Base_MspInit(htim);
 227:Drivers/STM32F1xx_HAL_Driver/Src/stm32f1xx_hal_tim.c ****   }
 228:Drivers/STM32F1xx_HAL_Driver/Src/stm32f1xx_hal_tim.c **** 
 229:Drivers/STM32F1xx_HAL_Driver/Src/stm32f1xx_hal_tim.c ****   /* Set the TIM state */
 230:Drivers/STM32F1xx_HAL_Driver/Src/stm32f1xx_hal_tim.c ****   htim->State= HAL_TIM_STATE_BUSY;
 231:Drivers/STM32F1xx_HAL_Driver/Src/stm32f1xx_hal_tim.c **** 
 232:Drivers/STM32F1xx_HAL_Driver/Src/stm32f1xx_hal_tim.c ****   /* Set the Time Base configuration */
 233:Drivers/STM32F1xx_HAL_Driver/Src/stm32f1xx_hal_tim.c ****   TIM_Base_SetConfig(htim->Instance, &htim->Init);
 234:Drivers/STM32F1xx_HAL_Driver/Src/stm32f1xx_hal_tim.c **** 
 235:Drivers/STM32F1xx_HAL_Driver/Src/stm32f1xx_hal_tim.c ****   /* Initialize the TIM state*/
 236:Drivers/STM32F1xx_HAL_Driver/Src/stm32f1xx_hal_tim.c ****   htim->State= HAL_TIM_STATE_READY;
 237:Drivers/STM32F1xx_HAL_Driver/Src/stm32f1xx_hal_tim.c **** 
 238:Drivers/STM32F1xx_HAL_Driver/Src/stm32f1xx_hal_tim.c ****   return HAL_OK;
 239:Drivers/STM32F1xx_HAL_Driver/Src/stm32f1xx_hal_tim.c **** }
 240:Drivers/STM32F1xx_HAL_Driver/Src/stm32f1xx_hal_tim.c **** 
 241:Drivers/STM32F1xx_HAL_Driver/Src/stm32f1xx_hal_tim.c **** /**
 242:Drivers/STM32F1xx_HAL_Driver/Src/stm32f1xx_hal_tim.c ****   * @brief  DeInitializes the TIM Base peripheral 
 243:Drivers/STM32F1xx_HAL_Driver/Src/stm32f1xx_hal_tim.c ****   * @param  htim : TIM Base handle
 244:Drivers/STM32F1xx_HAL_Driver/Src/stm32f1xx_hal_tim.c ****   * @retval HAL status
 245:Drivers/STM32F1xx_HAL_Driver/Src/stm32f1xx_hal_tim.c ****   */
 246:Drivers/STM32F1xx_HAL_Driver/Src/stm32f1xx_hal_tim.c **** HAL_StatusTypeDef HAL_TIM_Base_DeInit(TIM_HandleTypeDef *htim)
 247:Drivers/STM32F1xx_HAL_Driver/Src/stm32f1xx_hal_tim.c **** {
 248:Drivers/STM32F1xx_HAL_Driver/Src/stm32f1xx_hal_tim.c ****   /* Check the parameters */
 249:Drivers/STM32F1xx_HAL_Driver/Src/stm32f1xx_hal_tim.c ****   assert_param(IS_TIM_INSTANCE(htim->Instance));
 250:Drivers/STM32F1xx_HAL_Driver/Src/stm32f1xx_hal_tim.c **** 
 251:Drivers/STM32F1xx_HAL_Driver/Src/stm32f1xx_hal_tim.c ****   htim->State = HAL_TIM_STATE_BUSY;
 252:Drivers/STM32F1xx_HAL_Driver/Src/stm32f1xx_hal_tim.c **** 
 253:Drivers/STM32F1xx_HAL_Driver/Src/stm32f1xx_hal_tim.c ****   /* Disable the TIM Peripheral Clock */
 254:Drivers/STM32F1xx_HAL_Driver/Src/stm32f1xx_hal_tim.c ****   __HAL_TIM_DISABLE(htim);
 255:Drivers/STM32F1xx_HAL_Driver/Src/stm32f1xx_hal_tim.c **** 
 256:Drivers/STM32F1xx_HAL_Driver/Src/stm32f1xx_hal_tim.c ****   /* DeInit the low level hardware: GPIO, CLOCK, NVIC */
 257:Drivers/STM32F1xx_HAL_Driver/Src/stm32f1xx_hal_tim.c ****   HAL_TIM_Base_MspDeInit(htim);
 258:Drivers/STM32F1xx_HAL_Driver/Src/stm32f1xx_hal_tim.c **** 
 259:Drivers/STM32F1xx_HAL_Driver/Src/stm32f1xx_hal_tim.c ****   /* Change TIM state */
 260:Drivers/STM32F1xx_HAL_Driver/Src/stm32f1xx_hal_tim.c ****   htim->State = HAL_TIM_STATE_RESET;
ARM GAS  /tmp/ccIpqr7A.s 			page 6


 261:Drivers/STM32F1xx_HAL_Driver/Src/stm32f1xx_hal_tim.c **** 
 262:Drivers/STM32F1xx_HAL_Driver/Src/stm32f1xx_hal_tim.c ****   /* Release Lock */
 263:Drivers/STM32F1xx_HAL_Driver/Src/stm32f1xx_hal_tim.c ****   __HAL_UNLOCK(htim);
 264:Drivers/STM32F1xx_HAL_Driver/Src/stm32f1xx_hal_tim.c **** 
 265:Drivers/STM32F1xx_HAL_Driver/Src/stm32f1xx_hal_tim.c ****   return HAL_OK;
 266:Drivers/STM32F1xx_HAL_Driver/Src/stm32f1xx_hal_tim.c **** }
 267:Drivers/STM32F1xx_HAL_Driver/Src/stm32f1xx_hal_tim.c **** 
 268:Drivers/STM32F1xx_HAL_Driver/Src/stm32f1xx_hal_tim.c **** /**
 269:Drivers/STM32F1xx_HAL_Driver/Src/stm32f1xx_hal_tim.c ****   * @brief  Initializes the TIM Base MSP.
 270:Drivers/STM32F1xx_HAL_Driver/Src/stm32f1xx_hal_tim.c ****   * @param  htim : TIM handle
 271:Drivers/STM32F1xx_HAL_Driver/Src/stm32f1xx_hal_tim.c ****   * @retval None
 272:Drivers/STM32F1xx_HAL_Driver/Src/stm32f1xx_hal_tim.c ****   */
 273:Drivers/STM32F1xx_HAL_Driver/Src/stm32f1xx_hal_tim.c **** __weak void HAL_TIM_Base_MspInit(TIM_HandleTypeDef *htim)
 274:Drivers/STM32F1xx_HAL_Driver/Src/stm32f1xx_hal_tim.c **** {
  27              		.loc 1 274 0
  28              		.cfi_startproc
  29              		@ args = 0, pretend = 0, frame = 0
  30              		@ frame_needed = 0, uses_anonymous_args = 0
  31              		@ link register save eliminated.
  32              	.LVL0:
 275:Drivers/STM32F1xx_HAL_Driver/Src/stm32f1xx_hal_tim.c ****   /* Prevent unused argument(s) compilation warning */
 276:Drivers/STM32F1xx_HAL_Driver/Src/stm32f1xx_hal_tim.c ****   UNUSED(htim);
 277:Drivers/STM32F1xx_HAL_Driver/Src/stm32f1xx_hal_tim.c ****   /* NOTE : This function Should not be modified, when the callback is needed,
 278:Drivers/STM32F1xx_HAL_Driver/Src/stm32f1xx_hal_tim.c ****             the HAL_TIM_Base_MspInit could be implemented in the user file
 279:Drivers/STM32F1xx_HAL_Driver/Src/stm32f1xx_hal_tim.c ****    */
 280:Drivers/STM32F1xx_HAL_Driver/Src/stm32f1xx_hal_tim.c **** }
  33              		.loc 1 280 0
  34 0000 7047     		bx	lr
  35              		.cfi_endproc
  36              	.LFE68:
  38 0002 00BF     		.section	.text.HAL_TIM_Base_Init,"ax",%progbits
  39              		.align	1
  40              		.p2align 2,,3
  41              		.global	HAL_TIM_Base_Init
  42              		.syntax unified
  43              		.thumb
  44              		.thumb_func
  45              		.fpu softvfp
  47              	HAL_TIM_Base_Init:
  48              	.LFB66:
 207:Drivers/STM32F1xx_HAL_Driver/Src/stm32f1xx_hal_tim.c ****   /* Check the TIM handle allocation */
  49              		.loc 1 207 0
  50              		.cfi_startproc
  51              		@ args = 0, pretend = 0, frame = 0
  52              		@ frame_needed = 0, uses_anonymous_args = 0
  53              	.LVL1:
 209:Drivers/STM32F1xx_HAL_Driver/Src/stm32f1xx_hal_tim.c ****   {
  54              		.loc 1 209 0
  55 0000 0028     		cmp	r0, #0
  56 0002 4ED0     		beq	.L16
 220:Drivers/STM32F1xx_HAL_Driver/Src/stm32f1xx_hal_tim.c ****   {
  57              		.loc 1 220 0
  58 0004 90F83D30 		ldrb	r3, [r0, #61]	@ zero_extendqisi2
 207:Drivers/STM32F1xx_HAL_Driver/Src/stm32f1xx_hal_tim.c ****   /* Check the TIM handle allocation */
  59              		.loc 1 207 0
  60 0008 70B5     		push	{r4, r5, r6, lr}
  61              	.LCFI0:
ARM GAS  /tmp/ccIpqr7A.s 			page 7


  62              		.cfi_def_cfa_offset 16
  63              		.cfi_offset 4, -16
  64              		.cfi_offset 5, -12
  65              		.cfi_offset 6, -8
  66              		.cfi_offset 14, -4
 220:Drivers/STM32F1xx_HAL_Driver/Src/stm32f1xx_hal_tim.c ****   {
  67              		.loc 1 220 0
  68 000a 03F0FF02 		and	r2, r3, #255
  69 000e 0446     		mov	r4, r0
  70 0010 63B3     		cbz	r3, .L24
  71              	.LVL2:
  72              	.L5:
 230:Drivers/STM32F1xx_HAL_Driver/Src/stm32f1xx_hal_tim.c **** 
  73              		.loc 1 230 0
  74 0012 0223     		movs	r3, #2
 233:Drivers/STM32F1xx_HAL_Driver/Src/stm32f1xx_hal_tim.c **** 
  75              		.loc 1 233 0
  76 0014 2268     		ldr	r2, [r4]
  77              	.LVL3:
  78              	.LBB144:
  79              	.LBB145:
 281:Drivers/STM32F1xx_HAL_Driver/Src/stm32f1xx_hal_tim.c **** 
 282:Drivers/STM32F1xx_HAL_Driver/Src/stm32f1xx_hal_tim.c **** /**
 283:Drivers/STM32F1xx_HAL_Driver/Src/stm32f1xx_hal_tim.c ****   * @brief  DeInitializes TIM Base MSP.
 284:Drivers/STM32F1xx_HAL_Driver/Src/stm32f1xx_hal_tim.c ****   * @param  htim : TIM handle
 285:Drivers/STM32F1xx_HAL_Driver/Src/stm32f1xx_hal_tim.c ****   * @retval None
 286:Drivers/STM32F1xx_HAL_Driver/Src/stm32f1xx_hal_tim.c ****   */
 287:Drivers/STM32F1xx_HAL_Driver/Src/stm32f1xx_hal_tim.c **** __weak void HAL_TIM_Base_MspDeInit(TIM_HandleTypeDef *htim)
 288:Drivers/STM32F1xx_HAL_Driver/Src/stm32f1xx_hal_tim.c **** {
 289:Drivers/STM32F1xx_HAL_Driver/Src/stm32f1xx_hal_tim.c ****   /* Prevent unused argument(s) compilation warning */
 290:Drivers/STM32F1xx_HAL_Driver/Src/stm32f1xx_hal_tim.c ****   UNUSED(htim);
 291:Drivers/STM32F1xx_HAL_Driver/Src/stm32f1xx_hal_tim.c ****   /* NOTE : This function Should not be modified, when the callback is needed,
 292:Drivers/STM32F1xx_HAL_Driver/Src/stm32f1xx_hal_tim.c ****             the HAL_TIM_Base_MspDeInit could be implemented in the user file
 293:Drivers/STM32F1xx_HAL_Driver/Src/stm32f1xx_hal_tim.c ****    */
 294:Drivers/STM32F1xx_HAL_Driver/Src/stm32f1xx_hal_tim.c **** }
 295:Drivers/STM32F1xx_HAL_Driver/Src/stm32f1xx_hal_tim.c **** 
 296:Drivers/STM32F1xx_HAL_Driver/Src/stm32f1xx_hal_tim.c **** 
 297:Drivers/STM32F1xx_HAL_Driver/Src/stm32f1xx_hal_tim.c **** /**
 298:Drivers/STM32F1xx_HAL_Driver/Src/stm32f1xx_hal_tim.c ****   * @brief  Starts the TIM Base generation.
 299:Drivers/STM32F1xx_HAL_Driver/Src/stm32f1xx_hal_tim.c ****   * @param  htim : TIM handle
 300:Drivers/STM32F1xx_HAL_Driver/Src/stm32f1xx_hal_tim.c ****   * @retval HAL status
 301:Drivers/STM32F1xx_HAL_Driver/Src/stm32f1xx_hal_tim.c **** */
 302:Drivers/STM32F1xx_HAL_Driver/Src/stm32f1xx_hal_tim.c **** HAL_StatusTypeDef HAL_TIM_Base_Start(TIM_HandleTypeDef *htim)
 303:Drivers/STM32F1xx_HAL_Driver/Src/stm32f1xx_hal_tim.c **** {
 304:Drivers/STM32F1xx_HAL_Driver/Src/stm32f1xx_hal_tim.c ****   /* Check the parameters */
 305:Drivers/STM32F1xx_HAL_Driver/Src/stm32f1xx_hal_tim.c ****   assert_param(IS_TIM_INSTANCE(htim->Instance));
 306:Drivers/STM32F1xx_HAL_Driver/Src/stm32f1xx_hal_tim.c **** 
 307:Drivers/STM32F1xx_HAL_Driver/Src/stm32f1xx_hal_tim.c ****   /* Set the TIM state */
 308:Drivers/STM32F1xx_HAL_Driver/Src/stm32f1xx_hal_tim.c ****   htim->State= HAL_TIM_STATE_BUSY;
 309:Drivers/STM32F1xx_HAL_Driver/Src/stm32f1xx_hal_tim.c **** 
 310:Drivers/STM32F1xx_HAL_Driver/Src/stm32f1xx_hal_tim.c ****   /* Enable the Peripheral */
 311:Drivers/STM32F1xx_HAL_Driver/Src/stm32f1xx_hal_tim.c ****   __HAL_TIM_ENABLE(htim);
 312:Drivers/STM32F1xx_HAL_Driver/Src/stm32f1xx_hal_tim.c **** 
 313:Drivers/STM32F1xx_HAL_Driver/Src/stm32f1xx_hal_tim.c ****   /* Change the TIM state*/
 314:Drivers/STM32F1xx_HAL_Driver/Src/stm32f1xx_hal_tim.c ****   htim->State= HAL_TIM_STATE_READY;
 315:Drivers/STM32F1xx_HAL_Driver/Src/stm32f1xx_hal_tim.c **** 
 316:Drivers/STM32F1xx_HAL_Driver/Src/stm32f1xx_hal_tim.c ****   /* Return function status */
ARM GAS  /tmp/ccIpqr7A.s 			page 8


 317:Drivers/STM32F1xx_HAL_Driver/Src/stm32f1xx_hal_tim.c ****   return HAL_OK;
 318:Drivers/STM32F1xx_HAL_Driver/Src/stm32f1xx_hal_tim.c **** }
 319:Drivers/STM32F1xx_HAL_Driver/Src/stm32f1xx_hal_tim.c **** 
 320:Drivers/STM32F1xx_HAL_Driver/Src/stm32f1xx_hal_tim.c **** /**
 321:Drivers/STM32F1xx_HAL_Driver/Src/stm32f1xx_hal_tim.c ****   * @brief  Stops the TIM Base generation.
 322:Drivers/STM32F1xx_HAL_Driver/Src/stm32f1xx_hal_tim.c ****   * @param  htim : TIM handle
 323:Drivers/STM32F1xx_HAL_Driver/Src/stm32f1xx_hal_tim.c ****   * @retval HAL status
 324:Drivers/STM32F1xx_HAL_Driver/Src/stm32f1xx_hal_tim.c **** */
 325:Drivers/STM32F1xx_HAL_Driver/Src/stm32f1xx_hal_tim.c **** HAL_StatusTypeDef HAL_TIM_Base_Stop(TIM_HandleTypeDef *htim)
 326:Drivers/STM32F1xx_HAL_Driver/Src/stm32f1xx_hal_tim.c **** {
 327:Drivers/STM32F1xx_HAL_Driver/Src/stm32f1xx_hal_tim.c ****   /* Check the parameters */
 328:Drivers/STM32F1xx_HAL_Driver/Src/stm32f1xx_hal_tim.c ****   assert_param(IS_TIM_INSTANCE(htim->Instance));
 329:Drivers/STM32F1xx_HAL_Driver/Src/stm32f1xx_hal_tim.c **** 
 330:Drivers/STM32F1xx_HAL_Driver/Src/stm32f1xx_hal_tim.c ****   /* Set the TIM state */
 331:Drivers/STM32F1xx_HAL_Driver/Src/stm32f1xx_hal_tim.c ****   htim->State= HAL_TIM_STATE_BUSY;
 332:Drivers/STM32F1xx_HAL_Driver/Src/stm32f1xx_hal_tim.c **** 
 333:Drivers/STM32F1xx_HAL_Driver/Src/stm32f1xx_hal_tim.c ****   /* Disable the Peripheral */
 334:Drivers/STM32F1xx_HAL_Driver/Src/stm32f1xx_hal_tim.c ****   __HAL_TIM_DISABLE(htim);
 335:Drivers/STM32F1xx_HAL_Driver/Src/stm32f1xx_hal_tim.c **** 
 336:Drivers/STM32F1xx_HAL_Driver/Src/stm32f1xx_hal_tim.c ****   /* Change the TIM state*/
 337:Drivers/STM32F1xx_HAL_Driver/Src/stm32f1xx_hal_tim.c ****   htim->State= HAL_TIM_STATE_READY;
 338:Drivers/STM32F1xx_HAL_Driver/Src/stm32f1xx_hal_tim.c **** 
 339:Drivers/STM32F1xx_HAL_Driver/Src/stm32f1xx_hal_tim.c ****   /* Return function status */
 340:Drivers/STM32F1xx_HAL_Driver/Src/stm32f1xx_hal_tim.c ****   return HAL_OK;
 341:Drivers/STM32F1xx_HAL_Driver/Src/stm32f1xx_hal_tim.c **** }
 342:Drivers/STM32F1xx_HAL_Driver/Src/stm32f1xx_hal_tim.c **** 
 343:Drivers/STM32F1xx_HAL_Driver/Src/stm32f1xx_hal_tim.c **** /**
 344:Drivers/STM32F1xx_HAL_Driver/Src/stm32f1xx_hal_tim.c ****   * @brief  Starts the TIM Base generation in interrupt mode.
 345:Drivers/STM32F1xx_HAL_Driver/Src/stm32f1xx_hal_tim.c ****   * @param  htim : TIM handle
 346:Drivers/STM32F1xx_HAL_Driver/Src/stm32f1xx_hal_tim.c ****   * @retval HAL status
 347:Drivers/STM32F1xx_HAL_Driver/Src/stm32f1xx_hal_tim.c **** */
 348:Drivers/STM32F1xx_HAL_Driver/Src/stm32f1xx_hal_tim.c **** HAL_StatusTypeDef HAL_TIM_Base_Start_IT(TIM_HandleTypeDef *htim)
 349:Drivers/STM32F1xx_HAL_Driver/Src/stm32f1xx_hal_tim.c **** {
 350:Drivers/STM32F1xx_HAL_Driver/Src/stm32f1xx_hal_tim.c ****   /* Check the parameters */
 351:Drivers/STM32F1xx_HAL_Driver/Src/stm32f1xx_hal_tim.c ****   assert_param(IS_TIM_INSTANCE(htim->Instance));
 352:Drivers/STM32F1xx_HAL_Driver/Src/stm32f1xx_hal_tim.c **** 
 353:Drivers/STM32F1xx_HAL_Driver/Src/stm32f1xx_hal_tim.c ****    /* Enable the TIM Update interrupt */
 354:Drivers/STM32F1xx_HAL_Driver/Src/stm32f1xx_hal_tim.c ****    __HAL_TIM_ENABLE_IT(htim, TIM_IT_UPDATE);
 355:Drivers/STM32F1xx_HAL_Driver/Src/stm32f1xx_hal_tim.c **** 
 356:Drivers/STM32F1xx_HAL_Driver/Src/stm32f1xx_hal_tim.c ****    /* Enable the Peripheral */
 357:Drivers/STM32F1xx_HAL_Driver/Src/stm32f1xx_hal_tim.c ****   __HAL_TIM_ENABLE(htim);
 358:Drivers/STM32F1xx_HAL_Driver/Src/stm32f1xx_hal_tim.c **** 
 359:Drivers/STM32F1xx_HAL_Driver/Src/stm32f1xx_hal_tim.c ****   /* Return function status */
 360:Drivers/STM32F1xx_HAL_Driver/Src/stm32f1xx_hal_tim.c ****   return HAL_OK;
 361:Drivers/STM32F1xx_HAL_Driver/Src/stm32f1xx_hal_tim.c **** }
 362:Drivers/STM32F1xx_HAL_Driver/Src/stm32f1xx_hal_tim.c **** 
 363:Drivers/STM32F1xx_HAL_Driver/Src/stm32f1xx_hal_tim.c **** /**
 364:Drivers/STM32F1xx_HAL_Driver/Src/stm32f1xx_hal_tim.c ****   * @brief  Stops the TIM Base generation in interrupt mode.
 365:Drivers/STM32F1xx_HAL_Driver/Src/stm32f1xx_hal_tim.c ****   * @param  htim : TIM handle
 366:Drivers/STM32F1xx_HAL_Driver/Src/stm32f1xx_hal_tim.c ****   * @retval HAL status
 367:Drivers/STM32F1xx_HAL_Driver/Src/stm32f1xx_hal_tim.c **** */
 368:Drivers/STM32F1xx_HAL_Driver/Src/stm32f1xx_hal_tim.c **** HAL_StatusTypeDef HAL_TIM_Base_Stop_IT(TIM_HandleTypeDef *htim)
 369:Drivers/STM32F1xx_HAL_Driver/Src/stm32f1xx_hal_tim.c **** {
 370:Drivers/STM32F1xx_HAL_Driver/Src/stm32f1xx_hal_tim.c ****   /* Check the parameters */
 371:Drivers/STM32F1xx_HAL_Driver/Src/stm32f1xx_hal_tim.c ****   assert_param(IS_TIM_INSTANCE(htim->Instance));
 372:Drivers/STM32F1xx_HAL_Driver/Src/stm32f1xx_hal_tim.c ****   /* Disable the TIM Update interrupt */
 373:Drivers/STM32F1xx_HAL_Driver/Src/stm32f1xx_hal_tim.c ****   __HAL_TIM_DISABLE_IT(htim, TIM_IT_UPDATE);
ARM GAS  /tmp/ccIpqr7A.s 			page 9


 374:Drivers/STM32F1xx_HAL_Driver/Src/stm32f1xx_hal_tim.c **** 
 375:Drivers/STM32F1xx_HAL_Driver/Src/stm32f1xx_hal_tim.c ****   /* Disable the Peripheral */
 376:Drivers/STM32F1xx_HAL_Driver/Src/stm32f1xx_hal_tim.c ****   __HAL_TIM_DISABLE(htim);
 377:Drivers/STM32F1xx_HAL_Driver/Src/stm32f1xx_hal_tim.c **** 
 378:Drivers/STM32F1xx_HAL_Driver/Src/stm32f1xx_hal_tim.c ****   /* Return function status */
 379:Drivers/STM32F1xx_HAL_Driver/Src/stm32f1xx_hal_tim.c ****   return HAL_OK;
 380:Drivers/STM32F1xx_HAL_Driver/Src/stm32f1xx_hal_tim.c **** }
 381:Drivers/STM32F1xx_HAL_Driver/Src/stm32f1xx_hal_tim.c **** 
 382:Drivers/STM32F1xx_HAL_Driver/Src/stm32f1xx_hal_tim.c **** /**
 383:Drivers/STM32F1xx_HAL_Driver/Src/stm32f1xx_hal_tim.c ****   * @brief  Starts the TIM Base generation in DMA mode.
 384:Drivers/STM32F1xx_HAL_Driver/Src/stm32f1xx_hal_tim.c ****   * @param  htim : TIM handle
 385:Drivers/STM32F1xx_HAL_Driver/Src/stm32f1xx_hal_tim.c ****   * @param  pData : The source Buffer address.
 386:Drivers/STM32F1xx_HAL_Driver/Src/stm32f1xx_hal_tim.c ****   * @param  Length : The length of data to be transferred from memory to peripheral.
 387:Drivers/STM32F1xx_HAL_Driver/Src/stm32f1xx_hal_tim.c ****   * @retval HAL status
 388:Drivers/STM32F1xx_HAL_Driver/Src/stm32f1xx_hal_tim.c **** */
 389:Drivers/STM32F1xx_HAL_Driver/Src/stm32f1xx_hal_tim.c **** HAL_StatusTypeDef HAL_TIM_Base_Start_DMA(TIM_HandleTypeDef *htim, uint32_t *pData, uint16_t Length)
 390:Drivers/STM32F1xx_HAL_Driver/Src/stm32f1xx_hal_tim.c **** {
 391:Drivers/STM32F1xx_HAL_Driver/Src/stm32f1xx_hal_tim.c ****   /* Check the parameters */
 392:Drivers/STM32F1xx_HAL_Driver/Src/stm32f1xx_hal_tim.c ****   assert_param(IS_TIM_DMA_INSTANCE(htim->Instance));
 393:Drivers/STM32F1xx_HAL_Driver/Src/stm32f1xx_hal_tim.c **** 
 394:Drivers/STM32F1xx_HAL_Driver/Src/stm32f1xx_hal_tim.c ****   if((htim->State == HAL_TIM_STATE_BUSY))
 395:Drivers/STM32F1xx_HAL_Driver/Src/stm32f1xx_hal_tim.c ****   {
 396:Drivers/STM32F1xx_HAL_Driver/Src/stm32f1xx_hal_tim.c ****      return HAL_BUSY;
 397:Drivers/STM32F1xx_HAL_Driver/Src/stm32f1xx_hal_tim.c ****   }
 398:Drivers/STM32F1xx_HAL_Driver/Src/stm32f1xx_hal_tim.c ****   else if((htim->State == HAL_TIM_STATE_READY))
 399:Drivers/STM32F1xx_HAL_Driver/Src/stm32f1xx_hal_tim.c ****   {
 400:Drivers/STM32F1xx_HAL_Driver/Src/stm32f1xx_hal_tim.c ****     if((pData == 0U) && (Length > 0U))
 401:Drivers/STM32F1xx_HAL_Driver/Src/stm32f1xx_hal_tim.c ****     {
 402:Drivers/STM32F1xx_HAL_Driver/Src/stm32f1xx_hal_tim.c ****       return HAL_ERROR;
 403:Drivers/STM32F1xx_HAL_Driver/Src/stm32f1xx_hal_tim.c ****     }
 404:Drivers/STM32F1xx_HAL_Driver/Src/stm32f1xx_hal_tim.c ****     else
 405:Drivers/STM32F1xx_HAL_Driver/Src/stm32f1xx_hal_tim.c ****     {
 406:Drivers/STM32F1xx_HAL_Driver/Src/stm32f1xx_hal_tim.c ****       htim->State = HAL_TIM_STATE_BUSY;
 407:Drivers/STM32F1xx_HAL_Driver/Src/stm32f1xx_hal_tim.c ****     }
 408:Drivers/STM32F1xx_HAL_Driver/Src/stm32f1xx_hal_tim.c ****   }
 409:Drivers/STM32F1xx_HAL_Driver/Src/stm32f1xx_hal_tim.c ****   /* Set the DMA Period elapsed callback */
 410:Drivers/STM32F1xx_HAL_Driver/Src/stm32f1xx_hal_tim.c ****   htim->hdma[TIM_DMA_ID_UPDATE]->XferCpltCallback = TIM_DMAPeriodElapsedCplt;
 411:Drivers/STM32F1xx_HAL_Driver/Src/stm32f1xx_hal_tim.c **** 
 412:Drivers/STM32F1xx_HAL_Driver/Src/stm32f1xx_hal_tim.c ****   /* Set the DMA error callback */
 413:Drivers/STM32F1xx_HAL_Driver/Src/stm32f1xx_hal_tim.c ****   htim->hdma[TIM_DMA_ID_UPDATE]->XferErrorCallback = TIM_DMAError ;
 414:Drivers/STM32F1xx_HAL_Driver/Src/stm32f1xx_hal_tim.c **** 
 415:Drivers/STM32F1xx_HAL_Driver/Src/stm32f1xx_hal_tim.c ****   /* Enable the DMA channel */
 416:Drivers/STM32F1xx_HAL_Driver/Src/stm32f1xx_hal_tim.c ****   HAL_DMA_Start_IT(htim->hdma[TIM_DMA_ID_UPDATE], (uint32_t)pData, (uint32_t)&htim->Instance->ARR, 
 417:Drivers/STM32F1xx_HAL_Driver/Src/stm32f1xx_hal_tim.c **** 
 418:Drivers/STM32F1xx_HAL_Driver/Src/stm32f1xx_hal_tim.c ****   /* Enable the TIM Update DMA request */
 419:Drivers/STM32F1xx_HAL_Driver/Src/stm32f1xx_hal_tim.c ****   __HAL_TIM_ENABLE_DMA(htim, TIM_DMA_UPDATE);
 420:Drivers/STM32F1xx_HAL_Driver/Src/stm32f1xx_hal_tim.c **** 
 421:Drivers/STM32F1xx_HAL_Driver/Src/stm32f1xx_hal_tim.c ****   /* Enable the Peripheral */
 422:Drivers/STM32F1xx_HAL_Driver/Src/stm32f1xx_hal_tim.c ****   __HAL_TIM_ENABLE(htim);
 423:Drivers/STM32F1xx_HAL_Driver/Src/stm32f1xx_hal_tim.c **** 
 424:Drivers/STM32F1xx_HAL_Driver/Src/stm32f1xx_hal_tim.c ****   /* Return function status */
 425:Drivers/STM32F1xx_HAL_Driver/Src/stm32f1xx_hal_tim.c ****   return HAL_OK;
 426:Drivers/STM32F1xx_HAL_Driver/Src/stm32f1xx_hal_tim.c **** }
 427:Drivers/STM32F1xx_HAL_Driver/Src/stm32f1xx_hal_tim.c **** 
 428:Drivers/STM32F1xx_HAL_Driver/Src/stm32f1xx_hal_tim.c **** /**
 429:Drivers/STM32F1xx_HAL_Driver/Src/stm32f1xx_hal_tim.c ****   * @brief  Stops the TIM Base generation in DMA mode.
 430:Drivers/STM32F1xx_HAL_Driver/Src/stm32f1xx_hal_tim.c ****   * @param  htim : TIM handle
ARM GAS  /tmp/ccIpqr7A.s 			page 10


 431:Drivers/STM32F1xx_HAL_Driver/Src/stm32f1xx_hal_tim.c ****   * @retval HAL status
 432:Drivers/STM32F1xx_HAL_Driver/Src/stm32f1xx_hal_tim.c **** */
 433:Drivers/STM32F1xx_HAL_Driver/Src/stm32f1xx_hal_tim.c **** HAL_StatusTypeDef HAL_TIM_Base_Stop_DMA(TIM_HandleTypeDef *htim)
 434:Drivers/STM32F1xx_HAL_Driver/Src/stm32f1xx_hal_tim.c **** {
 435:Drivers/STM32F1xx_HAL_Driver/Src/stm32f1xx_hal_tim.c ****   /* Check the parameters */
 436:Drivers/STM32F1xx_HAL_Driver/Src/stm32f1xx_hal_tim.c ****   assert_param(IS_TIM_DMA_INSTANCE(htim->Instance));
 437:Drivers/STM32F1xx_HAL_Driver/Src/stm32f1xx_hal_tim.c **** 
 438:Drivers/STM32F1xx_HAL_Driver/Src/stm32f1xx_hal_tim.c ****   /* Disable the TIM Update DMA request */
 439:Drivers/STM32F1xx_HAL_Driver/Src/stm32f1xx_hal_tim.c ****   __HAL_TIM_DISABLE_DMA(htim, TIM_DMA_UPDATE);
 440:Drivers/STM32F1xx_HAL_Driver/Src/stm32f1xx_hal_tim.c **** 
 441:Drivers/STM32F1xx_HAL_Driver/Src/stm32f1xx_hal_tim.c ****   /* Disable the Peripheral */
 442:Drivers/STM32F1xx_HAL_Driver/Src/stm32f1xx_hal_tim.c ****   __HAL_TIM_DISABLE(htim);
 443:Drivers/STM32F1xx_HAL_Driver/Src/stm32f1xx_hal_tim.c **** 
 444:Drivers/STM32F1xx_HAL_Driver/Src/stm32f1xx_hal_tim.c ****   /* Change the htim state */
 445:Drivers/STM32F1xx_HAL_Driver/Src/stm32f1xx_hal_tim.c ****   htim->State = HAL_TIM_STATE_READY;
 446:Drivers/STM32F1xx_HAL_Driver/Src/stm32f1xx_hal_tim.c **** 
 447:Drivers/STM32F1xx_HAL_Driver/Src/stm32f1xx_hal_tim.c ****   /* Return function status */
 448:Drivers/STM32F1xx_HAL_Driver/Src/stm32f1xx_hal_tim.c ****   return HAL_OK;
 449:Drivers/STM32F1xx_HAL_Driver/Src/stm32f1xx_hal_tim.c **** }
 450:Drivers/STM32F1xx_HAL_Driver/Src/stm32f1xx_hal_tim.c **** 
 451:Drivers/STM32F1xx_HAL_Driver/Src/stm32f1xx_hal_tim.c **** /**
 452:Drivers/STM32F1xx_HAL_Driver/Src/stm32f1xx_hal_tim.c ****   * @}
 453:Drivers/STM32F1xx_HAL_Driver/Src/stm32f1xx_hal_tim.c ****   */
 454:Drivers/STM32F1xx_HAL_Driver/Src/stm32f1xx_hal_tim.c **** 
 455:Drivers/STM32F1xx_HAL_Driver/Src/stm32f1xx_hal_tim.c **** /** @defgroup TIM_Exported_Functions_Group2 Time Output Compare functions 
 456:Drivers/STM32F1xx_HAL_Driver/Src/stm32f1xx_hal_tim.c ****  *  @brief    Time Output Compare functions 
 457:Drivers/STM32F1xx_HAL_Driver/Src/stm32f1xx_hal_tim.c ****  *
 458:Drivers/STM32F1xx_HAL_Driver/Src/stm32f1xx_hal_tim.c **** @verbatim 
 459:Drivers/STM32F1xx_HAL_Driver/Src/stm32f1xx_hal_tim.c ****   ==============================================================================
 460:Drivers/STM32F1xx_HAL_Driver/Src/stm32f1xx_hal_tim.c ****                   ##### Time Output Compare functions #####
 461:Drivers/STM32F1xx_HAL_Driver/Src/stm32f1xx_hal_tim.c ****   ==============================================================================
 462:Drivers/STM32F1xx_HAL_Driver/Src/stm32f1xx_hal_tim.c ****   [..]
 463:Drivers/STM32F1xx_HAL_Driver/Src/stm32f1xx_hal_tim.c ****     This section provides functions allowing to:
 464:Drivers/STM32F1xx_HAL_Driver/Src/stm32f1xx_hal_tim.c ****     (+) Initialize and configure the TIM Output Compare.
 465:Drivers/STM32F1xx_HAL_Driver/Src/stm32f1xx_hal_tim.c ****     (+) De-initialize the TIM Output Compare.
 466:Drivers/STM32F1xx_HAL_Driver/Src/stm32f1xx_hal_tim.c ****     (+) Start the Time Output Compare.
 467:Drivers/STM32F1xx_HAL_Driver/Src/stm32f1xx_hal_tim.c ****     (+) Stop the Time Output Compare.
 468:Drivers/STM32F1xx_HAL_Driver/Src/stm32f1xx_hal_tim.c ****     (+) Start the Time Output Compare and enable interrupt.
 469:Drivers/STM32F1xx_HAL_Driver/Src/stm32f1xx_hal_tim.c ****     (+) Stop the Time Output Compare and disable interrupt.
 470:Drivers/STM32F1xx_HAL_Driver/Src/stm32f1xx_hal_tim.c ****     (+) Start the Time Output Compare and enable DMA transfer.
 471:Drivers/STM32F1xx_HAL_Driver/Src/stm32f1xx_hal_tim.c ****     (+) Stop the Time Output Compare and disable DMA transfer.
 472:Drivers/STM32F1xx_HAL_Driver/Src/stm32f1xx_hal_tim.c **** 
 473:Drivers/STM32F1xx_HAL_Driver/Src/stm32f1xx_hal_tim.c **** @endverbatim
 474:Drivers/STM32F1xx_HAL_Driver/Src/stm32f1xx_hal_tim.c ****   * @{
 475:Drivers/STM32F1xx_HAL_Driver/Src/stm32f1xx_hal_tim.c ****   */
 476:Drivers/STM32F1xx_HAL_Driver/Src/stm32f1xx_hal_tim.c **** /**
 477:Drivers/STM32F1xx_HAL_Driver/Src/stm32f1xx_hal_tim.c ****   * @brief  Initializes the TIM Output Compare according to the specified
 478:Drivers/STM32F1xx_HAL_Driver/Src/stm32f1xx_hal_tim.c ****   *         parameters in the TIM_HandleTypeDef and create the associated handle.
 479:Drivers/STM32F1xx_HAL_Driver/Src/stm32f1xx_hal_tim.c ****   * @param  htim : TIM Output Compare handle
 480:Drivers/STM32F1xx_HAL_Driver/Src/stm32f1xx_hal_tim.c ****   * @retval HAL status
 481:Drivers/STM32F1xx_HAL_Driver/Src/stm32f1xx_hal_tim.c ****   */
 482:Drivers/STM32F1xx_HAL_Driver/Src/stm32f1xx_hal_tim.c **** HAL_StatusTypeDef HAL_TIM_OC_Init(TIM_HandleTypeDef* htim)
 483:Drivers/STM32F1xx_HAL_Driver/Src/stm32f1xx_hal_tim.c **** {
 484:Drivers/STM32F1xx_HAL_Driver/Src/stm32f1xx_hal_tim.c ****   /* Check the TIM handle allocation */
 485:Drivers/STM32F1xx_HAL_Driver/Src/stm32f1xx_hal_tim.c ****   if(htim == NULL)
 486:Drivers/STM32F1xx_HAL_Driver/Src/stm32f1xx_hal_tim.c ****   {
 487:Drivers/STM32F1xx_HAL_Driver/Src/stm32f1xx_hal_tim.c ****     return HAL_ERROR;
ARM GAS  /tmp/ccIpqr7A.s 			page 11


 488:Drivers/STM32F1xx_HAL_Driver/Src/stm32f1xx_hal_tim.c ****   }
 489:Drivers/STM32F1xx_HAL_Driver/Src/stm32f1xx_hal_tim.c **** 
 490:Drivers/STM32F1xx_HAL_Driver/Src/stm32f1xx_hal_tim.c ****   /* Check the parameters */
 491:Drivers/STM32F1xx_HAL_Driver/Src/stm32f1xx_hal_tim.c ****   assert_param(IS_TIM_INSTANCE(htim->Instance));
 492:Drivers/STM32F1xx_HAL_Driver/Src/stm32f1xx_hal_tim.c ****   assert_param(IS_TIM_COUNTER_MODE(htim->Init.CounterMode));
 493:Drivers/STM32F1xx_HAL_Driver/Src/stm32f1xx_hal_tim.c ****   assert_param(IS_TIM_CLOCKDIVISION_DIV(htim->Init.ClockDivision));
 494:Drivers/STM32F1xx_HAL_Driver/Src/stm32f1xx_hal_tim.c ****   assert_param(IS_TIM_AUTORELOAD_PRELOAD(htim->Init.AutoReloadPreload));
 495:Drivers/STM32F1xx_HAL_Driver/Src/stm32f1xx_hal_tim.c **** 
 496:Drivers/STM32F1xx_HAL_Driver/Src/stm32f1xx_hal_tim.c ****   if(htim->State == HAL_TIM_STATE_RESET)
 497:Drivers/STM32F1xx_HAL_Driver/Src/stm32f1xx_hal_tim.c ****   {
 498:Drivers/STM32F1xx_HAL_Driver/Src/stm32f1xx_hal_tim.c ****     /* Allocate lock resource and initialize it */
 499:Drivers/STM32F1xx_HAL_Driver/Src/stm32f1xx_hal_tim.c ****     htim->Lock = HAL_UNLOCKED;
 500:Drivers/STM32F1xx_HAL_Driver/Src/stm32f1xx_hal_tim.c ****     
 501:Drivers/STM32F1xx_HAL_Driver/Src/stm32f1xx_hal_tim.c ****     /* Init the low level hardware : GPIO, CLOCK, NVIC and DMA */
 502:Drivers/STM32F1xx_HAL_Driver/Src/stm32f1xx_hal_tim.c ****     HAL_TIM_OC_MspInit(htim);
 503:Drivers/STM32F1xx_HAL_Driver/Src/stm32f1xx_hal_tim.c ****   }
 504:Drivers/STM32F1xx_HAL_Driver/Src/stm32f1xx_hal_tim.c **** 
 505:Drivers/STM32F1xx_HAL_Driver/Src/stm32f1xx_hal_tim.c ****   /* Set the TIM state */
 506:Drivers/STM32F1xx_HAL_Driver/Src/stm32f1xx_hal_tim.c ****   htim->State= HAL_TIM_STATE_BUSY;
 507:Drivers/STM32F1xx_HAL_Driver/Src/stm32f1xx_hal_tim.c **** 
 508:Drivers/STM32F1xx_HAL_Driver/Src/stm32f1xx_hal_tim.c ****   /* Init the base time for the Output Compare */
 509:Drivers/STM32F1xx_HAL_Driver/Src/stm32f1xx_hal_tim.c ****   TIM_Base_SetConfig(htim->Instance,  &htim->Init);
 510:Drivers/STM32F1xx_HAL_Driver/Src/stm32f1xx_hal_tim.c **** 
 511:Drivers/STM32F1xx_HAL_Driver/Src/stm32f1xx_hal_tim.c ****   /* Initialize the TIM state*/
 512:Drivers/STM32F1xx_HAL_Driver/Src/stm32f1xx_hal_tim.c ****   htim->State= HAL_TIM_STATE_READY;
 513:Drivers/STM32F1xx_HAL_Driver/Src/stm32f1xx_hal_tim.c **** 
 514:Drivers/STM32F1xx_HAL_Driver/Src/stm32f1xx_hal_tim.c ****   return HAL_OK;
 515:Drivers/STM32F1xx_HAL_Driver/Src/stm32f1xx_hal_tim.c **** }
 516:Drivers/STM32F1xx_HAL_Driver/Src/stm32f1xx_hal_tim.c **** 
 517:Drivers/STM32F1xx_HAL_Driver/Src/stm32f1xx_hal_tim.c **** /**
 518:Drivers/STM32F1xx_HAL_Driver/Src/stm32f1xx_hal_tim.c ****   * @brief  DeInitializes the TIM peripheral 
 519:Drivers/STM32F1xx_HAL_Driver/Src/stm32f1xx_hal_tim.c ****   * @param  htim : TIM Output Compare handle
 520:Drivers/STM32F1xx_HAL_Driver/Src/stm32f1xx_hal_tim.c ****   * @retval HAL status
 521:Drivers/STM32F1xx_HAL_Driver/Src/stm32f1xx_hal_tim.c ****   */
 522:Drivers/STM32F1xx_HAL_Driver/Src/stm32f1xx_hal_tim.c **** HAL_StatusTypeDef HAL_TIM_OC_DeInit(TIM_HandleTypeDef *htim)
 523:Drivers/STM32F1xx_HAL_Driver/Src/stm32f1xx_hal_tim.c **** {
 524:Drivers/STM32F1xx_HAL_Driver/Src/stm32f1xx_hal_tim.c ****   /* Check the parameters */
 525:Drivers/STM32F1xx_HAL_Driver/Src/stm32f1xx_hal_tim.c ****   assert_param(IS_TIM_INSTANCE(htim->Instance));
 526:Drivers/STM32F1xx_HAL_Driver/Src/stm32f1xx_hal_tim.c **** 
 527:Drivers/STM32F1xx_HAL_Driver/Src/stm32f1xx_hal_tim.c ****    htim->State = HAL_TIM_STATE_BUSY;
 528:Drivers/STM32F1xx_HAL_Driver/Src/stm32f1xx_hal_tim.c **** 
 529:Drivers/STM32F1xx_HAL_Driver/Src/stm32f1xx_hal_tim.c ****   /* Disable the TIM Peripheral Clock */
 530:Drivers/STM32F1xx_HAL_Driver/Src/stm32f1xx_hal_tim.c ****   __HAL_TIM_DISABLE(htim);
 531:Drivers/STM32F1xx_HAL_Driver/Src/stm32f1xx_hal_tim.c **** 
 532:Drivers/STM32F1xx_HAL_Driver/Src/stm32f1xx_hal_tim.c ****   /* DeInit the low level hardware: GPIO, CLOCK, NVIC and DMA */
 533:Drivers/STM32F1xx_HAL_Driver/Src/stm32f1xx_hal_tim.c ****   HAL_TIM_OC_MspDeInit(htim);
 534:Drivers/STM32F1xx_HAL_Driver/Src/stm32f1xx_hal_tim.c **** 
 535:Drivers/STM32F1xx_HAL_Driver/Src/stm32f1xx_hal_tim.c ****   /* Change TIM state */
 536:Drivers/STM32F1xx_HAL_Driver/Src/stm32f1xx_hal_tim.c ****   htim->State = HAL_TIM_STATE_RESET;
 537:Drivers/STM32F1xx_HAL_Driver/Src/stm32f1xx_hal_tim.c **** 
 538:Drivers/STM32F1xx_HAL_Driver/Src/stm32f1xx_hal_tim.c ****   /* Release Lock */
 539:Drivers/STM32F1xx_HAL_Driver/Src/stm32f1xx_hal_tim.c ****   __HAL_UNLOCK(htim);
 540:Drivers/STM32F1xx_HAL_Driver/Src/stm32f1xx_hal_tim.c **** 
 541:Drivers/STM32F1xx_HAL_Driver/Src/stm32f1xx_hal_tim.c ****   return HAL_OK;
 542:Drivers/STM32F1xx_HAL_Driver/Src/stm32f1xx_hal_tim.c **** }
 543:Drivers/STM32F1xx_HAL_Driver/Src/stm32f1xx_hal_tim.c **** 
 544:Drivers/STM32F1xx_HAL_Driver/Src/stm32f1xx_hal_tim.c **** /**
ARM GAS  /tmp/ccIpqr7A.s 			page 12


 545:Drivers/STM32F1xx_HAL_Driver/Src/stm32f1xx_hal_tim.c ****   * @brief  Initializes the TIM Output Compare MSP.
 546:Drivers/STM32F1xx_HAL_Driver/Src/stm32f1xx_hal_tim.c ****   * @param  htim : TIM handle
 547:Drivers/STM32F1xx_HAL_Driver/Src/stm32f1xx_hal_tim.c ****   * @retval None
 548:Drivers/STM32F1xx_HAL_Driver/Src/stm32f1xx_hal_tim.c ****   */
 549:Drivers/STM32F1xx_HAL_Driver/Src/stm32f1xx_hal_tim.c **** __weak void HAL_TIM_OC_MspInit(TIM_HandleTypeDef *htim)
 550:Drivers/STM32F1xx_HAL_Driver/Src/stm32f1xx_hal_tim.c **** {
 551:Drivers/STM32F1xx_HAL_Driver/Src/stm32f1xx_hal_tim.c ****   /* Prevent unused argument(s) compilation warning */
 552:Drivers/STM32F1xx_HAL_Driver/Src/stm32f1xx_hal_tim.c ****   UNUSED(htim);
 553:Drivers/STM32F1xx_HAL_Driver/Src/stm32f1xx_hal_tim.c ****   /* NOTE : This function Should not be modified, when the callback is needed,
 554:Drivers/STM32F1xx_HAL_Driver/Src/stm32f1xx_hal_tim.c ****             the HAL_TIM_OC_MspInit could be implemented in the user file
 555:Drivers/STM32F1xx_HAL_Driver/Src/stm32f1xx_hal_tim.c ****    */
 556:Drivers/STM32F1xx_HAL_Driver/Src/stm32f1xx_hal_tim.c **** }
 557:Drivers/STM32F1xx_HAL_Driver/Src/stm32f1xx_hal_tim.c **** 
 558:Drivers/STM32F1xx_HAL_Driver/Src/stm32f1xx_hal_tim.c **** /**
 559:Drivers/STM32F1xx_HAL_Driver/Src/stm32f1xx_hal_tim.c ****   * @brief  DeInitializes TIM Output Compare MSP.
 560:Drivers/STM32F1xx_HAL_Driver/Src/stm32f1xx_hal_tim.c ****   * @param  htim : TIM handle
 561:Drivers/STM32F1xx_HAL_Driver/Src/stm32f1xx_hal_tim.c ****   * @retval None
 562:Drivers/STM32F1xx_HAL_Driver/Src/stm32f1xx_hal_tim.c ****   */
 563:Drivers/STM32F1xx_HAL_Driver/Src/stm32f1xx_hal_tim.c **** __weak void HAL_TIM_OC_MspDeInit(TIM_HandleTypeDef *htim)
 564:Drivers/STM32F1xx_HAL_Driver/Src/stm32f1xx_hal_tim.c **** {
 565:Drivers/STM32F1xx_HAL_Driver/Src/stm32f1xx_hal_tim.c ****   /* Prevent unused argument(s) compilation warning */
 566:Drivers/STM32F1xx_HAL_Driver/Src/stm32f1xx_hal_tim.c ****   UNUSED(htim);
 567:Drivers/STM32F1xx_HAL_Driver/Src/stm32f1xx_hal_tim.c ****   /* NOTE : This function Should not be modified, when the callback is needed,
 568:Drivers/STM32F1xx_HAL_Driver/Src/stm32f1xx_hal_tim.c ****             the HAL_TIM_OC_MspDeInit could be implemented in the user file
 569:Drivers/STM32F1xx_HAL_Driver/Src/stm32f1xx_hal_tim.c ****    */
 570:Drivers/STM32F1xx_HAL_Driver/Src/stm32f1xx_hal_tim.c **** }
 571:Drivers/STM32F1xx_HAL_Driver/Src/stm32f1xx_hal_tim.c **** 
 572:Drivers/STM32F1xx_HAL_Driver/Src/stm32f1xx_hal_tim.c **** /**
 573:Drivers/STM32F1xx_HAL_Driver/Src/stm32f1xx_hal_tim.c ****   * @brief  Starts the TIM Output Compare signal generation.
 574:Drivers/STM32F1xx_HAL_Driver/Src/stm32f1xx_hal_tim.c ****   * @param  htim : TIM Output Compare handle 
 575:Drivers/STM32F1xx_HAL_Driver/Src/stm32f1xx_hal_tim.c ****   * @param  Channel : TIM Channel to be enabled
 576:Drivers/STM32F1xx_HAL_Driver/Src/stm32f1xx_hal_tim.c ****   *          This parameter can be one of the following values:
 577:Drivers/STM32F1xx_HAL_Driver/Src/stm32f1xx_hal_tim.c ****   *            @arg TIM_CHANNEL_1: TIM Channel 1 selected
 578:Drivers/STM32F1xx_HAL_Driver/Src/stm32f1xx_hal_tim.c ****   *            @arg TIM_CHANNEL_2: TIM Channel 2 selected
 579:Drivers/STM32F1xx_HAL_Driver/Src/stm32f1xx_hal_tim.c ****   *            @arg TIM_CHANNEL_3: TIM Channel 3 selected
 580:Drivers/STM32F1xx_HAL_Driver/Src/stm32f1xx_hal_tim.c ****   *            @arg TIM_CHANNEL_4: TIM Channel 4 selected 
 581:Drivers/STM32F1xx_HAL_Driver/Src/stm32f1xx_hal_tim.c ****   * @retval HAL status
 582:Drivers/STM32F1xx_HAL_Driver/Src/stm32f1xx_hal_tim.c **** */
 583:Drivers/STM32F1xx_HAL_Driver/Src/stm32f1xx_hal_tim.c **** HAL_StatusTypeDef HAL_TIM_OC_Start(TIM_HandleTypeDef *htim, uint32_t Channel)
 584:Drivers/STM32F1xx_HAL_Driver/Src/stm32f1xx_hal_tim.c **** {
 585:Drivers/STM32F1xx_HAL_Driver/Src/stm32f1xx_hal_tim.c ****   /* Check the parameters */
 586:Drivers/STM32F1xx_HAL_Driver/Src/stm32f1xx_hal_tim.c ****   assert_param(IS_TIM_CCX_INSTANCE(htim->Instance, Channel));
 587:Drivers/STM32F1xx_HAL_Driver/Src/stm32f1xx_hal_tim.c **** 
 588:Drivers/STM32F1xx_HAL_Driver/Src/stm32f1xx_hal_tim.c ****   /* Enable the Output compare channel */
 589:Drivers/STM32F1xx_HAL_Driver/Src/stm32f1xx_hal_tim.c ****   TIM_CCxChannelCmd(htim->Instance, Channel, TIM_CCx_ENABLE);
 590:Drivers/STM32F1xx_HAL_Driver/Src/stm32f1xx_hal_tim.c **** 
 591:Drivers/STM32F1xx_HAL_Driver/Src/stm32f1xx_hal_tim.c ****   if(IS_TIM_BREAK_INSTANCE(htim->Instance) != RESET)
 592:Drivers/STM32F1xx_HAL_Driver/Src/stm32f1xx_hal_tim.c ****   {
 593:Drivers/STM32F1xx_HAL_Driver/Src/stm32f1xx_hal_tim.c ****     /* Enable the main output */
 594:Drivers/STM32F1xx_HAL_Driver/Src/stm32f1xx_hal_tim.c ****     __HAL_TIM_MOE_ENABLE(htim);
 595:Drivers/STM32F1xx_HAL_Driver/Src/stm32f1xx_hal_tim.c ****   }
 596:Drivers/STM32F1xx_HAL_Driver/Src/stm32f1xx_hal_tim.c **** 
 597:Drivers/STM32F1xx_HAL_Driver/Src/stm32f1xx_hal_tim.c ****   /* Enable the Peripheral */
 598:Drivers/STM32F1xx_HAL_Driver/Src/stm32f1xx_hal_tim.c ****   __HAL_TIM_ENABLE(htim);
 599:Drivers/STM32F1xx_HAL_Driver/Src/stm32f1xx_hal_tim.c **** 
 600:Drivers/STM32F1xx_HAL_Driver/Src/stm32f1xx_hal_tim.c ****   /* Return function status */
 601:Drivers/STM32F1xx_HAL_Driver/Src/stm32f1xx_hal_tim.c ****   return HAL_OK;
ARM GAS  /tmp/ccIpqr7A.s 			page 13


 602:Drivers/STM32F1xx_HAL_Driver/Src/stm32f1xx_hal_tim.c **** }
 603:Drivers/STM32F1xx_HAL_Driver/Src/stm32f1xx_hal_tim.c **** 
 604:Drivers/STM32F1xx_HAL_Driver/Src/stm32f1xx_hal_tim.c **** /**
 605:Drivers/STM32F1xx_HAL_Driver/Src/stm32f1xx_hal_tim.c ****   * @brief  Stops the TIM Output Compare signal generation.
 606:Drivers/STM32F1xx_HAL_Driver/Src/stm32f1xx_hal_tim.c ****   * @param  htim : TIM handle
 607:Drivers/STM32F1xx_HAL_Driver/Src/stm32f1xx_hal_tim.c ****   * @param  Channel : TIM Channel to be disabled
 608:Drivers/STM32F1xx_HAL_Driver/Src/stm32f1xx_hal_tim.c ****   *          This parameter can be one of the following values:
 609:Drivers/STM32F1xx_HAL_Driver/Src/stm32f1xx_hal_tim.c ****   *            @arg TIM_CHANNEL_1: TIM Channel 1 selected
 610:Drivers/STM32F1xx_HAL_Driver/Src/stm32f1xx_hal_tim.c ****   *            @arg TIM_CHANNEL_2: TIM Channel 2 selected
 611:Drivers/STM32F1xx_HAL_Driver/Src/stm32f1xx_hal_tim.c ****   *            @arg TIM_CHANNEL_3: TIM Channel 3 selected
 612:Drivers/STM32F1xx_HAL_Driver/Src/stm32f1xx_hal_tim.c ****   *            @arg TIM_CHANNEL_4: TIM Channel 4 selected
 613:Drivers/STM32F1xx_HAL_Driver/Src/stm32f1xx_hal_tim.c ****   * @retval HAL status
 614:Drivers/STM32F1xx_HAL_Driver/Src/stm32f1xx_hal_tim.c **** */
 615:Drivers/STM32F1xx_HAL_Driver/Src/stm32f1xx_hal_tim.c **** HAL_StatusTypeDef HAL_TIM_OC_Stop(TIM_HandleTypeDef *htim, uint32_t Channel)
 616:Drivers/STM32F1xx_HAL_Driver/Src/stm32f1xx_hal_tim.c **** {
 617:Drivers/STM32F1xx_HAL_Driver/Src/stm32f1xx_hal_tim.c ****   /* Check the parameters */
 618:Drivers/STM32F1xx_HAL_Driver/Src/stm32f1xx_hal_tim.c ****   assert_param(IS_TIM_CCX_INSTANCE(htim->Instance, Channel));
 619:Drivers/STM32F1xx_HAL_Driver/Src/stm32f1xx_hal_tim.c **** 
 620:Drivers/STM32F1xx_HAL_Driver/Src/stm32f1xx_hal_tim.c ****   /* Disable the Output compare channel */
 621:Drivers/STM32F1xx_HAL_Driver/Src/stm32f1xx_hal_tim.c ****   TIM_CCxChannelCmd(htim->Instance, Channel, TIM_CCx_DISABLE);
 622:Drivers/STM32F1xx_HAL_Driver/Src/stm32f1xx_hal_tim.c **** 
 623:Drivers/STM32F1xx_HAL_Driver/Src/stm32f1xx_hal_tim.c ****   if(IS_TIM_BREAK_INSTANCE(htim->Instance) != RESET)
 624:Drivers/STM32F1xx_HAL_Driver/Src/stm32f1xx_hal_tim.c ****   {
 625:Drivers/STM32F1xx_HAL_Driver/Src/stm32f1xx_hal_tim.c ****     /* Disable the Main Ouput */
 626:Drivers/STM32F1xx_HAL_Driver/Src/stm32f1xx_hal_tim.c ****     __HAL_TIM_MOE_DISABLE(htim);
 627:Drivers/STM32F1xx_HAL_Driver/Src/stm32f1xx_hal_tim.c ****   }
 628:Drivers/STM32F1xx_HAL_Driver/Src/stm32f1xx_hal_tim.c **** 
 629:Drivers/STM32F1xx_HAL_Driver/Src/stm32f1xx_hal_tim.c ****   /* Disable the Peripheral */
 630:Drivers/STM32F1xx_HAL_Driver/Src/stm32f1xx_hal_tim.c ****   __HAL_TIM_DISABLE(htim);
 631:Drivers/STM32F1xx_HAL_Driver/Src/stm32f1xx_hal_tim.c **** 
 632:Drivers/STM32F1xx_HAL_Driver/Src/stm32f1xx_hal_tim.c ****   /* Return function status */
 633:Drivers/STM32F1xx_HAL_Driver/Src/stm32f1xx_hal_tim.c ****   return HAL_OK;
 634:Drivers/STM32F1xx_HAL_Driver/Src/stm32f1xx_hal_tim.c **** }
 635:Drivers/STM32F1xx_HAL_Driver/Src/stm32f1xx_hal_tim.c **** 
 636:Drivers/STM32F1xx_HAL_Driver/Src/stm32f1xx_hal_tim.c **** /**
 637:Drivers/STM32F1xx_HAL_Driver/Src/stm32f1xx_hal_tim.c ****   * @brief  Starts the TIM Output Compare signal generation in interrupt mode.
 638:Drivers/STM32F1xx_HAL_Driver/Src/stm32f1xx_hal_tim.c ****   * @param  htim : TIM OC handle
 639:Drivers/STM32F1xx_HAL_Driver/Src/stm32f1xx_hal_tim.c ****   * @param  Channel : TIM Channel to be enabled
 640:Drivers/STM32F1xx_HAL_Driver/Src/stm32f1xx_hal_tim.c ****   *          This parameter can be one of the following values:
 641:Drivers/STM32F1xx_HAL_Driver/Src/stm32f1xx_hal_tim.c ****   *            @arg TIM_CHANNEL_1: TIM Channel 1 selected
 642:Drivers/STM32F1xx_HAL_Driver/Src/stm32f1xx_hal_tim.c ****   *            @arg TIM_CHANNEL_2: TIM Channel 2 selected
 643:Drivers/STM32F1xx_HAL_Driver/Src/stm32f1xx_hal_tim.c ****   *            @arg TIM_CHANNEL_3: TIM Channel 3 selected
 644:Drivers/STM32F1xx_HAL_Driver/Src/stm32f1xx_hal_tim.c ****   *            @arg TIM_CHANNEL_4: TIM Channel 4 selected
 645:Drivers/STM32F1xx_HAL_Driver/Src/stm32f1xx_hal_tim.c ****   * @retval HAL status
 646:Drivers/STM32F1xx_HAL_Driver/Src/stm32f1xx_hal_tim.c **** */
 647:Drivers/STM32F1xx_HAL_Driver/Src/stm32f1xx_hal_tim.c **** HAL_StatusTypeDef HAL_TIM_OC_Start_IT(TIM_HandleTypeDef *htim, uint32_t Channel)
 648:Drivers/STM32F1xx_HAL_Driver/Src/stm32f1xx_hal_tim.c **** {
 649:Drivers/STM32F1xx_HAL_Driver/Src/stm32f1xx_hal_tim.c ****   /* Check the parameters */
 650:Drivers/STM32F1xx_HAL_Driver/Src/stm32f1xx_hal_tim.c ****   assert_param(IS_TIM_CCX_INSTANCE(htim->Instance, Channel));
 651:Drivers/STM32F1xx_HAL_Driver/Src/stm32f1xx_hal_tim.c **** 
 652:Drivers/STM32F1xx_HAL_Driver/Src/stm32f1xx_hal_tim.c ****   switch (Channel)
 653:Drivers/STM32F1xx_HAL_Driver/Src/stm32f1xx_hal_tim.c ****   {
 654:Drivers/STM32F1xx_HAL_Driver/Src/stm32f1xx_hal_tim.c ****     case TIM_CHANNEL_1:
 655:Drivers/STM32F1xx_HAL_Driver/Src/stm32f1xx_hal_tim.c ****     {
 656:Drivers/STM32F1xx_HAL_Driver/Src/stm32f1xx_hal_tim.c ****       /* Enable the TIM Capture/Compare 1 interrupt */
 657:Drivers/STM32F1xx_HAL_Driver/Src/stm32f1xx_hal_tim.c ****       __HAL_TIM_ENABLE_IT(htim, TIM_IT_CC1);
 658:Drivers/STM32F1xx_HAL_Driver/Src/stm32f1xx_hal_tim.c ****     }
ARM GAS  /tmp/ccIpqr7A.s 			page 14


 659:Drivers/STM32F1xx_HAL_Driver/Src/stm32f1xx_hal_tim.c ****     break;
 660:Drivers/STM32F1xx_HAL_Driver/Src/stm32f1xx_hal_tim.c **** 
 661:Drivers/STM32F1xx_HAL_Driver/Src/stm32f1xx_hal_tim.c ****     case TIM_CHANNEL_2:
 662:Drivers/STM32F1xx_HAL_Driver/Src/stm32f1xx_hal_tim.c ****     {
 663:Drivers/STM32F1xx_HAL_Driver/Src/stm32f1xx_hal_tim.c ****       /* Enable the TIM Capture/Compare 2 interrupt */
 664:Drivers/STM32F1xx_HAL_Driver/Src/stm32f1xx_hal_tim.c ****       __HAL_TIM_ENABLE_IT(htim, TIM_IT_CC2);
 665:Drivers/STM32F1xx_HAL_Driver/Src/stm32f1xx_hal_tim.c ****     }
 666:Drivers/STM32F1xx_HAL_Driver/Src/stm32f1xx_hal_tim.c ****     break;
 667:Drivers/STM32F1xx_HAL_Driver/Src/stm32f1xx_hal_tim.c **** 
 668:Drivers/STM32F1xx_HAL_Driver/Src/stm32f1xx_hal_tim.c ****     case TIM_CHANNEL_3:
 669:Drivers/STM32F1xx_HAL_Driver/Src/stm32f1xx_hal_tim.c ****     {
 670:Drivers/STM32F1xx_HAL_Driver/Src/stm32f1xx_hal_tim.c ****       /* Enable the TIM Capture/Compare 3 interrupt */
 671:Drivers/STM32F1xx_HAL_Driver/Src/stm32f1xx_hal_tim.c ****       __HAL_TIM_ENABLE_IT(htim, TIM_IT_CC3);
 672:Drivers/STM32F1xx_HAL_Driver/Src/stm32f1xx_hal_tim.c ****     }
 673:Drivers/STM32F1xx_HAL_Driver/Src/stm32f1xx_hal_tim.c ****     break;
 674:Drivers/STM32F1xx_HAL_Driver/Src/stm32f1xx_hal_tim.c **** 
 675:Drivers/STM32F1xx_HAL_Driver/Src/stm32f1xx_hal_tim.c ****     case TIM_CHANNEL_4:
 676:Drivers/STM32F1xx_HAL_Driver/Src/stm32f1xx_hal_tim.c ****     {
 677:Drivers/STM32F1xx_HAL_Driver/Src/stm32f1xx_hal_tim.c ****       /* Enable the TIM Capture/Compare 4 interrupt */
 678:Drivers/STM32F1xx_HAL_Driver/Src/stm32f1xx_hal_tim.c ****       __HAL_TIM_ENABLE_IT(htim, TIM_IT_CC4);
 679:Drivers/STM32F1xx_HAL_Driver/Src/stm32f1xx_hal_tim.c ****     }
 680:Drivers/STM32F1xx_HAL_Driver/Src/stm32f1xx_hal_tim.c ****     break;
 681:Drivers/STM32F1xx_HAL_Driver/Src/stm32f1xx_hal_tim.c **** 
 682:Drivers/STM32F1xx_HAL_Driver/Src/stm32f1xx_hal_tim.c ****     default:
 683:Drivers/STM32F1xx_HAL_Driver/Src/stm32f1xx_hal_tim.c ****     break;
 684:Drivers/STM32F1xx_HAL_Driver/Src/stm32f1xx_hal_tim.c ****   }
 685:Drivers/STM32F1xx_HAL_Driver/Src/stm32f1xx_hal_tim.c **** 
 686:Drivers/STM32F1xx_HAL_Driver/Src/stm32f1xx_hal_tim.c ****   /* Enable the Output compare channel */
 687:Drivers/STM32F1xx_HAL_Driver/Src/stm32f1xx_hal_tim.c ****   TIM_CCxChannelCmd(htim->Instance, Channel, TIM_CCx_ENABLE);
 688:Drivers/STM32F1xx_HAL_Driver/Src/stm32f1xx_hal_tim.c **** 
 689:Drivers/STM32F1xx_HAL_Driver/Src/stm32f1xx_hal_tim.c ****   if(IS_TIM_BREAK_INSTANCE(htim->Instance) != RESET)
 690:Drivers/STM32F1xx_HAL_Driver/Src/stm32f1xx_hal_tim.c ****   {
 691:Drivers/STM32F1xx_HAL_Driver/Src/stm32f1xx_hal_tim.c ****     /* Enable the main output */
 692:Drivers/STM32F1xx_HAL_Driver/Src/stm32f1xx_hal_tim.c ****     __HAL_TIM_MOE_ENABLE(htim);
 693:Drivers/STM32F1xx_HAL_Driver/Src/stm32f1xx_hal_tim.c ****   }
 694:Drivers/STM32F1xx_HAL_Driver/Src/stm32f1xx_hal_tim.c **** 
 695:Drivers/STM32F1xx_HAL_Driver/Src/stm32f1xx_hal_tim.c ****   /* Enable the Peripheral */
 696:Drivers/STM32F1xx_HAL_Driver/Src/stm32f1xx_hal_tim.c ****   __HAL_TIM_ENABLE(htim);
 697:Drivers/STM32F1xx_HAL_Driver/Src/stm32f1xx_hal_tim.c **** 
 698:Drivers/STM32F1xx_HAL_Driver/Src/stm32f1xx_hal_tim.c ****   /* Return function status */
 699:Drivers/STM32F1xx_HAL_Driver/Src/stm32f1xx_hal_tim.c ****   return HAL_OK;
 700:Drivers/STM32F1xx_HAL_Driver/Src/stm32f1xx_hal_tim.c **** }
 701:Drivers/STM32F1xx_HAL_Driver/Src/stm32f1xx_hal_tim.c **** 
 702:Drivers/STM32F1xx_HAL_Driver/Src/stm32f1xx_hal_tim.c **** /**
 703:Drivers/STM32F1xx_HAL_Driver/Src/stm32f1xx_hal_tim.c ****   * @brief  Stops the TIM Output Compare signal generation in interrupt mode.
 704:Drivers/STM32F1xx_HAL_Driver/Src/stm32f1xx_hal_tim.c ****   * @param  htim : TIM Output Compare handle
 705:Drivers/STM32F1xx_HAL_Driver/Src/stm32f1xx_hal_tim.c ****   * @param  Channel : TIM Channel to be disabled
 706:Drivers/STM32F1xx_HAL_Driver/Src/stm32f1xx_hal_tim.c ****   *          This parameter can be one of the following values:
 707:Drivers/STM32F1xx_HAL_Driver/Src/stm32f1xx_hal_tim.c ****   *            @arg TIM_CHANNEL_1: TIM Channel 1 selected
 708:Drivers/STM32F1xx_HAL_Driver/Src/stm32f1xx_hal_tim.c ****   *            @arg TIM_CHANNEL_2: TIM Channel 2 selected
 709:Drivers/STM32F1xx_HAL_Driver/Src/stm32f1xx_hal_tim.c ****   *            @arg TIM_CHANNEL_3: TIM Channel 3 selected
 710:Drivers/STM32F1xx_HAL_Driver/Src/stm32f1xx_hal_tim.c ****   *            @arg TIM_CHANNEL_4: TIM Channel 4 selected
 711:Drivers/STM32F1xx_HAL_Driver/Src/stm32f1xx_hal_tim.c ****   * @retval HAL status
 712:Drivers/STM32F1xx_HAL_Driver/Src/stm32f1xx_hal_tim.c **** */
 713:Drivers/STM32F1xx_HAL_Driver/Src/stm32f1xx_hal_tim.c **** HAL_StatusTypeDef HAL_TIM_OC_Stop_IT(TIM_HandleTypeDef *htim, uint32_t Channel)
 714:Drivers/STM32F1xx_HAL_Driver/Src/stm32f1xx_hal_tim.c **** {
 715:Drivers/STM32F1xx_HAL_Driver/Src/stm32f1xx_hal_tim.c ****   /* Check the parameters */
ARM GAS  /tmp/ccIpqr7A.s 			page 15


 716:Drivers/STM32F1xx_HAL_Driver/Src/stm32f1xx_hal_tim.c ****   assert_param(IS_TIM_CCX_INSTANCE(htim->Instance, Channel));
 717:Drivers/STM32F1xx_HAL_Driver/Src/stm32f1xx_hal_tim.c **** 
 718:Drivers/STM32F1xx_HAL_Driver/Src/stm32f1xx_hal_tim.c ****   switch (Channel)
 719:Drivers/STM32F1xx_HAL_Driver/Src/stm32f1xx_hal_tim.c ****   {
 720:Drivers/STM32F1xx_HAL_Driver/Src/stm32f1xx_hal_tim.c ****     case TIM_CHANNEL_1:
 721:Drivers/STM32F1xx_HAL_Driver/Src/stm32f1xx_hal_tim.c ****     {
 722:Drivers/STM32F1xx_HAL_Driver/Src/stm32f1xx_hal_tim.c ****       /* Disable the TIM Capture/Compare 1 interrupt */
 723:Drivers/STM32F1xx_HAL_Driver/Src/stm32f1xx_hal_tim.c ****       __HAL_TIM_DISABLE_IT(htim, TIM_IT_CC1);
 724:Drivers/STM32F1xx_HAL_Driver/Src/stm32f1xx_hal_tim.c ****     }
 725:Drivers/STM32F1xx_HAL_Driver/Src/stm32f1xx_hal_tim.c ****     break;
 726:Drivers/STM32F1xx_HAL_Driver/Src/stm32f1xx_hal_tim.c **** 
 727:Drivers/STM32F1xx_HAL_Driver/Src/stm32f1xx_hal_tim.c ****     case TIM_CHANNEL_2:
 728:Drivers/STM32F1xx_HAL_Driver/Src/stm32f1xx_hal_tim.c ****     {
 729:Drivers/STM32F1xx_HAL_Driver/Src/stm32f1xx_hal_tim.c ****       /* Disable the TIM Capture/Compare 2 interrupt */
 730:Drivers/STM32F1xx_HAL_Driver/Src/stm32f1xx_hal_tim.c ****       __HAL_TIM_DISABLE_IT(htim, TIM_IT_CC2);
 731:Drivers/STM32F1xx_HAL_Driver/Src/stm32f1xx_hal_tim.c ****     }
 732:Drivers/STM32F1xx_HAL_Driver/Src/stm32f1xx_hal_tim.c ****     break;
 733:Drivers/STM32F1xx_HAL_Driver/Src/stm32f1xx_hal_tim.c **** 
 734:Drivers/STM32F1xx_HAL_Driver/Src/stm32f1xx_hal_tim.c ****     case TIM_CHANNEL_3:
 735:Drivers/STM32F1xx_HAL_Driver/Src/stm32f1xx_hal_tim.c ****     {
 736:Drivers/STM32F1xx_HAL_Driver/Src/stm32f1xx_hal_tim.c ****       /* Disable the TIM Capture/Compare 3 interrupt */
 737:Drivers/STM32F1xx_HAL_Driver/Src/stm32f1xx_hal_tim.c ****       __HAL_TIM_DISABLE_IT(htim, TIM_IT_CC3);
 738:Drivers/STM32F1xx_HAL_Driver/Src/stm32f1xx_hal_tim.c ****     }
 739:Drivers/STM32F1xx_HAL_Driver/Src/stm32f1xx_hal_tim.c ****     break;
 740:Drivers/STM32F1xx_HAL_Driver/Src/stm32f1xx_hal_tim.c **** 
 741:Drivers/STM32F1xx_HAL_Driver/Src/stm32f1xx_hal_tim.c ****     case TIM_CHANNEL_4:
 742:Drivers/STM32F1xx_HAL_Driver/Src/stm32f1xx_hal_tim.c ****     {
 743:Drivers/STM32F1xx_HAL_Driver/Src/stm32f1xx_hal_tim.c ****       /* Disable the TIM Capture/Compare 4 interrupt */
 744:Drivers/STM32F1xx_HAL_Driver/Src/stm32f1xx_hal_tim.c ****       __HAL_TIM_DISABLE_IT(htim, TIM_IT_CC4);
 745:Drivers/STM32F1xx_HAL_Driver/Src/stm32f1xx_hal_tim.c ****     }
 746:Drivers/STM32F1xx_HAL_Driver/Src/stm32f1xx_hal_tim.c ****     break;
 747:Drivers/STM32F1xx_HAL_Driver/Src/stm32f1xx_hal_tim.c **** 
 748:Drivers/STM32F1xx_HAL_Driver/Src/stm32f1xx_hal_tim.c ****     default:
 749:Drivers/STM32F1xx_HAL_Driver/Src/stm32f1xx_hal_tim.c ****     break;
 750:Drivers/STM32F1xx_HAL_Driver/Src/stm32f1xx_hal_tim.c ****   }
 751:Drivers/STM32F1xx_HAL_Driver/Src/stm32f1xx_hal_tim.c **** 
 752:Drivers/STM32F1xx_HAL_Driver/Src/stm32f1xx_hal_tim.c ****   /* Disable the Output compare channel */
 753:Drivers/STM32F1xx_HAL_Driver/Src/stm32f1xx_hal_tim.c ****   TIM_CCxChannelCmd(htim->Instance, Channel, TIM_CCx_DISABLE);
 754:Drivers/STM32F1xx_HAL_Driver/Src/stm32f1xx_hal_tim.c **** 
 755:Drivers/STM32F1xx_HAL_Driver/Src/stm32f1xx_hal_tim.c ****   if(IS_TIM_BREAK_INSTANCE(htim->Instance) != RESET)
 756:Drivers/STM32F1xx_HAL_Driver/Src/stm32f1xx_hal_tim.c ****   {
 757:Drivers/STM32F1xx_HAL_Driver/Src/stm32f1xx_hal_tim.c ****     /* Disable the Main Ouput */
 758:Drivers/STM32F1xx_HAL_Driver/Src/stm32f1xx_hal_tim.c ****     __HAL_TIM_MOE_DISABLE(htim);
 759:Drivers/STM32F1xx_HAL_Driver/Src/stm32f1xx_hal_tim.c ****   }
 760:Drivers/STM32F1xx_HAL_Driver/Src/stm32f1xx_hal_tim.c **** 
 761:Drivers/STM32F1xx_HAL_Driver/Src/stm32f1xx_hal_tim.c ****   /* Disable the Peripheral */
 762:Drivers/STM32F1xx_HAL_Driver/Src/stm32f1xx_hal_tim.c ****   __HAL_TIM_DISABLE(htim);
 763:Drivers/STM32F1xx_HAL_Driver/Src/stm32f1xx_hal_tim.c **** 
 764:Drivers/STM32F1xx_HAL_Driver/Src/stm32f1xx_hal_tim.c ****   /* Return function status */
 765:Drivers/STM32F1xx_HAL_Driver/Src/stm32f1xx_hal_tim.c ****   return HAL_OK;
 766:Drivers/STM32F1xx_HAL_Driver/Src/stm32f1xx_hal_tim.c **** }
 767:Drivers/STM32F1xx_HAL_Driver/Src/stm32f1xx_hal_tim.c **** 
 768:Drivers/STM32F1xx_HAL_Driver/Src/stm32f1xx_hal_tim.c **** /**
 769:Drivers/STM32F1xx_HAL_Driver/Src/stm32f1xx_hal_tim.c ****   * @brief  Starts the TIM Output Compare signal generation in DMA mode.
 770:Drivers/STM32F1xx_HAL_Driver/Src/stm32f1xx_hal_tim.c ****   * @param  htim : TIM Output Compare handle
 771:Drivers/STM32F1xx_HAL_Driver/Src/stm32f1xx_hal_tim.c ****   * @param  Channel : TIM Channel to be enabled
 772:Drivers/STM32F1xx_HAL_Driver/Src/stm32f1xx_hal_tim.c ****   *          This parameter can be one of the following values:
ARM GAS  /tmp/ccIpqr7A.s 			page 16


 773:Drivers/STM32F1xx_HAL_Driver/Src/stm32f1xx_hal_tim.c ****   *            @arg TIM_CHANNEL_1: TIM Channel 1 selected
 774:Drivers/STM32F1xx_HAL_Driver/Src/stm32f1xx_hal_tim.c ****   *            @arg TIM_CHANNEL_2: TIM Channel 2 selected
 775:Drivers/STM32F1xx_HAL_Driver/Src/stm32f1xx_hal_tim.c ****   *            @arg TIM_CHANNEL_3: TIM Channel 3 selected
 776:Drivers/STM32F1xx_HAL_Driver/Src/stm32f1xx_hal_tim.c ****   *            @arg TIM_CHANNEL_4: TIM Channel 4 selected
 777:Drivers/STM32F1xx_HAL_Driver/Src/stm32f1xx_hal_tim.c ****   * @param  pData : The source Buffer address.
 778:Drivers/STM32F1xx_HAL_Driver/Src/stm32f1xx_hal_tim.c ****   * @param  Length : The length of data to be transferred from memory to TIM peripheral
 779:Drivers/STM32F1xx_HAL_Driver/Src/stm32f1xx_hal_tim.c ****   * @retval HAL status
 780:Drivers/STM32F1xx_HAL_Driver/Src/stm32f1xx_hal_tim.c **** */
 781:Drivers/STM32F1xx_HAL_Driver/Src/stm32f1xx_hal_tim.c **** HAL_StatusTypeDef HAL_TIM_OC_Start_DMA(TIM_HandleTypeDef *htim, uint32_t Channel, uint32_t *pData, 
 782:Drivers/STM32F1xx_HAL_Driver/Src/stm32f1xx_hal_tim.c **** {
 783:Drivers/STM32F1xx_HAL_Driver/Src/stm32f1xx_hal_tim.c ****   /* Check the parameters */
 784:Drivers/STM32F1xx_HAL_Driver/Src/stm32f1xx_hal_tim.c ****   assert_param(IS_TIM_CCX_INSTANCE(htim->Instance, Channel));
 785:Drivers/STM32F1xx_HAL_Driver/Src/stm32f1xx_hal_tim.c **** 
 786:Drivers/STM32F1xx_HAL_Driver/Src/stm32f1xx_hal_tim.c ****   if((htim->State == HAL_TIM_STATE_BUSY))
 787:Drivers/STM32F1xx_HAL_Driver/Src/stm32f1xx_hal_tim.c ****   {
 788:Drivers/STM32F1xx_HAL_Driver/Src/stm32f1xx_hal_tim.c ****      return HAL_BUSY;
 789:Drivers/STM32F1xx_HAL_Driver/Src/stm32f1xx_hal_tim.c ****   }
 790:Drivers/STM32F1xx_HAL_Driver/Src/stm32f1xx_hal_tim.c ****   else if((htim->State == HAL_TIM_STATE_READY))
 791:Drivers/STM32F1xx_HAL_Driver/Src/stm32f1xx_hal_tim.c ****   {
 792:Drivers/STM32F1xx_HAL_Driver/Src/stm32f1xx_hal_tim.c ****     if(((uint32_t)pData == 0U) && (Length > 0U))
 793:Drivers/STM32F1xx_HAL_Driver/Src/stm32f1xx_hal_tim.c ****     {
 794:Drivers/STM32F1xx_HAL_Driver/Src/stm32f1xx_hal_tim.c ****       return HAL_ERROR;
 795:Drivers/STM32F1xx_HAL_Driver/Src/stm32f1xx_hal_tim.c ****     }
 796:Drivers/STM32F1xx_HAL_Driver/Src/stm32f1xx_hal_tim.c ****     else
 797:Drivers/STM32F1xx_HAL_Driver/Src/stm32f1xx_hal_tim.c ****     {
 798:Drivers/STM32F1xx_HAL_Driver/Src/stm32f1xx_hal_tim.c ****       htim->State = HAL_TIM_STATE_BUSY;
 799:Drivers/STM32F1xx_HAL_Driver/Src/stm32f1xx_hal_tim.c ****     }
 800:Drivers/STM32F1xx_HAL_Driver/Src/stm32f1xx_hal_tim.c ****   }
 801:Drivers/STM32F1xx_HAL_Driver/Src/stm32f1xx_hal_tim.c ****   switch (Channel)
 802:Drivers/STM32F1xx_HAL_Driver/Src/stm32f1xx_hal_tim.c ****   {
 803:Drivers/STM32F1xx_HAL_Driver/Src/stm32f1xx_hal_tim.c ****     case TIM_CHANNEL_1:
 804:Drivers/STM32F1xx_HAL_Driver/Src/stm32f1xx_hal_tim.c ****     {
 805:Drivers/STM32F1xx_HAL_Driver/Src/stm32f1xx_hal_tim.c ****       /* Set the DMA Period elapsed callback */
 806:Drivers/STM32F1xx_HAL_Driver/Src/stm32f1xx_hal_tim.c ****       htim->hdma[TIM_DMA_ID_CC1]->XferCpltCallback = TIM_DMADelayPulseCplt;
 807:Drivers/STM32F1xx_HAL_Driver/Src/stm32f1xx_hal_tim.c **** 
 808:Drivers/STM32F1xx_HAL_Driver/Src/stm32f1xx_hal_tim.c ****       /* Set the DMA error callback */
 809:Drivers/STM32F1xx_HAL_Driver/Src/stm32f1xx_hal_tim.c ****       htim->hdma[TIM_DMA_ID_CC1]->XferErrorCallback = TIM_DMAError ;
 810:Drivers/STM32F1xx_HAL_Driver/Src/stm32f1xx_hal_tim.c **** 
 811:Drivers/STM32F1xx_HAL_Driver/Src/stm32f1xx_hal_tim.c ****       /* Enable the DMA channel */
 812:Drivers/STM32F1xx_HAL_Driver/Src/stm32f1xx_hal_tim.c ****       HAL_DMA_Start_IT(htim->hdma[TIM_DMA_ID_CC1], (uint32_t)pData, (uint32_t)&htim->Instance->CCR1
 813:Drivers/STM32F1xx_HAL_Driver/Src/stm32f1xx_hal_tim.c **** 
 814:Drivers/STM32F1xx_HAL_Driver/Src/stm32f1xx_hal_tim.c ****       /* Enable the TIM Capture/Compare 1 DMA request */
 815:Drivers/STM32F1xx_HAL_Driver/Src/stm32f1xx_hal_tim.c ****       __HAL_TIM_ENABLE_DMA(htim, TIM_DMA_CC1);
 816:Drivers/STM32F1xx_HAL_Driver/Src/stm32f1xx_hal_tim.c ****     }
 817:Drivers/STM32F1xx_HAL_Driver/Src/stm32f1xx_hal_tim.c ****     break;
 818:Drivers/STM32F1xx_HAL_Driver/Src/stm32f1xx_hal_tim.c **** 
 819:Drivers/STM32F1xx_HAL_Driver/Src/stm32f1xx_hal_tim.c ****     case TIM_CHANNEL_2:
 820:Drivers/STM32F1xx_HAL_Driver/Src/stm32f1xx_hal_tim.c ****     {
 821:Drivers/STM32F1xx_HAL_Driver/Src/stm32f1xx_hal_tim.c ****       /* Set the DMA Period elapsed callback */
 822:Drivers/STM32F1xx_HAL_Driver/Src/stm32f1xx_hal_tim.c ****       htim->hdma[TIM_DMA_ID_CC2]->XferCpltCallback = TIM_DMADelayPulseCplt;
 823:Drivers/STM32F1xx_HAL_Driver/Src/stm32f1xx_hal_tim.c **** 
 824:Drivers/STM32F1xx_HAL_Driver/Src/stm32f1xx_hal_tim.c ****       /* Set the DMA error callback */
 825:Drivers/STM32F1xx_HAL_Driver/Src/stm32f1xx_hal_tim.c ****       htim->hdma[TIM_DMA_ID_CC2]->XferErrorCallback = TIM_DMAError ;
 826:Drivers/STM32F1xx_HAL_Driver/Src/stm32f1xx_hal_tim.c **** 
 827:Drivers/STM32F1xx_HAL_Driver/Src/stm32f1xx_hal_tim.c ****       /* Enable the DMA channel */
 828:Drivers/STM32F1xx_HAL_Driver/Src/stm32f1xx_hal_tim.c ****       HAL_DMA_Start_IT(htim->hdma[TIM_DMA_ID_CC2], (uint32_t)pData, (uint32_t)&htim->Instance->CCR2
 829:Drivers/STM32F1xx_HAL_Driver/Src/stm32f1xx_hal_tim.c **** 
ARM GAS  /tmp/ccIpqr7A.s 			page 17


 830:Drivers/STM32F1xx_HAL_Driver/Src/stm32f1xx_hal_tim.c ****       /* Enable the TIM Capture/Compare 2 DMA request */
 831:Drivers/STM32F1xx_HAL_Driver/Src/stm32f1xx_hal_tim.c ****       __HAL_TIM_ENABLE_DMA(htim, TIM_DMA_CC2);
 832:Drivers/STM32F1xx_HAL_Driver/Src/stm32f1xx_hal_tim.c ****     }
 833:Drivers/STM32F1xx_HAL_Driver/Src/stm32f1xx_hal_tim.c ****     break;
 834:Drivers/STM32F1xx_HAL_Driver/Src/stm32f1xx_hal_tim.c **** 
 835:Drivers/STM32F1xx_HAL_Driver/Src/stm32f1xx_hal_tim.c ****     case TIM_CHANNEL_3:
 836:Drivers/STM32F1xx_HAL_Driver/Src/stm32f1xx_hal_tim.c ****     {
 837:Drivers/STM32F1xx_HAL_Driver/Src/stm32f1xx_hal_tim.c ****       /* Set the DMA Period elapsed callback */
 838:Drivers/STM32F1xx_HAL_Driver/Src/stm32f1xx_hal_tim.c ****       htim->hdma[TIM_DMA_ID_CC3]->XferCpltCallback = TIM_DMADelayPulseCplt;
 839:Drivers/STM32F1xx_HAL_Driver/Src/stm32f1xx_hal_tim.c **** 
 840:Drivers/STM32F1xx_HAL_Driver/Src/stm32f1xx_hal_tim.c ****       /* Set the DMA error callback */
 841:Drivers/STM32F1xx_HAL_Driver/Src/stm32f1xx_hal_tim.c ****       htim->hdma[TIM_DMA_ID_CC3]->XferErrorCallback = TIM_DMAError ;
 842:Drivers/STM32F1xx_HAL_Driver/Src/stm32f1xx_hal_tim.c **** 
 843:Drivers/STM32F1xx_HAL_Driver/Src/stm32f1xx_hal_tim.c ****       /* Enable the DMA channel */
 844:Drivers/STM32F1xx_HAL_Driver/Src/stm32f1xx_hal_tim.c ****       HAL_DMA_Start_IT(htim->hdma[TIM_DMA_ID_CC3], (uint32_t)pData, (uint32_t)&htim->Instance->CCR3
 845:Drivers/STM32F1xx_HAL_Driver/Src/stm32f1xx_hal_tim.c **** 
 846:Drivers/STM32F1xx_HAL_Driver/Src/stm32f1xx_hal_tim.c ****       /* Enable the TIM Capture/Compare 3 DMA request */
 847:Drivers/STM32F1xx_HAL_Driver/Src/stm32f1xx_hal_tim.c ****       __HAL_TIM_ENABLE_DMA(htim, TIM_DMA_CC3);
 848:Drivers/STM32F1xx_HAL_Driver/Src/stm32f1xx_hal_tim.c ****     }
 849:Drivers/STM32F1xx_HAL_Driver/Src/stm32f1xx_hal_tim.c ****     break;
 850:Drivers/STM32F1xx_HAL_Driver/Src/stm32f1xx_hal_tim.c **** 
 851:Drivers/STM32F1xx_HAL_Driver/Src/stm32f1xx_hal_tim.c ****     case TIM_CHANNEL_4:
 852:Drivers/STM32F1xx_HAL_Driver/Src/stm32f1xx_hal_tim.c ****     {
 853:Drivers/STM32F1xx_HAL_Driver/Src/stm32f1xx_hal_tim.c ****      /* Set the DMA Period elapsed callback */
 854:Drivers/STM32F1xx_HAL_Driver/Src/stm32f1xx_hal_tim.c ****       htim->hdma[TIM_DMA_ID_CC4]->XferCpltCallback = TIM_DMADelayPulseCplt;
 855:Drivers/STM32F1xx_HAL_Driver/Src/stm32f1xx_hal_tim.c **** 
 856:Drivers/STM32F1xx_HAL_Driver/Src/stm32f1xx_hal_tim.c ****       /* Set the DMA error callback */
 857:Drivers/STM32F1xx_HAL_Driver/Src/stm32f1xx_hal_tim.c ****       htim->hdma[TIM_DMA_ID_CC4]->XferErrorCallback = TIM_DMAError ;
 858:Drivers/STM32F1xx_HAL_Driver/Src/stm32f1xx_hal_tim.c **** 
 859:Drivers/STM32F1xx_HAL_Driver/Src/stm32f1xx_hal_tim.c ****       /* Enable the DMA channel */
 860:Drivers/STM32F1xx_HAL_Driver/Src/stm32f1xx_hal_tim.c ****       HAL_DMA_Start_IT(htim->hdma[TIM_DMA_ID_CC4], (uint32_t)pData, (uint32_t)&htim->Instance->CCR4
 861:Drivers/STM32F1xx_HAL_Driver/Src/stm32f1xx_hal_tim.c **** 
 862:Drivers/STM32F1xx_HAL_Driver/Src/stm32f1xx_hal_tim.c ****       /* Enable the TIM Capture/Compare 4 DMA request */
 863:Drivers/STM32F1xx_HAL_Driver/Src/stm32f1xx_hal_tim.c ****       __HAL_TIM_ENABLE_DMA(htim, TIM_DMA_CC4);
 864:Drivers/STM32F1xx_HAL_Driver/Src/stm32f1xx_hal_tim.c ****     }
 865:Drivers/STM32F1xx_HAL_Driver/Src/stm32f1xx_hal_tim.c ****     break;
 866:Drivers/STM32F1xx_HAL_Driver/Src/stm32f1xx_hal_tim.c **** 
 867:Drivers/STM32F1xx_HAL_Driver/Src/stm32f1xx_hal_tim.c ****     default:
 868:Drivers/STM32F1xx_HAL_Driver/Src/stm32f1xx_hal_tim.c ****     break;
 869:Drivers/STM32F1xx_HAL_Driver/Src/stm32f1xx_hal_tim.c ****   }
 870:Drivers/STM32F1xx_HAL_Driver/Src/stm32f1xx_hal_tim.c **** 
 871:Drivers/STM32F1xx_HAL_Driver/Src/stm32f1xx_hal_tim.c ****   /* Enable the Output compare channel */
 872:Drivers/STM32F1xx_HAL_Driver/Src/stm32f1xx_hal_tim.c ****   TIM_CCxChannelCmd(htim->Instance, Channel, TIM_CCx_ENABLE);
 873:Drivers/STM32F1xx_HAL_Driver/Src/stm32f1xx_hal_tim.c **** 
 874:Drivers/STM32F1xx_HAL_Driver/Src/stm32f1xx_hal_tim.c ****   if(IS_TIM_BREAK_INSTANCE(htim->Instance) != RESET)
 875:Drivers/STM32F1xx_HAL_Driver/Src/stm32f1xx_hal_tim.c ****   {
 876:Drivers/STM32F1xx_HAL_Driver/Src/stm32f1xx_hal_tim.c ****     /* Enable the main output */
 877:Drivers/STM32F1xx_HAL_Driver/Src/stm32f1xx_hal_tim.c ****     __HAL_TIM_MOE_ENABLE(htim);
 878:Drivers/STM32F1xx_HAL_Driver/Src/stm32f1xx_hal_tim.c ****   }
 879:Drivers/STM32F1xx_HAL_Driver/Src/stm32f1xx_hal_tim.c **** 
 880:Drivers/STM32F1xx_HAL_Driver/Src/stm32f1xx_hal_tim.c ****   /* Enable the Peripheral */
 881:Drivers/STM32F1xx_HAL_Driver/Src/stm32f1xx_hal_tim.c ****   __HAL_TIM_ENABLE(htim);
 882:Drivers/STM32F1xx_HAL_Driver/Src/stm32f1xx_hal_tim.c **** 
 883:Drivers/STM32F1xx_HAL_Driver/Src/stm32f1xx_hal_tim.c ****   /* Return function status */
 884:Drivers/STM32F1xx_HAL_Driver/Src/stm32f1xx_hal_tim.c ****   return HAL_OK;
 885:Drivers/STM32F1xx_HAL_Driver/Src/stm32f1xx_hal_tim.c **** }
 886:Drivers/STM32F1xx_HAL_Driver/Src/stm32f1xx_hal_tim.c **** 
ARM GAS  /tmp/ccIpqr7A.s 			page 18


 887:Drivers/STM32F1xx_HAL_Driver/Src/stm32f1xx_hal_tim.c **** /**
 888:Drivers/STM32F1xx_HAL_Driver/Src/stm32f1xx_hal_tim.c ****   * @brief  Stops the TIM Output Compare signal generation in DMA mode.
 889:Drivers/STM32F1xx_HAL_Driver/Src/stm32f1xx_hal_tim.c ****   * @param  htim : TIM Output Compare handle
 890:Drivers/STM32F1xx_HAL_Driver/Src/stm32f1xx_hal_tim.c ****   * @param  Channel : TIM Channel to be disabled
 891:Drivers/STM32F1xx_HAL_Driver/Src/stm32f1xx_hal_tim.c ****   *          This parameter can be one of the following values:
 892:Drivers/STM32F1xx_HAL_Driver/Src/stm32f1xx_hal_tim.c ****   *            @arg TIM_CHANNEL_1: TIM Channel 1 selected
 893:Drivers/STM32F1xx_HAL_Driver/Src/stm32f1xx_hal_tim.c ****   *            @arg TIM_CHANNEL_2: TIM Channel 2 selected
 894:Drivers/STM32F1xx_HAL_Driver/Src/stm32f1xx_hal_tim.c ****   *            @arg TIM_CHANNEL_3: TIM Channel 3 selected
 895:Drivers/STM32F1xx_HAL_Driver/Src/stm32f1xx_hal_tim.c ****   *            @arg TIM_CHANNEL_4: TIM Channel 4 selected
 896:Drivers/STM32F1xx_HAL_Driver/Src/stm32f1xx_hal_tim.c ****   * @retval HAL status
 897:Drivers/STM32F1xx_HAL_Driver/Src/stm32f1xx_hal_tim.c **** */
 898:Drivers/STM32F1xx_HAL_Driver/Src/stm32f1xx_hal_tim.c **** HAL_StatusTypeDef HAL_TIM_OC_Stop_DMA(TIM_HandleTypeDef *htim, uint32_t Channel)
 899:Drivers/STM32F1xx_HAL_Driver/Src/stm32f1xx_hal_tim.c **** {
 900:Drivers/STM32F1xx_HAL_Driver/Src/stm32f1xx_hal_tim.c ****   /* Check the parameters */
 901:Drivers/STM32F1xx_HAL_Driver/Src/stm32f1xx_hal_tim.c ****   assert_param(IS_TIM_CCX_INSTANCE(htim->Instance, Channel));
 902:Drivers/STM32F1xx_HAL_Driver/Src/stm32f1xx_hal_tim.c **** 
 903:Drivers/STM32F1xx_HAL_Driver/Src/stm32f1xx_hal_tim.c ****   switch (Channel)
 904:Drivers/STM32F1xx_HAL_Driver/Src/stm32f1xx_hal_tim.c ****   {
 905:Drivers/STM32F1xx_HAL_Driver/Src/stm32f1xx_hal_tim.c ****     case TIM_CHANNEL_1:
 906:Drivers/STM32F1xx_HAL_Driver/Src/stm32f1xx_hal_tim.c ****     {
 907:Drivers/STM32F1xx_HAL_Driver/Src/stm32f1xx_hal_tim.c ****       /* Disable the TIM Capture/Compare 1 DMA request */
 908:Drivers/STM32F1xx_HAL_Driver/Src/stm32f1xx_hal_tim.c ****       __HAL_TIM_DISABLE_DMA(htim, TIM_DMA_CC1);
 909:Drivers/STM32F1xx_HAL_Driver/Src/stm32f1xx_hal_tim.c ****     }
 910:Drivers/STM32F1xx_HAL_Driver/Src/stm32f1xx_hal_tim.c ****     break;
 911:Drivers/STM32F1xx_HAL_Driver/Src/stm32f1xx_hal_tim.c **** 
 912:Drivers/STM32F1xx_HAL_Driver/Src/stm32f1xx_hal_tim.c ****     case TIM_CHANNEL_2:
 913:Drivers/STM32F1xx_HAL_Driver/Src/stm32f1xx_hal_tim.c ****     {
 914:Drivers/STM32F1xx_HAL_Driver/Src/stm32f1xx_hal_tim.c ****       /* Disable the TIM Capture/Compare 2 DMA request */
 915:Drivers/STM32F1xx_HAL_Driver/Src/stm32f1xx_hal_tim.c ****       __HAL_TIM_DISABLE_DMA(htim, TIM_DMA_CC2);
 916:Drivers/STM32F1xx_HAL_Driver/Src/stm32f1xx_hal_tim.c ****     }
 917:Drivers/STM32F1xx_HAL_Driver/Src/stm32f1xx_hal_tim.c ****     break;
 918:Drivers/STM32F1xx_HAL_Driver/Src/stm32f1xx_hal_tim.c **** 
 919:Drivers/STM32F1xx_HAL_Driver/Src/stm32f1xx_hal_tim.c ****     case TIM_CHANNEL_3:
 920:Drivers/STM32F1xx_HAL_Driver/Src/stm32f1xx_hal_tim.c ****     {
 921:Drivers/STM32F1xx_HAL_Driver/Src/stm32f1xx_hal_tim.c ****       /* Disable the TIM Capture/Compare 3 DMA request */
 922:Drivers/STM32F1xx_HAL_Driver/Src/stm32f1xx_hal_tim.c ****       __HAL_TIM_DISABLE_DMA(htim, TIM_DMA_CC3);
 923:Drivers/STM32F1xx_HAL_Driver/Src/stm32f1xx_hal_tim.c ****     }
 924:Drivers/STM32F1xx_HAL_Driver/Src/stm32f1xx_hal_tim.c ****     break;
 925:Drivers/STM32F1xx_HAL_Driver/Src/stm32f1xx_hal_tim.c **** 
 926:Drivers/STM32F1xx_HAL_Driver/Src/stm32f1xx_hal_tim.c ****     case TIM_CHANNEL_4:
 927:Drivers/STM32F1xx_HAL_Driver/Src/stm32f1xx_hal_tim.c ****     {
 928:Drivers/STM32F1xx_HAL_Driver/Src/stm32f1xx_hal_tim.c ****       /* Disable the TIM Capture/Compare 4 interrupt */
 929:Drivers/STM32F1xx_HAL_Driver/Src/stm32f1xx_hal_tim.c ****       __HAL_TIM_DISABLE_DMA(htim, TIM_DMA_CC4);
 930:Drivers/STM32F1xx_HAL_Driver/Src/stm32f1xx_hal_tim.c ****     }
 931:Drivers/STM32F1xx_HAL_Driver/Src/stm32f1xx_hal_tim.c ****     break;
 932:Drivers/STM32F1xx_HAL_Driver/Src/stm32f1xx_hal_tim.c **** 
 933:Drivers/STM32F1xx_HAL_Driver/Src/stm32f1xx_hal_tim.c ****     default:
 934:Drivers/STM32F1xx_HAL_Driver/Src/stm32f1xx_hal_tim.c ****     break;
 935:Drivers/STM32F1xx_HAL_Driver/Src/stm32f1xx_hal_tim.c ****   }
 936:Drivers/STM32F1xx_HAL_Driver/Src/stm32f1xx_hal_tim.c **** 
 937:Drivers/STM32F1xx_HAL_Driver/Src/stm32f1xx_hal_tim.c ****   /* Disable the Output compare channel */
 938:Drivers/STM32F1xx_HAL_Driver/Src/stm32f1xx_hal_tim.c ****   TIM_CCxChannelCmd(htim->Instance, Channel, TIM_CCx_DISABLE);
 939:Drivers/STM32F1xx_HAL_Driver/Src/stm32f1xx_hal_tim.c **** 
 940:Drivers/STM32F1xx_HAL_Driver/Src/stm32f1xx_hal_tim.c ****   if(IS_TIM_BREAK_INSTANCE(htim->Instance) != RESET)
 941:Drivers/STM32F1xx_HAL_Driver/Src/stm32f1xx_hal_tim.c ****   {
 942:Drivers/STM32F1xx_HAL_Driver/Src/stm32f1xx_hal_tim.c ****     /* Disable the Main Ouput */
 943:Drivers/STM32F1xx_HAL_Driver/Src/stm32f1xx_hal_tim.c ****     __HAL_TIM_MOE_DISABLE(htim);
ARM GAS  /tmp/ccIpqr7A.s 			page 19


 944:Drivers/STM32F1xx_HAL_Driver/Src/stm32f1xx_hal_tim.c ****   }
 945:Drivers/STM32F1xx_HAL_Driver/Src/stm32f1xx_hal_tim.c **** 
 946:Drivers/STM32F1xx_HAL_Driver/Src/stm32f1xx_hal_tim.c ****   /* Disable the Peripheral */
 947:Drivers/STM32F1xx_HAL_Driver/Src/stm32f1xx_hal_tim.c ****   __HAL_TIM_DISABLE(htim);
 948:Drivers/STM32F1xx_HAL_Driver/Src/stm32f1xx_hal_tim.c **** 
 949:Drivers/STM32F1xx_HAL_Driver/Src/stm32f1xx_hal_tim.c ****   /* Change the htim state */
 950:Drivers/STM32F1xx_HAL_Driver/Src/stm32f1xx_hal_tim.c ****   htim->State = HAL_TIM_STATE_READY;
 951:Drivers/STM32F1xx_HAL_Driver/Src/stm32f1xx_hal_tim.c **** 
 952:Drivers/STM32F1xx_HAL_Driver/Src/stm32f1xx_hal_tim.c ****   /* Return function status */
 953:Drivers/STM32F1xx_HAL_Driver/Src/stm32f1xx_hal_tim.c ****   return HAL_OK;
 954:Drivers/STM32F1xx_HAL_Driver/Src/stm32f1xx_hal_tim.c **** }
 955:Drivers/STM32F1xx_HAL_Driver/Src/stm32f1xx_hal_tim.c **** 
 956:Drivers/STM32F1xx_HAL_Driver/Src/stm32f1xx_hal_tim.c **** /**
 957:Drivers/STM32F1xx_HAL_Driver/Src/stm32f1xx_hal_tim.c ****   * @}
 958:Drivers/STM32F1xx_HAL_Driver/Src/stm32f1xx_hal_tim.c ****   */
 959:Drivers/STM32F1xx_HAL_Driver/Src/stm32f1xx_hal_tim.c **** 
 960:Drivers/STM32F1xx_HAL_Driver/Src/stm32f1xx_hal_tim.c **** /** @defgroup TIM_Exported_Functions_Group3 Time PWM functions 
 961:Drivers/STM32F1xx_HAL_Driver/Src/stm32f1xx_hal_tim.c ****  *  @brief    Time PWM functions 
 962:Drivers/STM32F1xx_HAL_Driver/Src/stm32f1xx_hal_tim.c ****  *
 963:Drivers/STM32F1xx_HAL_Driver/Src/stm32f1xx_hal_tim.c **** @verbatim 
 964:Drivers/STM32F1xx_HAL_Driver/Src/stm32f1xx_hal_tim.c ****   ==============================================================================
 965:Drivers/STM32F1xx_HAL_Driver/Src/stm32f1xx_hal_tim.c ****                           ##### Time PWM functions #####
 966:Drivers/STM32F1xx_HAL_Driver/Src/stm32f1xx_hal_tim.c ****   ==============================================================================
 967:Drivers/STM32F1xx_HAL_Driver/Src/stm32f1xx_hal_tim.c ****   [..]
 968:Drivers/STM32F1xx_HAL_Driver/Src/stm32f1xx_hal_tim.c ****     This section provides functions allowing to:
 969:Drivers/STM32F1xx_HAL_Driver/Src/stm32f1xx_hal_tim.c ****     (+) Initialize and configure the TIM PWM.
 970:Drivers/STM32F1xx_HAL_Driver/Src/stm32f1xx_hal_tim.c ****     (+) De-initialize the TIM PWM.
 971:Drivers/STM32F1xx_HAL_Driver/Src/stm32f1xx_hal_tim.c ****     (+) Start the Time PWM.
 972:Drivers/STM32F1xx_HAL_Driver/Src/stm32f1xx_hal_tim.c ****     (+) Stop the Time PWM.
 973:Drivers/STM32F1xx_HAL_Driver/Src/stm32f1xx_hal_tim.c ****     (+) Start the Time PWM and enable interrupt.
 974:Drivers/STM32F1xx_HAL_Driver/Src/stm32f1xx_hal_tim.c ****     (+) Stop the Time PWM and disable interrupt.
 975:Drivers/STM32F1xx_HAL_Driver/Src/stm32f1xx_hal_tim.c ****     (+) Start the Time PWM and enable DMA transfer.
 976:Drivers/STM32F1xx_HAL_Driver/Src/stm32f1xx_hal_tim.c ****     (+) Stop the Time PWM and disable DMA transfer.
 977:Drivers/STM32F1xx_HAL_Driver/Src/stm32f1xx_hal_tim.c **** 
 978:Drivers/STM32F1xx_HAL_Driver/Src/stm32f1xx_hal_tim.c **** @endverbatim
 979:Drivers/STM32F1xx_HAL_Driver/Src/stm32f1xx_hal_tim.c ****   * @{
 980:Drivers/STM32F1xx_HAL_Driver/Src/stm32f1xx_hal_tim.c ****   */
 981:Drivers/STM32F1xx_HAL_Driver/Src/stm32f1xx_hal_tim.c **** /**
 982:Drivers/STM32F1xx_HAL_Driver/Src/stm32f1xx_hal_tim.c ****   * @brief  Initializes the TIM PWM Time Base according to the specified
 983:Drivers/STM32F1xx_HAL_Driver/Src/stm32f1xx_hal_tim.c ****   *         parameters in the TIM_HandleTypeDef and create the associated handle.
 984:Drivers/STM32F1xx_HAL_Driver/Src/stm32f1xx_hal_tim.c ****   * @param  htim : TIM handle
 985:Drivers/STM32F1xx_HAL_Driver/Src/stm32f1xx_hal_tim.c ****   * @retval HAL status
 986:Drivers/STM32F1xx_HAL_Driver/Src/stm32f1xx_hal_tim.c ****   */
 987:Drivers/STM32F1xx_HAL_Driver/Src/stm32f1xx_hal_tim.c **** HAL_StatusTypeDef HAL_TIM_PWM_Init(TIM_HandleTypeDef *htim)
 988:Drivers/STM32F1xx_HAL_Driver/Src/stm32f1xx_hal_tim.c **** {
 989:Drivers/STM32F1xx_HAL_Driver/Src/stm32f1xx_hal_tim.c ****   /* Check the TIM handle allocation */
 990:Drivers/STM32F1xx_HAL_Driver/Src/stm32f1xx_hal_tim.c ****   if(htim == NULL)
 991:Drivers/STM32F1xx_HAL_Driver/Src/stm32f1xx_hal_tim.c ****   {
 992:Drivers/STM32F1xx_HAL_Driver/Src/stm32f1xx_hal_tim.c ****     return HAL_ERROR;
 993:Drivers/STM32F1xx_HAL_Driver/Src/stm32f1xx_hal_tim.c ****   }
 994:Drivers/STM32F1xx_HAL_Driver/Src/stm32f1xx_hal_tim.c **** 
 995:Drivers/STM32F1xx_HAL_Driver/Src/stm32f1xx_hal_tim.c ****   /* Check the parameters */
 996:Drivers/STM32F1xx_HAL_Driver/Src/stm32f1xx_hal_tim.c ****   assert_param(IS_TIM_INSTANCE(htim->Instance));
 997:Drivers/STM32F1xx_HAL_Driver/Src/stm32f1xx_hal_tim.c ****   assert_param(IS_TIM_COUNTER_MODE(htim->Init.CounterMode));
 998:Drivers/STM32F1xx_HAL_Driver/Src/stm32f1xx_hal_tim.c ****   assert_param(IS_TIM_CLOCKDIVISION_DIV(htim->Init.ClockDivision));
 999:Drivers/STM32F1xx_HAL_Driver/Src/stm32f1xx_hal_tim.c ****   assert_param(IS_TIM_AUTORELOAD_PRELOAD(htim->Init.AutoReloadPreload));
1000:Drivers/STM32F1xx_HAL_Driver/Src/stm32f1xx_hal_tim.c **** 
ARM GAS  /tmp/ccIpqr7A.s 			page 20


1001:Drivers/STM32F1xx_HAL_Driver/Src/stm32f1xx_hal_tim.c ****   if(htim->State == HAL_TIM_STATE_RESET)
1002:Drivers/STM32F1xx_HAL_Driver/Src/stm32f1xx_hal_tim.c ****   {
1003:Drivers/STM32F1xx_HAL_Driver/Src/stm32f1xx_hal_tim.c ****     /* Allocate lock resource and initialize it */
1004:Drivers/STM32F1xx_HAL_Driver/Src/stm32f1xx_hal_tim.c ****     htim->Lock = HAL_UNLOCKED;
1005:Drivers/STM32F1xx_HAL_Driver/Src/stm32f1xx_hal_tim.c ****     
1006:Drivers/STM32F1xx_HAL_Driver/Src/stm32f1xx_hal_tim.c ****     /* Init the low level hardware : GPIO, CLOCK, NVIC and DMA */
1007:Drivers/STM32F1xx_HAL_Driver/Src/stm32f1xx_hal_tim.c ****     HAL_TIM_PWM_MspInit(htim);
1008:Drivers/STM32F1xx_HAL_Driver/Src/stm32f1xx_hal_tim.c ****   }
1009:Drivers/STM32F1xx_HAL_Driver/Src/stm32f1xx_hal_tim.c **** 
1010:Drivers/STM32F1xx_HAL_Driver/Src/stm32f1xx_hal_tim.c ****   /* Set the TIM state */
1011:Drivers/STM32F1xx_HAL_Driver/Src/stm32f1xx_hal_tim.c ****   htim->State= HAL_TIM_STATE_BUSY;
1012:Drivers/STM32F1xx_HAL_Driver/Src/stm32f1xx_hal_tim.c **** 
1013:Drivers/STM32F1xx_HAL_Driver/Src/stm32f1xx_hal_tim.c ****   /* Init the base time for the PWM */
1014:Drivers/STM32F1xx_HAL_Driver/Src/stm32f1xx_hal_tim.c ****   TIM_Base_SetConfig(htim->Instance, &htim->Init);
1015:Drivers/STM32F1xx_HAL_Driver/Src/stm32f1xx_hal_tim.c **** 
1016:Drivers/STM32F1xx_HAL_Driver/Src/stm32f1xx_hal_tim.c ****   /* Initialize the TIM state*/
1017:Drivers/STM32F1xx_HAL_Driver/Src/stm32f1xx_hal_tim.c ****   htim->State= HAL_TIM_STATE_READY;
1018:Drivers/STM32F1xx_HAL_Driver/Src/stm32f1xx_hal_tim.c **** 
1019:Drivers/STM32F1xx_HAL_Driver/Src/stm32f1xx_hal_tim.c ****   return HAL_OK;
1020:Drivers/STM32F1xx_HAL_Driver/Src/stm32f1xx_hal_tim.c **** }
1021:Drivers/STM32F1xx_HAL_Driver/Src/stm32f1xx_hal_tim.c **** 
1022:Drivers/STM32F1xx_HAL_Driver/Src/stm32f1xx_hal_tim.c **** /**
1023:Drivers/STM32F1xx_HAL_Driver/Src/stm32f1xx_hal_tim.c ****   * @brief  DeInitializes the TIM peripheral 
1024:Drivers/STM32F1xx_HAL_Driver/Src/stm32f1xx_hal_tim.c ****   * @param  htim : TIM handle
1025:Drivers/STM32F1xx_HAL_Driver/Src/stm32f1xx_hal_tim.c ****   * @retval HAL status
1026:Drivers/STM32F1xx_HAL_Driver/Src/stm32f1xx_hal_tim.c ****   */
1027:Drivers/STM32F1xx_HAL_Driver/Src/stm32f1xx_hal_tim.c **** HAL_StatusTypeDef HAL_TIM_PWM_DeInit(TIM_HandleTypeDef *htim)
1028:Drivers/STM32F1xx_HAL_Driver/Src/stm32f1xx_hal_tim.c **** {
1029:Drivers/STM32F1xx_HAL_Driver/Src/stm32f1xx_hal_tim.c ****   /* Check the parameters */
1030:Drivers/STM32F1xx_HAL_Driver/Src/stm32f1xx_hal_tim.c ****   assert_param(IS_TIM_INSTANCE(htim->Instance));
1031:Drivers/STM32F1xx_HAL_Driver/Src/stm32f1xx_hal_tim.c **** 
1032:Drivers/STM32F1xx_HAL_Driver/Src/stm32f1xx_hal_tim.c ****   htim->State = HAL_TIM_STATE_BUSY;
1033:Drivers/STM32F1xx_HAL_Driver/Src/stm32f1xx_hal_tim.c **** 
1034:Drivers/STM32F1xx_HAL_Driver/Src/stm32f1xx_hal_tim.c ****   /* Disable the TIM Peripheral Clock */
1035:Drivers/STM32F1xx_HAL_Driver/Src/stm32f1xx_hal_tim.c ****   __HAL_TIM_DISABLE(htim);
1036:Drivers/STM32F1xx_HAL_Driver/Src/stm32f1xx_hal_tim.c **** 
1037:Drivers/STM32F1xx_HAL_Driver/Src/stm32f1xx_hal_tim.c ****   /* DeInit the low level hardware: GPIO, CLOCK, NVIC and DMA */
1038:Drivers/STM32F1xx_HAL_Driver/Src/stm32f1xx_hal_tim.c ****   HAL_TIM_PWM_MspDeInit(htim);
1039:Drivers/STM32F1xx_HAL_Driver/Src/stm32f1xx_hal_tim.c **** 
1040:Drivers/STM32F1xx_HAL_Driver/Src/stm32f1xx_hal_tim.c ****   /* Change TIM state */
1041:Drivers/STM32F1xx_HAL_Driver/Src/stm32f1xx_hal_tim.c ****   htim->State = HAL_TIM_STATE_RESET;
1042:Drivers/STM32F1xx_HAL_Driver/Src/stm32f1xx_hal_tim.c **** 
1043:Drivers/STM32F1xx_HAL_Driver/Src/stm32f1xx_hal_tim.c ****   /* Release Lock */
1044:Drivers/STM32F1xx_HAL_Driver/Src/stm32f1xx_hal_tim.c ****   __HAL_UNLOCK(htim);
1045:Drivers/STM32F1xx_HAL_Driver/Src/stm32f1xx_hal_tim.c **** 
1046:Drivers/STM32F1xx_HAL_Driver/Src/stm32f1xx_hal_tim.c ****   return HAL_OK;
1047:Drivers/STM32F1xx_HAL_Driver/Src/stm32f1xx_hal_tim.c **** }
1048:Drivers/STM32F1xx_HAL_Driver/Src/stm32f1xx_hal_tim.c **** 
1049:Drivers/STM32F1xx_HAL_Driver/Src/stm32f1xx_hal_tim.c **** /**
1050:Drivers/STM32F1xx_HAL_Driver/Src/stm32f1xx_hal_tim.c ****   * @brief  Initializes the TIM PWM MSP.
1051:Drivers/STM32F1xx_HAL_Driver/Src/stm32f1xx_hal_tim.c ****   * @param  htim : TIM handle
1052:Drivers/STM32F1xx_HAL_Driver/Src/stm32f1xx_hal_tim.c ****   * @retval None
1053:Drivers/STM32F1xx_HAL_Driver/Src/stm32f1xx_hal_tim.c ****   */
1054:Drivers/STM32F1xx_HAL_Driver/Src/stm32f1xx_hal_tim.c **** __weak void HAL_TIM_PWM_MspInit(TIM_HandleTypeDef *htim)
1055:Drivers/STM32F1xx_HAL_Driver/Src/stm32f1xx_hal_tim.c **** {
1056:Drivers/STM32F1xx_HAL_Driver/Src/stm32f1xx_hal_tim.c ****   /* Prevent unused argument(s) compilation warning */
1057:Drivers/STM32F1xx_HAL_Driver/Src/stm32f1xx_hal_tim.c ****   UNUSED(htim);
ARM GAS  /tmp/ccIpqr7A.s 			page 21


1058:Drivers/STM32F1xx_HAL_Driver/Src/stm32f1xx_hal_tim.c ****   /* NOTE : This function Should not be modified, when the callback is needed,
1059:Drivers/STM32F1xx_HAL_Driver/Src/stm32f1xx_hal_tim.c ****             the HAL_TIM_PWM_MspInit could be implemented in the user file
1060:Drivers/STM32F1xx_HAL_Driver/Src/stm32f1xx_hal_tim.c ****    */
1061:Drivers/STM32F1xx_HAL_Driver/Src/stm32f1xx_hal_tim.c **** }
1062:Drivers/STM32F1xx_HAL_Driver/Src/stm32f1xx_hal_tim.c **** 
1063:Drivers/STM32F1xx_HAL_Driver/Src/stm32f1xx_hal_tim.c **** /**
1064:Drivers/STM32F1xx_HAL_Driver/Src/stm32f1xx_hal_tim.c ****   * @brief  DeInitializes TIM PWM MSP.
1065:Drivers/STM32F1xx_HAL_Driver/Src/stm32f1xx_hal_tim.c ****   * @param  htim : TIM handle
1066:Drivers/STM32F1xx_HAL_Driver/Src/stm32f1xx_hal_tim.c ****   * @retval None
1067:Drivers/STM32F1xx_HAL_Driver/Src/stm32f1xx_hal_tim.c ****   */
1068:Drivers/STM32F1xx_HAL_Driver/Src/stm32f1xx_hal_tim.c **** __weak void HAL_TIM_PWM_MspDeInit(TIM_HandleTypeDef *htim)
1069:Drivers/STM32F1xx_HAL_Driver/Src/stm32f1xx_hal_tim.c **** {
1070:Drivers/STM32F1xx_HAL_Driver/Src/stm32f1xx_hal_tim.c ****   /* Prevent unused argument(s) compilation warning */
1071:Drivers/STM32F1xx_HAL_Driver/Src/stm32f1xx_hal_tim.c ****   UNUSED(htim);
1072:Drivers/STM32F1xx_HAL_Driver/Src/stm32f1xx_hal_tim.c ****   /* NOTE : This function Should not be modified, when the callback is needed,
1073:Drivers/STM32F1xx_HAL_Driver/Src/stm32f1xx_hal_tim.c ****             the HAL_TIM_PWM_MspDeInit could be implemented in the user file
1074:Drivers/STM32F1xx_HAL_Driver/Src/stm32f1xx_hal_tim.c ****    */
1075:Drivers/STM32F1xx_HAL_Driver/Src/stm32f1xx_hal_tim.c **** }
1076:Drivers/STM32F1xx_HAL_Driver/Src/stm32f1xx_hal_tim.c **** 
1077:Drivers/STM32F1xx_HAL_Driver/Src/stm32f1xx_hal_tim.c **** /**
1078:Drivers/STM32F1xx_HAL_Driver/Src/stm32f1xx_hal_tim.c ****   * @brief  Starts the PWM signal generation.
1079:Drivers/STM32F1xx_HAL_Driver/Src/stm32f1xx_hal_tim.c ****   * @param  htim : TIM handle
1080:Drivers/STM32F1xx_HAL_Driver/Src/stm32f1xx_hal_tim.c ****   * @param  Channel : TIM Channels to be enabled
1081:Drivers/STM32F1xx_HAL_Driver/Src/stm32f1xx_hal_tim.c ****   *          This parameter can be one of the following values:
1082:Drivers/STM32F1xx_HAL_Driver/Src/stm32f1xx_hal_tim.c ****   *            @arg TIM_CHANNEL_1: TIM Channel 1 selected
1083:Drivers/STM32F1xx_HAL_Driver/Src/stm32f1xx_hal_tim.c ****   *            @arg TIM_CHANNEL_2: TIM Channel 2 selected
1084:Drivers/STM32F1xx_HAL_Driver/Src/stm32f1xx_hal_tim.c ****   *            @arg TIM_CHANNEL_3: TIM Channel 3 selected
1085:Drivers/STM32F1xx_HAL_Driver/Src/stm32f1xx_hal_tim.c ****   *            @arg TIM_CHANNEL_4: TIM Channel 4 selected
1086:Drivers/STM32F1xx_HAL_Driver/Src/stm32f1xx_hal_tim.c ****   * @retval HAL status
1087:Drivers/STM32F1xx_HAL_Driver/Src/stm32f1xx_hal_tim.c **** */
1088:Drivers/STM32F1xx_HAL_Driver/Src/stm32f1xx_hal_tim.c **** HAL_StatusTypeDef HAL_TIM_PWM_Start(TIM_HandleTypeDef *htim, uint32_t Channel)
1089:Drivers/STM32F1xx_HAL_Driver/Src/stm32f1xx_hal_tim.c **** {
1090:Drivers/STM32F1xx_HAL_Driver/Src/stm32f1xx_hal_tim.c ****   /* Check the parameters */
1091:Drivers/STM32F1xx_HAL_Driver/Src/stm32f1xx_hal_tim.c ****   assert_param(IS_TIM_CCX_INSTANCE(htim->Instance, Channel));
1092:Drivers/STM32F1xx_HAL_Driver/Src/stm32f1xx_hal_tim.c **** 
1093:Drivers/STM32F1xx_HAL_Driver/Src/stm32f1xx_hal_tim.c ****   /* Enable the Capture compare channel */
1094:Drivers/STM32F1xx_HAL_Driver/Src/stm32f1xx_hal_tim.c ****   TIM_CCxChannelCmd(htim->Instance, Channel, TIM_CCx_ENABLE);
1095:Drivers/STM32F1xx_HAL_Driver/Src/stm32f1xx_hal_tim.c **** 
1096:Drivers/STM32F1xx_HAL_Driver/Src/stm32f1xx_hal_tim.c ****   if(IS_TIM_BREAK_INSTANCE(htim->Instance) != RESET)
1097:Drivers/STM32F1xx_HAL_Driver/Src/stm32f1xx_hal_tim.c ****   {
1098:Drivers/STM32F1xx_HAL_Driver/Src/stm32f1xx_hal_tim.c ****     /* Enable the main output */
1099:Drivers/STM32F1xx_HAL_Driver/Src/stm32f1xx_hal_tim.c ****     __HAL_TIM_MOE_ENABLE(htim);
1100:Drivers/STM32F1xx_HAL_Driver/Src/stm32f1xx_hal_tim.c ****   }
1101:Drivers/STM32F1xx_HAL_Driver/Src/stm32f1xx_hal_tim.c **** 
1102:Drivers/STM32F1xx_HAL_Driver/Src/stm32f1xx_hal_tim.c ****   /* Enable the Peripheral */
1103:Drivers/STM32F1xx_HAL_Driver/Src/stm32f1xx_hal_tim.c ****   __HAL_TIM_ENABLE(htim);
1104:Drivers/STM32F1xx_HAL_Driver/Src/stm32f1xx_hal_tim.c **** 
1105:Drivers/STM32F1xx_HAL_Driver/Src/stm32f1xx_hal_tim.c ****   /* Return function status */
1106:Drivers/STM32F1xx_HAL_Driver/Src/stm32f1xx_hal_tim.c ****   return HAL_OK;
1107:Drivers/STM32F1xx_HAL_Driver/Src/stm32f1xx_hal_tim.c **** }
1108:Drivers/STM32F1xx_HAL_Driver/Src/stm32f1xx_hal_tim.c **** 
1109:Drivers/STM32F1xx_HAL_Driver/Src/stm32f1xx_hal_tim.c **** /**
1110:Drivers/STM32F1xx_HAL_Driver/Src/stm32f1xx_hal_tim.c ****   * @brief  Stops the PWM signal generation.
1111:Drivers/STM32F1xx_HAL_Driver/Src/stm32f1xx_hal_tim.c ****   * @param  htim : TIM handle
1112:Drivers/STM32F1xx_HAL_Driver/Src/stm32f1xx_hal_tim.c ****   * @param  Channel : TIM Channels to be disabled
1113:Drivers/STM32F1xx_HAL_Driver/Src/stm32f1xx_hal_tim.c ****   *          This parameter can be one of the following values:
1114:Drivers/STM32F1xx_HAL_Driver/Src/stm32f1xx_hal_tim.c ****   *            @arg TIM_CHANNEL_1: TIM Channel 1 selected
ARM GAS  /tmp/ccIpqr7A.s 			page 22


1115:Drivers/STM32F1xx_HAL_Driver/Src/stm32f1xx_hal_tim.c ****   *            @arg TIM_CHANNEL_2: TIM Channel 2 selected
1116:Drivers/STM32F1xx_HAL_Driver/Src/stm32f1xx_hal_tim.c ****   *            @arg TIM_CHANNEL_3: TIM Channel 3 selected
1117:Drivers/STM32F1xx_HAL_Driver/Src/stm32f1xx_hal_tim.c ****   *            @arg TIM_CHANNEL_4: TIM Channel 4 selected
1118:Drivers/STM32F1xx_HAL_Driver/Src/stm32f1xx_hal_tim.c ****   * @retval HAL status
1119:Drivers/STM32F1xx_HAL_Driver/Src/stm32f1xx_hal_tim.c **** */
1120:Drivers/STM32F1xx_HAL_Driver/Src/stm32f1xx_hal_tim.c **** HAL_StatusTypeDef HAL_TIM_PWM_Stop(TIM_HandleTypeDef *htim, uint32_t Channel)
1121:Drivers/STM32F1xx_HAL_Driver/Src/stm32f1xx_hal_tim.c **** {
1122:Drivers/STM32F1xx_HAL_Driver/Src/stm32f1xx_hal_tim.c ****   /* Check the parameters */
1123:Drivers/STM32F1xx_HAL_Driver/Src/stm32f1xx_hal_tim.c ****   assert_param(IS_TIM_CCX_INSTANCE(htim->Instance, Channel));
1124:Drivers/STM32F1xx_HAL_Driver/Src/stm32f1xx_hal_tim.c **** 
1125:Drivers/STM32F1xx_HAL_Driver/Src/stm32f1xx_hal_tim.c ****   /* Disable the Capture compare channel */
1126:Drivers/STM32F1xx_HAL_Driver/Src/stm32f1xx_hal_tim.c ****   TIM_CCxChannelCmd(htim->Instance, Channel, TIM_CCx_DISABLE);
1127:Drivers/STM32F1xx_HAL_Driver/Src/stm32f1xx_hal_tim.c **** 
1128:Drivers/STM32F1xx_HAL_Driver/Src/stm32f1xx_hal_tim.c ****   if(IS_TIM_BREAK_INSTANCE(htim->Instance) != RESET)
1129:Drivers/STM32F1xx_HAL_Driver/Src/stm32f1xx_hal_tim.c ****   {
1130:Drivers/STM32F1xx_HAL_Driver/Src/stm32f1xx_hal_tim.c ****     /* Disable the Main Ouput */
1131:Drivers/STM32F1xx_HAL_Driver/Src/stm32f1xx_hal_tim.c ****     __HAL_TIM_MOE_DISABLE(htim);
1132:Drivers/STM32F1xx_HAL_Driver/Src/stm32f1xx_hal_tim.c ****   }
1133:Drivers/STM32F1xx_HAL_Driver/Src/stm32f1xx_hal_tim.c **** 
1134:Drivers/STM32F1xx_HAL_Driver/Src/stm32f1xx_hal_tim.c ****   /* Disable the Peripheral */
1135:Drivers/STM32F1xx_HAL_Driver/Src/stm32f1xx_hal_tim.c ****   __HAL_TIM_DISABLE(htim);
1136:Drivers/STM32F1xx_HAL_Driver/Src/stm32f1xx_hal_tim.c **** 
1137:Drivers/STM32F1xx_HAL_Driver/Src/stm32f1xx_hal_tim.c ****   /* Change the htim state */
1138:Drivers/STM32F1xx_HAL_Driver/Src/stm32f1xx_hal_tim.c ****   htim->State = HAL_TIM_STATE_READY;
1139:Drivers/STM32F1xx_HAL_Driver/Src/stm32f1xx_hal_tim.c **** 
1140:Drivers/STM32F1xx_HAL_Driver/Src/stm32f1xx_hal_tim.c ****   /* Return function status */
1141:Drivers/STM32F1xx_HAL_Driver/Src/stm32f1xx_hal_tim.c ****   return HAL_OK;
1142:Drivers/STM32F1xx_HAL_Driver/Src/stm32f1xx_hal_tim.c **** }
1143:Drivers/STM32F1xx_HAL_Driver/Src/stm32f1xx_hal_tim.c **** 
1144:Drivers/STM32F1xx_HAL_Driver/Src/stm32f1xx_hal_tim.c **** /**
1145:Drivers/STM32F1xx_HAL_Driver/Src/stm32f1xx_hal_tim.c ****   * @brief  Starts the PWM signal generation in interrupt mode.
1146:Drivers/STM32F1xx_HAL_Driver/Src/stm32f1xx_hal_tim.c ****   * @param  htim : TIM handle
1147:Drivers/STM32F1xx_HAL_Driver/Src/stm32f1xx_hal_tim.c ****   * @param  Channel : TIM Channel to be enabled
1148:Drivers/STM32F1xx_HAL_Driver/Src/stm32f1xx_hal_tim.c ****   *          This parameter can be one of the following values:
1149:Drivers/STM32F1xx_HAL_Driver/Src/stm32f1xx_hal_tim.c ****   *            @arg TIM_CHANNEL_1: TIM Channel 1 selected
1150:Drivers/STM32F1xx_HAL_Driver/Src/stm32f1xx_hal_tim.c ****   *            @arg TIM_CHANNEL_2: TIM Channel 2 selected
1151:Drivers/STM32F1xx_HAL_Driver/Src/stm32f1xx_hal_tim.c ****   *            @arg TIM_CHANNEL_3: TIM Channel 3 selected
1152:Drivers/STM32F1xx_HAL_Driver/Src/stm32f1xx_hal_tim.c ****   *            @arg TIM_CHANNEL_4: TIM Channel 4 selected
1153:Drivers/STM32F1xx_HAL_Driver/Src/stm32f1xx_hal_tim.c ****   * @retval HAL status
1154:Drivers/STM32F1xx_HAL_Driver/Src/stm32f1xx_hal_tim.c **** */
1155:Drivers/STM32F1xx_HAL_Driver/Src/stm32f1xx_hal_tim.c **** HAL_StatusTypeDef HAL_TIM_PWM_Start_IT(TIM_HandleTypeDef *htim, uint32_t Channel)
1156:Drivers/STM32F1xx_HAL_Driver/Src/stm32f1xx_hal_tim.c **** {
1157:Drivers/STM32F1xx_HAL_Driver/Src/stm32f1xx_hal_tim.c ****   /* Check the parameters */
1158:Drivers/STM32F1xx_HAL_Driver/Src/stm32f1xx_hal_tim.c ****   assert_param(IS_TIM_CCX_INSTANCE(htim->Instance, Channel));
1159:Drivers/STM32F1xx_HAL_Driver/Src/stm32f1xx_hal_tim.c **** 
1160:Drivers/STM32F1xx_HAL_Driver/Src/stm32f1xx_hal_tim.c ****   switch (Channel)
1161:Drivers/STM32F1xx_HAL_Driver/Src/stm32f1xx_hal_tim.c ****   {
1162:Drivers/STM32F1xx_HAL_Driver/Src/stm32f1xx_hal_tim.c ****     case TIM_CHANNEL_1:
1163:Drivers/STM32F1xx_HAL_Driver/Src/stm32f1xx_hal_tim.c ****     {
1164:Drivers/STM32F1xx_HAL_Driver/Src/stm32f1xx_hal_tim.c ****       /* Enable the TIM Capture/Compare 1 interrupt */
1165:Drivers/STM32F1xx_HAL_Driver/Src/stm32f1xx_hal_tim.c ****       __HAL_TIM_ENABLE_IT(htim, TIM_IT_CC1);
1166:Drivers/STM32F1xx_HAL_Driver/Src/stm32f1xx_hal_tim.c ****     }
1167:Drivers/STM32F1xx_HAL_Driver/Src/stm32f1xx_hal_tim.c ****     break;
1168:Drivers/STM32F1xx_HAL_Driver/Src/stm32f1xx_hal_tim.c **** 
1169:Drivers/STM32F1xx_HAL_Driver/Src/stm32f1xx_hal_tim.c ****     case TIM_CHANNEL_2:
1170:Drivers/STM32F1xx_HAL_Driver/Src/stm32f1xx_hal_tim.c ****     {
1171:Drivers/STM32F1xx_HAL_Driver/Src/stm32f1xx_hal_tim.c ****       /* Enable the TIM Capture/Compare 2 interrupt */
ARM GAS  /tmp/ccIpqr7A.s 			page 23


1172:Drivers/STM32F1xx_HAL_Driver/Src/stm32f1xx_hal_tim.c ****       __HAL_TIM_ENABLE_IT(htim, TIM_IT_CC2);
1173:Drivers/STM32F1xx_HAL_Driver/Src/stm32f1xx_hal_tim.c ****     }
1174:Drivers/STM32F1xx_HAL_Driver/Src/stm32f1xx_hal_tim.c ****     break;
1175:Drivers/STM32F1xx_HAL_Driver/Src/stm32f1xx_hal_tim.c **** 
1176:Drivers/STM32F1xx_HAL_Driver/Src/stm32f1xx_hal_tim.c ****     case TIM_CHANNEL_3:
1177:Drivers/STM32F1xx_HAL_Driver/Src/stm32f1xx_hal_tim.c ****     {
1178:Drivers/STM32F1xx_HAL_Driver/Src/stm32f1xx_hal_tim.c ****       /* Enable the TIM Capture/Compare 3 interrupt */
1179:Drivers/STM32F1xx_HAL_Driver/Src/stm32f1xx_hal_tim.c ****       __HAL_TIM_ENABLE_IT(htim, TIM_IT_CC3);
1180:Drivers/STM32F1xx_HAL_Driver/Src/stm32f1xx_hal_tim.c ****     }
1181:Drivers/STM32F1xx_HAL_Driver/Src/stm32f1xx_hal_tim.c ****     break;
1182:Drivers/STM32F1xx_HAL_Driver/Src/stm32f1xx_hal_tim.c **** 
1183:Drivers/STM32F1xx_HAL_Driver/Src/stm32f1xx_hal_tim.c ****     case TIM_CHANNEL_4:
1184:Drivers/STM32F1xx_HAL_Driver/Src/stm32f1xx_hal_tim.c ****     {
1185:Drivers/STM32F1xx_HAL_Driver/Src/stm32f1xx_hal_tim.c ****       /* Enable the TIM Capture/Compare 4 interrupt */
1186:Drivers/STM32F1xx_HAL_Driver/Src/stm32f1xx_hal_tim.c ****       __HAL_TIM_ENABLE_IT(htim, TIM_IT_CC4);
1187:Drivers/STM32F1xx_HAL_Driver/Src/stm32f1xx_hal_tim.c ****     }
1188:Drivers/STM32F1xx_HAL_Driver/Src/stm32f1xx_hal_tim.c ****     break;
1189:Drivers/STM32F1xx_HAL_Driver/Src/stm32f1xx_hal_tim.c **** 
1190:Drivers/STM32F1xx_HAL_Driver/Src/stm32f1xx_hal_tim.c ****     default:
1191:Drivers/STM32F1xx_HAL_Driver/Src/stm32f1xx_hal_tim.c ****     break;
1192:Drivers/STM32F1xx_HAL_Driver/Src/stm32f1xx_hal_tim.c ****   }
1193:Drivers/STM32F1xx_HAL_Driver/Src/stm32f1xx_hal_tim.c **** 
1194:Drivers/STM32F1xx_HAL_Driver/Src/stm32f1xx_hal_tim.c ****   /* Enable the Capture compare channel */
1195:Drivers/STM32F1xx_HAL_Driver/Src/stm32f1xx_hal_tim.c ****   TIM_CCxChannelCmd(htim->Instance, Channel, TIM_CCx_ENABLE);
1196:Drivers/STM32F1xx_HAL_Driver/Src/stm32f1xx_hal_tim.c **** 
1197:Drivers/STM32F1xx_HAL_Driver/Src/stm32f1xx_hal_tim.c ****   if(IS_TIM_BREAK_INSTANCE(htim->Instance) != RESET)
1198:Drivers/STM32F1xx_HAL_Driver/Src/stm32f1xx_hal_tim.c ****   {
1199:Drivers/STM32F1xx_HAL_Driver/Src/stm32f1xx_hal_tim.c ****     /* Enable the main output */
1200:Drivers/STM32F1xx_HAL_Driver/Src/stm32f1xx_hal_tim.c ****     __HAL_TIM_MOE_ENABLE(htim);
1201:Drivers/STM32F1xx_HAL_Driver/Src/stm32f1xx_hal_tim.c ****   }
1202:Drivers/STM32F1xx_HAL_Driver/Src/stm32f1xx_hal_tim.c **** 
1203:Drivers/STM32F1xx_HAL_Driver/Src/stm32f1xx_hal_tim.c ****   /* Enable the Peripheral */
1204:Drivers/STM32F1xx_HAL_Driver/Src/stm32f1xx_hal_tim.c ****   __HAL_TIM_ENABLE(htim);
1205:Drivers/STM32F1xx_HAL_Driver/Src/stm32f1xx_hal_tim.c **** 
1206:Drivers/STM32F1xx_HAL_Driver/Src/stm32f1xx_hal_tim.c ****   /* Return function status */
1207:Drivers/STM32F1xx_HAL_Driver/Src/stm32f1xx_hal_tim.c ****   return HAL_OK;
1208:Drivers/STM32F1xx_HAL_Driver/Src/stm32f1xx_hal_tim.c **** }
1209:Drivers/STM32F1xx_HAL_Driver/Src/stm32f1xx_hal_tim.c **** 
1210:Drivers/STM32F1xx_HAL_Driver/Src/stm32f1xx_hal_tim.c **** /**
1211:Drivers/STM32F1xx_HAL_Driver/Src/stm32f1xx_hal_tim.c ****   * @brief  Stops the PWM signal generation in interrupt mode.
1212:Drivers/STM32F1xx_HAL_Driver/Src/stm32f1xx_hal_tim.c ****   * @param  htim : TIM handle
1213:Drivers/STM32F1xx_HAL_Driver/Src/stm32f1xx_hal_tim.c ****   * @param  Channel : TIM Channels to be disabled
1214:Drivers/STM32F1xx_HAL_Driver/Src/stm32f1xx_hal_tim.c ****   *          This parameter can be one of the following values:
1215:Drivers/STM32F1xx_HAL_Driver/Src/stm32f1xx_hal_tim.c ****   *            @arg TIM_CHANNEL_1: TIM Channel 1 selected
1216:Drivers/STM32F1xx_HAL_Driver/Src/stm32f1xx_hal_tim.c ****   *            @arg TIM_CHANNEL_2: TIM Channel 2 selected
1217:Drivers/STM32F1xx_HAL_Driver/Src/stm32f1xx_hal_tim.c ****   *            @arg TIM_CHANNEL_3: TIM Channel 3 selected
1218:Drivers/STM32F1xx_HAL_Driver/Src/stm32f1xx_hal_tim.c ****   *            @arg TIM_CHANNEL_4: TIM Channel 4 selected
1219:Drivers/STM32F1xx_HAL_Driver/Src/stm32f1xx_hal_tim.c ****   * @retval HAL status
1220:Drivers/STM32F1xx_HAL_Driver/Src/stm32f1xx_hal_tim.c **** */
1221:Drivers/STM32F1xx_HAL_Driver/Src/stm32f1xx_hal_tim.c **** HAL_StatusTypeDef HAL_TIM_PWM_Stop_IT (TIM_HandleTypeDef *htim, uint32_t Channel)
1222:Drivers/STM32F1xx_HAL_Driver/Src/stm32f1xx_hal_tim.c **** {
1223:Drivers/STM32F1xx_HAL_Driver/Src/stm32f1xx_hal_tim.c ****   /* Check the parameters */
1224:Drivers/STM32F1xx_HAL_Driver/Src/stm32f1xx_hal_tim.c ****   assert_param(IS_TIM_CCX_INSTANCE(htim->Instance, Channel));
1225:Drivers/STM32F1xx_HAL_Driver/Src/stm32f1xx_hal_tim.c **** 
1226:Drivers/STM32F1xx_HAL_Driver/Src/stm32f1xx_hal_tim.c ****   switch (Channel)
1227:Drivers/STM32F1xx_HAL_Driver/Src/stm32f1xx_hal_tim.c ****   {
1228:Drivers/STM32F1xx_HAL_Driver/Src/stm32f1xx_hal_tim.c ****     case TIM_CHANNEL_1:
ARM GAS  /tmp/ccIpqr7A.s 			page 24


1229:Drivers/STM32F1xx_HAL_Driver/Src/stm32f1xx_hal_tim.c ****     {
1230:Drivers/STM32F1xx_HAL_Driver/Src/stm32f1xx_hal_tim.c ****       /* Disable the TIM Capture/Compare 1 interrupt */
1231:Drivers/STM32F1xx_HAL_Driver/Src/stm32f1xx_hal_tim.c ****       __HAL_TIM_DISABLE_IT(htim, TIM_IT_CC1);
1232:Drivers/STM32F1xx_HAL_Driver/Src/stm32f1xx_hal_tim.c ****     }
1233:Drivers/STM32F1xx_HAL_Driver/Src/stm32f1xx_hal_tim.c ****     break;
1234:Drivers/STM32F1xx_HAL_Driver/Src/stm32f1xx_hal_tim.c **** 
1235:Drivers/STM32F1xx_HAL_Driver/Src/stm32f1xx_hal_tim.c ****     case TIM_CHANNEL_2:
1236:Drivers/STM32F1xx_HAL_Driver/Src/stm32f1xx_hal_tim.c ****     {
1237:Drivers/STM32F1xx_HAL_Driver/Src/stm32f1xx_hal_tim.c ****       /* Disable the TIM Capture/Compare 2 interrupt */
1238:Drivers/STM32F1xx_HAL_Driver/Src/stm32f1xx_hal_tim.c ****       __HAL_TIM_DISABLE_IT(htim, TIM_IT_CC2);
1239:Drivers/STM32F1xx_HAL_Driver/Src/stm32f1xx_hal_tim.c ****     }
1240:Drivers/STM32F1xx_HAL_Driver/Src/stm32f1xx_hal_tim.c ****     break;
1241:Drivers/STM32F1xx_HAL_Driver/Src/stm32f1xx_hal_tim.c **** 
1242:Drivers/STM32F1xx_HAL_Driver/Src/stm32f1xx_hal_tim.c ****     case TIM_CHANNEL_3:
1243:Drivers/STM32F1xx_HAL_Driver/Src/stm32f1xx_hal_tim.c ****     {
1244:Drivers/STM32F1xx_HAL_Driver/Src/stm32f1xx_hal_tim.c ****       /* Disable the TIM Capture/Compare 3 interrupt */
1245:Drivers/STM32F1xx_HAL_Driver/Src/stm32f1xx_hal_tim.c ****       __HAL_TIM_DISABLE_IT(htim, TIM_IT_CC3);
1246:Drivers/STM32F1xx_HAL_Driver/Src/stm32f1xx_hal_tim.c ****     }
1247:Drivers/STM32F1xx_HAL_Driver/Src/stm32f1xx_hal_tim.c ****     break;
1248:Drivers/STM32F1xx_HAL_Driver/Src/stm32f1xx_hal_tim.c **** 
1249:Drivers/STM32F1xx_HAL_Driver/Src/stm32f1xx_hal_tim.c ****     case TIM_CHANNEL_4:
1250:Drivers/STM32F1xx_HAL_Driver/Src/stm32f1xx_hal_tim.c ****     {
1251:Drivers/STM32F1xx_HAL_Driver/Src/stm32f1xx_hal_tim.c ****       /* Disable the TIM Capture/Compare 4 interrupt */
1252:Drivers/STM32F1xx_HAL_Driver/Src/stm32f1xx_hal_tim.c ****       __HAL_TIM_DISABLE_IT(htim, TIM_IT_CC4);
1253:Drivers/STM32F1xx_HAL_Driver/Src/stm32f1xx_hal_tim.c ****     }
1254:Drivers/STM32F1xx_HAL_Driver/Src/stm32f1xx_hal_tim.c ****     break;
1255:Drivers/STM32F1xx_HAL_Driver/Src/stm32f1xx_hal_tim.c **** 
1256:Drivers/STM32F1xx_HAL_Driver/Src/stm32f1xx_hal_tim.c ****     default:
1257:Drivers/STM32F1xx_HAL_Driver/Src/stm32f1xx_hal_tim.c ****     break;
1258:Drivers/STM32F1xx_HAL_Driver/Src/stm32f1xx_hal_tim.c ****   }
1259:Drivers/STM32F1xx_HAL_Driver/Src/stm32f1xx_hal_tim.c **** 
1260:Drivers/STM32F1xx_HAL_Driver/Src/stm32f1xx_hal_tim.c ****   /* Disable the Capture compare channel */
1261:Drivers/STM32F1xx_HAL_Driver/Src/stm32f1xx_hal_tim.c ****   TIM_CCxChannelCmd(htim->Instance, Channel, TIM_CCx_DISABLE);
1262:Drivers/STM32F1xx_HAL_Driver/Src/stm32f1xx_hal_tim.c **** 
1263:Drivers/STM32F1xx_HAL_Driver/Src/stm32f1xx_hal_tim.c ****   if(IS_TIM_BREAK_INSTANCE(htim->Instance) != RESET)
1264:Drivers/STM32F1xx_HAL_Driver/Src/stm32f1xx_hal_tim.c ****   {
1265:Drivers/STM32F1xx_HAL_Driver/Src/stm32f1xx_hal_tim.c ****     /* Disable the Main Ouput */
1266:Drivers/STM32F1xx_HAL_Driver/Src/stm32f1xx_hal_tim.c ****     __HAL_TIM_MOE_DISABLE(htim);
1267:Drivers/STM32F1xx_HAL_Driver/Src/stm32f1xx_hal_tim.c ****   }
1268:Drivers/STM32F1xx_HAL_Driver/Src/stm32f1xx_hal_tim.c **** 
1269:Drivers/STM32F1xx_HAL_Driver/Src/stm32f1xx_hal_tim.c ****   /* Disable the Peripheral */
1270:Drivers/STM32F1xx_HAL_Driver/Src/stm32f1xx_hal_tim.c ****   __HAL_TIM_DISABLE(htim);
1271:Drivers/STM32F1xx_HAL_Driver/Src/stm32f1xx_hal_tim.c **** 
1272:Drivers/STM32F1xx_HAL_Driver/Src/stm32f1xx_hal_tim.c ****   /* Return function status */
1273:Drivers/STM32F1xx_HAL_Driver/Src/stm32f1xx_hal_tim.c ****   return HAL_OK;
1274:Drivers/STM32F1xx_HAL_Driver/Src/stm32f1xx_hal_tim.c **** }
1275:Drivers/STM32F1xx_HAL_Driver/Src/stm32f1xx_hal_tim.c **** 
1276:Drivers/STM32F1xx_HAL_Driver/Src/stm32f1xx_hal_tim.c **** /**
1277:Drivers/STM32F1xx_HAL_Driver/Src/stm32f1xx_hal_tim.c ****   * @brief  Starts the TIM PWM signal generation in DMA mode.
1278:Drivers/STM32F1xx_HAL_Driver/Src/stm32f1xx_hal_tim.c ****   * @param  htim : TIM handle
1279:Drivers/STM32F1xx_HAL_Driver/Src/stm32f1xx_hal_tim.c ****   * @param  Channel : TIM Channels to be enabled
1280:Drivers/STM32F1xx_HAL_Driver/Src/stm32f1xx_hal_tim.c ****   *          This parameter can be one of the following values:
1281:Drivers/STM32F1xx_HAL_Driver/Src/stm32f1xx_hal_tim.c ****   *            @arg TIM_CHANNEL_1: TIM Channel 1 selected
1282:Drivers/STM32F1xx_HAL_Driver/Src/stm32f1xx_hal_tim.c ****   *            @arg TIM_CHANNEL_2: TIM Channel 2 selected
1283:Drivers/STM32F1xx_HAL_Driver/Src/stm32f1xx_hal_tim.c ****   *            @arg TIM_CHANNEL_3: TIM Channel 3 selected
1284:Drivers/STM32F1xx_HAL_Driver/Src/stm32f1xx_hal_tim.c ****   *            @arg TIM_CHANNEL_4: TIM Channel 4 selected
1285:Drivers/STM32F1xx_HAL_Driver/Src/stm32f1xx_hal_tim.c ****   * @param  pData : The source Buffer address.
ARM GAS  /tmp/ccIpqr7A.s 			page 25


1286:Drivers/STM32F1xx_HAL_Driver/Src/stm32f1xx_hal_tim.c ****   * @param  Length : The length of data to be transferred from memory to TIM peripheral
1287:Drivers/STM32F1xx_HAL_Driver/Src/stm32f1xx_hal_tim.c ****   * @retval HAL status
1288:Drivers/STM32F1xx_HAL_Driver/Src/stm32f1xx_hal_tim.c **** */
1289:Drivers/STM32F1xx_HAL_Driver/Src/stm32f1xx_hal_tim.c **** HAL_StatusTypeDef HAL_TIM_PWM_Start_DMA(TIM_HandleTypeDef *htim, uint32_t Channel, uint32_t *pData,
1290:Drivers/STM32F1xx_HAL_Driver/Src/stm32f1xx_hal_tim.c **** {
1291:Drivers/STM32F1xx_HAL_Driver/Src/stm32f1xx_hal_tim.c ****   /* Check the parameters */
1292:Drivers/STM32F1xx_HAL_Driver/Src/stm32f1xx_hal_tim.c ****   assert_param(IS_TIM_CCX_INSTANCE(htim->Instance, Channel));
1293:Drivers/STM32F1xx_HAL_Driver/Src/stm32f1xx_hal_tim.c **** 
1294:Drivers/STM32F1xx_HAL_Driver/Src/stm32f1xx_hal_tim.c ****   if((htim->State == HAL_TIM_STATE_BUSY))
1295:Drivers/STM32F1xx_HAL_Driver/Src/stm32f1xx_hal_tim.c ****   {
1296:Drivers/STM32F1xx_HAL_Driver/Src/stm32f1xx_hal_tim.c ****      return HAL_BUSY;
1297:Drivers/STM32F1xx_HAL_Driver/Src/stm32f1xx_hal_tim.c ****   }
1298:Drivers/STM32F1xx_HAL_Driver/Src/stm32f1xx_hal_tim.c ****   else if((htim->State == HAL_TIM_STATE_READY))
1299:Drivers/STM32F1xx_HAL_Driver/Src/stm32f1xx_hal_tim.c ****   {
1300:Drivers/STM32F1xx_HAL_Driver/Src/stm32f1xx_hal_tim.c ****     if(((uint32_t)pData == 0U) && (Length > 0U))
1301:Drivers/STM32F1xx_HAL_Driver/Src/stm32f1xx_hal_tim.c ****     {
1302:Drivers/STM32F1xx_HAL_Driver/Src/stm32f1xx_hal_tim.c ****       return HAL_ERROR;
1303:Drivers/STM32F1xx_HAL_Driver/Src/stm32f1xx_hal_tim.c ****     }
1304:Drivers/STM32F1xx_HAL_Driver/Src/stm32f1xx_hal_tim.c ****     else
1305:Drivers/STM32F1xx_HAL_Driver/Src/stm32f1xx_hal_tim.c ****     {
1306:Drivers/STM32F1xx_HAL_Driver/Src/stm32f1xx_hal_tim.c ****       htim->State = HAL_TIM_STATE_BUSY;
1307:Drivers/STM32F1xx_HAL_Driver/Src/stm32f1xx_hal_tim.c ****     }
1308:Drivers/STM32F1xx_HAL_Driver/Src/stm32f1xx_hal_tim.c ****   }
1309:Drivers/STM32F1xx_HAL_Driver/Src/stm32f1xx_hal_tim.c ****   switch (Channel)
1310:Drivers/STM32F1xx_HAL_Driver/Src/stm32f1xx_hal_tim.c ****   {
1311:Drivers/STM32F1xx_HAL_Driver/Src/stm32f1xx_hal_tim.c ****     case TIM_CHANNEL_1:
1312:Drivers/STM32F1xx_HAL_Driver/Src/stm32f1xx_hal_tim.c ****     {
1313:Drivers/STM32F1xx_HAL_Driver/Src/stm32f1xx_hal_tim.c ****       /* Set the DMA Period elapsed callback */
1314:Drivers/STM32F1xx_HAL_Driver/Src/stm32f1xx_hal_tim.c ****       htim->hdma[TIM_DMA_ID_CC1]->XferCpltCallback = TIM_DMADelayPulseCplt;
1315:Drivers/STM32F1xx_HAL_Driver/Src/stm32f1xx_hal_tim.c **** 
1316:Drivers/STM32F1xx_HAL_Driver/Src/stm32f1xx_hal_tim.c ****       /* Set the DMA error callback */
1317:Drivers/STM32F1xx_HAL_Driver/Src/stm32f1xx_hal_tim.c ****       htim->hdma[TIM_DMA_ID_CC1]->XferErrorCallback = TIM_DMAError ;
1318:Drivers/STM32F1xx_HAL_Driver/Src/stm32f1xx_hal_tim.c **** 
1319:Drivers/STM32F1xx_HAL_Driver/Src/stm32f1xx_hal_tim.c ****       /* Enable the DMA channel */
1320:Drivers/STM32F1xx_HAL_Driver/Src/stm32f1xx_hal_tim.c ****       HAL_DMA_Start_IT(htim->hdma[TIM_DMA_ID_CC1], (uint32_t)pData, (uint32_t)&htim->Instance->CCR1
1321:Drivers/STM32F1xx_HAL_Driver/Src/stm32f1xx_hal_tim.c **** 
1322:Drivers/STM32F1xx_HAL_Driver/Src/stm32f1xx_hal_tim.c ****       /* Enable the TIM Capture/Compare 1 DMA request */
1323:Drivers/STM32F1xx_HAL_Driver/Src/stm32f1xx_hal_tim.c ****       __HAL_TIM_ENABLE_DMA(htim, TIM_DMA_CC1);
1324:Drivers/STM32F1xx_HAL_Driver/Src/stm32f1xx_hal_tim.c ****     }
1325:Drivers/STM32F1xx_HAL_Driver/Src/stm32f1xx_hal_tim.c ****     break;
1326:Drivers/STM32F1xx_HAL_Driver/Src/stm32f1xx_hal_tim.c **** 
1327:Drivers/STM32F1xx_HAL_Driver/Src/stm32f1xx_hal_tim.c ****     case TIM_CHANNEL_2:
1328:Drivers/STM32F1xx_HAL_Driver/Src/stm32f1xx_hal_tim.c ****     {
1329:Drivers/STM32F1xx_HAL_Driver/Src/stm32f1xx_hal_tim.c ****       /* Set the DMA Period elapsed callback */
1330:Drivers/STM32F1xx_HAL_Driver/Src/stm32f1xx_hal_tim.c ****       htim->hdma[TIM_DMA_ID_CC2]->XferCpltCallback = TIM_DMADelayPulseCplt;
1331:Drivers/STM32F1xx_HAL_Driver/Src/stm32f1xx_hal_tim.c **** 
1332:Drivers/STM32F1xx_HAL_Driver/Src/stm32f1xx_hal_tim.c ****       /* Set the DMA error callback */
1333:Drivers/STM32F1xx_HAL_Driver/Src/stm32f1xx_hal_tim.c ****       htim->hdma[TIM_DMA_ID_CC2]->XferErrorCallback = TIM_DMAError ;
1334:Drivers/STM32F1xx_HAL_Driver/Src/stm32f1xx_hal_tim.c **** 
1335:Drivers/STM32F1xx_HAL_Driver/Src/stm32f1xx_hal_tim.c ****       /* Enable the DMA channel */
1336:Drivers/STM32F1xx_HAL_Driver/Src/stm32f1xx_hal_tim.c ****       HAL_DMA_Start_IT(htim->hdma[TIM_DMA_ID_CC2], (uint32_t)pData, (uint32_t)&htim->Instance->CCR2
1337:Drivers/STM32F1xx_HAL_Driver/Src/stm32f1xx_hal_tim.c **** 
1338:Drivers/STM32F1xx_HAL_Driver/Src/stm32f1xx_hal_tim.c ****       /* Enable the TIM Capture/Compare 2 DMA request */
1339:Drivers/STM32F1xx_HAL_Driver/Src/stm32f1xx_hal_tim.c ****       __HAL_TIM_ENABLE_DMA(htim, TIM_DMA_CC2);
1340:Drivers/STM32F1xx_HAL_Driver/Src/stm32f1xx_hal_tim.c ****     }
1341:Drivers/STM32F1xx_HAL_Driver/Src/stm32f1xx_hal_tim.c ****     break;
1342:Drivers/STM32F1xx_HAL_Driver/Src/stm32f1xx_hal_tim.c **** 
ARM GAS  /tmp/ccIpqr7A.s 			page 26


1343:Drivers/STM32F1xx_HAL_Driver/Src/stm32f1xx_hal_tim.c ****     case TIM_CHANNEL_3:
1344:Drivers/STM32F1xx_HAL_Driver/Src/stm32f1xx_hal_tim.c ****     {
1345:Drivers/STM32F1xx_HAL_Driver/Src/stm32f1xx_hal_tim.c ****       /* Set the DMA Period elapsed callback */
1346:Drivers/STM32F1xx_HAL_Driver/Src/stm32f1xx_hal_tim.c ****       htim->hdma[TIM_DMA_ID_CC3]->XferCpltCallback = TIM_DMADelayPulseCplt;
1347:Drivers/STM32F1xx_HAL_Driver/Src/stm32f1xx_hal_tim.c **** 
1348:Drivers/STM32F1xx_HAL_Driver/Src/stm32f1xx_hal_tim.c ****       /* Set the DMA error callback */
1349:Drivers/STM32F1xx_HAL_Driver/Src/stm32f1xx_hal_tim.c ****       htim->hdma[TIM_DMA_ID_CC3]->XferErrorCallback = TIM_DMAError ;
1350:Drivers/STM32F1xx_HAL_Driver/Src/stm32f1xx_hal_tim.c **** 
1351:Drivers/STM32F1xx_HAL_Driver/Src/stm32f1xx_hal_tim.c ****       /* Enable the DMA channel */
1352:Drivers/STM32F1xx_HAL_Driver/Src/stm32f1xx_hal_tim.c ****       HAL_DMA_Start_IT(htim->hdma[TIM_DMA_ID_CC3], (uint32_t)pData, (uint32_t)&htim->Instance->CCR3
1353:Drivers/STM32F1xx_HAL_Driver/Src/stm32f1xx_hal_tim.c **** 
1354:Drivers/STM32F1xx_HAL_Driver/Src/stm32f1xx_hal_tim.c ****       /* Enable the TIM Output Capture/Compare 3 request */
1355:Drivers/STM32F1xx_HAL_Driver/Src/stm32f1xx_hal_tim.c ****       __HAL_TIM_ENABLE_DMA(htim, TIM_DMA_CC3);
1356:Drivers/STM32F1xx_HAL_Driver/Src/stm32f1xx_hal_tim.c ****     }
1357:Drivers/STM32F1xx_HAL_Driver/Src/stm32f1xx_hal_tim.c ****     break;
1358:Drivers/STM32F1xx_HAL_Driver/Src/stm32f1xx_hal_tim.c **** 
1359:Drivers/STM32F1xx_HAL_Driver/Src/stm32f1xx_hal_tim.c ****     case TIM_CHANNEL_4:
1360:Drivers/STM32F1xx_HAL_Driver/Src/stm32f1xx_hal_tim.c ****     {
1361:Drivers/STM32F1xx_HAL_Driver/Src/stm32f1xx_hal_tim.c ****      /* Set the DMA Period elapsed callback */
1362:Drivers/STM32F1xx_HAL_Driver/Src/stm32f1xx_hal_tim.c ****       htim->hdma[TIM_DMA_ID_CC4]->XferCpltCallback = TIM_DMADelayPulseCplt;
1363:Drivers/STM32F1xx_HAL_Driver/Src/stm32f1xx_hal_tim.c **** 
1364:Drivers/STM32F1xx_HAL_Driver/Src/stm32f1xx_hal_tim.c ****       /* Set the DMA error callback */
1365:Drivers/STM32F1xx_HAL_Driver/Src/stm32f1xx_hal_tim.c ****       htim->hdma[TIM_DMA_ID_CC4]->XferErrorCallback = TIM_DMAError ;
1366:Drivers/STM32F1xx_HAL_Driver/Src/stm32f1xx_hal_tim.c **** 
1367:Drivers/STM32F1xx_HAL_Driver/Src/stm32f1xx_hal_tim.c ****       /* Enable the DMA channel */
1368:Drivers/STM32F1xx_HAL_Driver/Src/stm32f1xx_hal_tim.c ****       HAL_DMA_Start_IT(htim->hdma[TIM_DMA_ID_CC4], (uint32_t)pData, (uint32_t)&htim->Instance->CCR4
1369:Drivers/STM32F1xx_HAL_Driver/Src/stm32f1xx_hal_tim.c **** 
1370:Drivers/STM32F1xx_HAL_Driver/Src/stm32f1xx_hal_tim.c ****       /* Enable the TIM Capture/Compare 4 DMA request */
1371:Drivers/STM32F1xx_HAL_Driver/Src/stm32f1xx_hal_tim.c ****       __HAL_TIM_ENABLE_DMA(htim, TIM_DMA_CC4);
1372:Drivers/STM32F1xx_HAL_Driver/Src/stm32f1xx_hal_tim.c ****     }
1373:Drivers/STM32F1xx_HAL_Driver/Src/stm32f1xx_hal_tim.c ****     break;
1374:Drivers/STM32F1xx_HAL_Driver/Src/stm32f1xx_hal_tim.c **** 
1375:Drivers/STM32F1xx_HAL_Driver/Src/stm32f1xx_hal_tim.c ****     default:
1376:Drivers/STM32F1xx_HAL_Driver/Src/stm32f1xx_hal_tim.c ****     break;
1377:Drivers/STM32F1xx_HAL_Driver/Src/stm32f1xx_hal_tim.c ****   }
1378:Drivers/STM32F1xx_HAL_Driver/Src/stm32f1xx_hal_tim.c **** 
1379:Drivers/STM32F1xx_HAL_Driver/Src/stm32f1xx_hal_tim.c ****   /* Enable the Capture compare channel */
1380:Drivers/STM32F1xx_HAL_Driver/Src/stm32f1xx_hal_tim.c ****   TIM_CCxChannelCmd(htim->Instance, Channel, TIM_CCx_ENABLE);
1381:Drivers/STM32F1xx_HAL_Driver/Src/stm32f1xx_hal_tim.c **** 
1382:Drivers/STM32F1xx_HAL_Driver/Src/stm32f1xx_hal_tim.c ****   if(IS_TIM_BREAK_INSTANCE(htim->Instance) != RESET)
1383:Drivers/STM32F1xx_HAL_Driver/Src/stm32f1xx_hal_tim.c ****   {
1384:Drivers/STM32F1xx_HAL_Driver/Src/stm32f1xx_hal_tim.c ****     /* Enable the main output */
1385:Drivers/STM32F1xx_HAL_Driver/Src/stm32f1xx_hal_tim.c ****     __HAL_TIM_MOE_ENABLE(htim);
1386:Drivers/STM32F1xx_HAL_Driver/Src/stm32f1xx_hal_tim.c ****   }
1387:Drivers/STM32F1xx_HAL_Driver/Src/stm32f1xx_hal_tim.c **** 
1388:Drivers/STM32F1xx_HAL_Driver/Src/stm32f1xx_hal_tim.c ****   /* Enable the Peripheral */
1389:Drivers/STM32F1xx_HAL_Driver/Src/stm32f1xx_hal_tim.c ****   __HAL_TIM_ENABLE(htim);
1390:Drivers/STM32F1xx_HAL_Driver/Src/stm32f1xx_hal_tim.c **** 
1391:Drivers/STM32F1xx_HAL_Driver/Src/stm32f1xx_hal_tim.c ****   /* Return function status */
1392:Drivers/STM32F1xx_HAL_Driver/Src/stm32f1xx_hal_tim.c ****   return HAL_OK;
1393:Drivers/STM32F1xx_HAL_Driver/Src/stm32f1xx_hal_tim.c **** }
1394:Drivers/STM32F1xx_HAL_Driver/Src/stm32f1xx_hal_tim.c **** 
1395:Drivers/STM32F1xx_HAL_Driver/Src/stm32f1xx_hal_tim.c **** /**
1396:Drivers/STM32F1xx_HAL_Driver/Src/stm32f1xx_hal_tim.c ****   * @brief  Stops the TIM PWM signal generation in DMA mode.
1397:Drivers/STM32F1xx_HAL_Driver/Src/stm32f1xx_hal_tim.c ****   * @param  htim : TIM handle
1398:Drivers/STM32F1xx_HAL_Driver/Src/stm32f1xx_hal_tim.c ****   * @param  Channel : TIM Channels to be disabled
1399:Drivers/STM32F1xx_HAL_Driver/Src/stm32f1xx_hal_tim.c ****   *          This parameter can be one of the following values:
ARM GAS  /tmp/ccIpqr7A.s 			page 27


1400:Drivers/STM32F1xx_HAL_Driver/Src/stm32f1xx_hal_tim.c ****   *            @arg TIM_CHANNEL_1: TIM Channel 1 selected
1401:Drivers/STM32F1xx_HAL_Driver/Src/stm32f1xx_hal_tim.c ****   *            @arg TIM_CHANNEL_2: TIM Channel 2 selected
1402:Drivers/STM32F1xx_HAL_Driver/Src/stm32f1xx_hal_tim.c ****   *            @arg TIM_CHANNEL_3: TIM Channel 3 selected
1403:Drivers/STM32F1xx_HAL_Driver/Src/stm32f1xx_hal_tim.c ****   *            @arg TIM_CHANNEL_4: TIM Channel 4 selected
1404:Drivers/STM32F1xx_HAL_Driver/Src/stm32f1xx_hal_tim.c ****   * @retval HAL status
1405:Drivers/STM32F1xx_HAL_Driver/Src/stm32f1xx_hal_tim.c **** */
1406:Drivers/STM32F1xx_HAL_Driver/Src/stm32f1xx_hal_tim.c **** HAL_StatusTypeDef HAL_TIM_PWM_Stop_DMA(TIM_HandleTypeDef *htim, uint32_t Channel)
1407:Drivers/STM32F1xx_HAL_Driver/Src/stm32f1xx_hal_tim.c **** {
1408:Drivers/STM32F1xx_HAL_Driver/Src/stm32f1xx_hal_tim.c ****   /* Check the parameters */
1409:Drivers/STM32F1xx_HAL_Driver/Src/stm32f1xx_hal_tim.c ****   assert_param(IS_TIM_CCX_INSTANCE(htim->Instance, Channel));
1410:Drivers/STM32F1xx_HAL_Driver/Src/stm32f1xx_hal_tim.c **** 
1411:Drivers/STM32F1xx_HAL_Driver/Src/stm32f1xx_hal_tim.c ****   switch (Channel)
1412:Drivers/STM32F1xx_HAL_Driver/Src/stm32f1xx_hal_tim.c ****   {
1413:Drivers/STM32F1xx_HAL_Driver/Src/stm32f1xx_hal_tim.c ****     case TIM_CHANNEL_1:
1414:Drivers/STM32F1xx_HAL_Driver/Src/stm32f1xx_hal_tim.c ****     {
1415:Drivers/STM32F1xx_HAL_Driver/Src/stm32f1xx_hal_tim.c ****       /* Disable the TIM Capture/Compare 1 DMA request */
1416:Drivers/STM32F1xx_HAL_Driver/Src/stm32f1xx_hal_tim.c ****       __HAL_TIM_DISABLE_DMA(htim, TIM_DMA_CC1);
1417:Drivers/STM32F1xx_HAL_Driver/Src/stm32f1xx_hal_tim.c ****     }
1418:Drivers/STM32F1xx_HAL_Driver/Src/stm32f1xx_hal_tim.c ****     break;
1419:Drivers/STM32F1xx_HAL_Driver/Src/stm32f1xx_hal_tim.c **** 
1420:Drivers/STM32F1xx_HAL_Driver/Src/stm32f1xx_hal_tim.c ****     case TIM_CHANNEL_2:
1421:Drivers/STM32F1xx_HAL_Driver/Src/stm32f1xx_hal_tim.c ****     {
1422:Drivers/STM32F1xx_HAL_Driver/Src/stm32f1xx_hal_tim.c ****       /* Disable the TIM Capture/Compare 2 DMA request */
1423:Drivers/STM32F1xx_HAL_Driver/Src/stm32f1xx_hal_tim.c ****       __HAL_TIM_DISABLE_DMA(htim, TIM_DMA_CC2);
1424:Drivers/STM32F1xx_HAL_Driver/Src/stm32f1xx_hal_tim.c ****     }
1425:Drivers/STM32F1xx_HAL_Driver/Src/stm32f1xx_hal_tim.c ****     break;
1426:Drivers/STM32F1xx_HAL_Driver/Src/stm32f1xx_hal_tim.c **** 
1427:Drivers/STM32F1xx_HAL_Driver/Src/stm32f1xx_hal_tim.c ****     case TIM_CHANNEL_3:
1428:Drivers/STM32F1xx_HAL_Driver/Src/stm32f1xx_hal_tim.c ****     {
1429:Drivers/STM32F1xx_HAL_Driver/Src/stm32f1xx_hal_tim.c ****       /* Disable the TIM Capture/Compare 3 DMA request */
1430:Drivers/STM32F1xx_HAL_Driver/Src/stm32f1xx_hal_tim.c ****       __HAL_TIM_DISABLE_DMA(htim, TIM_DMA_CC3);
1431:Drivers/STM32F1xx_HAL_Driver/Src/stm32f1xx_hal_tim.c ****     }
1432:Drivers/STM32F1xx_HAL_Driver/Src/stm32f1xx_hal_tim.c ****     break;
1433:Drivers/STM32F1xx_HAL_Driver/Src/stm32f1xx_hal_tim.c **** 
1434:Drivers/STM32F1xx_HAL_Driver/Src/stm32f1xx_hal_tim.c ****     case TIM_CHANNEL_4:
1435:Drivers/STM32F1xx_HAL_Driver/Src/stm32f1xx_hal_tim.c ****     {
1436:Drivers/STM32F1xx_HAL_Driver/Src/stm32f1xx_hal_tim.c ****       /* Disable the TIM Capture/Compare 4 interrupt */
1437:Drivers/STM32F1xx_HAL_Driver/Src/stm32f1xx_hal_tim.c ****       __HAL_TIM_DISABLE_DMA(htim, TIM_DMA_CC4);
1438:Drivers/STM32F1xx_HAL_Driver/Src/stm32f1xx_hal_tim.c ****     }
1439:Drivers/STM32F1xx_HAL_Driver/Src/stm32f1xx_hal_tim.c ****     break;
1440:Drivers/STM32F1xx_HAL_Driver/Src/stm32f1xx_hal_tim.c **** 
1441:Drivers/STM32F1xx_HAL_Driver/Src/stm32f1xx_hal_tim.c ****     default:
1442:Drivers/STM32F1xx_HAL_Driver/Src/stm32f1xx_hal_tim.c ****     break;
1443:Drivers/STM32F1xx_HAL_Driver/Src/stm32f1xx_hal_tim.c ****   }
1444:Drivers/STM32F1xx_HAL_Driver/Src/stm32f1xx_hal_tim.c **** 
1445:Drivers/STM32F1xx_HAL_Driver/Src/stm32f1xx_hal_tim.c ****   /* Disable the Capture compare channel */
1446:Drivers/STM32F1xx_HAL_Driver/Src/stm32f1xx_hal_tim.c ****   TIM_CCxChannelCmd(htim->Instance, Channel, TIM_CCx_DISABLE);
1447:Drivers/STM32F1xx_HAL_Driver/Src/stm32f1xx_hal_tim.c **** 
1448:Drivers/STM32F1xx_HAL_Driver/Src/stm32f1xx_hal_tim.c ****   if(IS_TIM_BREAK_INSTANCE(htim->Instance) != RESET)
1449:Drivers/STM32F1xx_HAL_Driver/Src/stm32f1xx_hal_tim.c ****   {
1450:Drivers/STM32F1xx_HAL_Driver/Src/stm32f1xx_hal_tim.c ****     /* Disable the Main Ouput */
1451:Drivers/STM32F1xx_HAL_Driver/Src/stm32f1xx_hal_tim.c ****     __HAL_TIM_MOE_DISABLE(htim);
1452:Drivers/STM32F1xx_HAL_Driver/Src/stm32f1xx_hal_tim.c ****   }
1453:Drivers/STM32F1xx_HAL_Driver/Src/stm32f1xx_hal_tim.c **** 
1454:Drivers/STM32F1xx_HAL_Driver/Src/stm32f1xx_hal_tim.c ****   /* Disable the Peripheral */
1455:Drivers/STM32F1xx_HAL_Driver/Src/stm32f1xx_hal_tim.c ****   __HAL_TIM_DISABLE(htim);
1456:Drivers/STM32F1xx_HAL_Driver/Src/stm32f1xx_hal_tim.c **** 
ARM GAS  /tmp/ccIpqr7A.s 			page 28


1457:Drivers/STM32F1xx_HAL_Driver/Src/stm32f1xx_hal_tim.c ****   /* Change the htim state */
1458:Drivers/STM32F1xx_HAL_Driver/Src/stm32f1xx_hal_tim.c ****   htim->State = HAL_TIM_STATE_READY;
1459:Drivers/STM32F1xx_HAL_Driver/Src/stm32f1xx_hal_tim.c **** 
1460:Drivers/STM32F1xx_HAL_Driver/Src/stm32f1xx_hal_tim.c ****   /* Return function status */
1461:Drivers/STM32F1xx_HAL_Driver/Src/stm32f1xx_hal_tim.c ****   return HAL_OK;
1462:Drivers/STM32F1xx_HAL_Driver/Src/stm32f1xx_hal_tim.c **** }
1463:Drivers/STM32F1xx_HAL_Driver/Src/stm32f1xx_hal_tim.c **** 
1464:Drivers/STM32F1xx_HAL_Driver/Src/stm32f1xx_hal_tim.c **** /**
1465:Drivers/STM32F1xx_HAL_Driver/Src/stm32f1xx_hal_tim.c ****   * @}
1466:Drivers/STM32F1xx_HAL_Driver/Src/stm32f1xx_hal_tim.c ****   */
1467:Drivers/STM32F1xx_HAL_Driver/Src/stm32f1xx_hal_tim.c **** 
1468:Drivers/STM32F1xx_HAL_Driver/Src/stm32f1xx_hal_tim.c **** /** @defgroup TIM_Exported_Functions_Group4 Time Input Capture functions 
1469:Drivers/STM32F1xx_HAL_Driver/Src/stm32f1xx_hal_tim.c ****  *  @brief    Time Input Capture functions 
1470:Drivers/STM32F1xx_HAL_Driver/Src/stm32f1xx_hal_tim.c ****  *
1471:Drivers/STM32F1xx_HAL_Driver/Src/stm32f1xx_hal_tim.c **** @verbatim 
1472:Drivers/STM32F1xx_HAL_Driver/Src/stm32f1xx_hal_tim.c ****   ==============================================================================
1473:Drivers/STM32F1xx_HAL_Driver/Src/stm32f1xx_hal_tim.c ****               ##### Time Input Capture functions #####
1474:Drivers/STM32F1xx_HAL_Driver/Src/stm32f1xx_hal_tim.c ****   ==============================================================================
1475:Drivers/STM32F1xx_HAL_Driver/Src/stm32f1xx_hal_tim.c ****  [..]
1476:Drivers/STM32F1xx_HAL_Driver/Src/stm32f1xx_hal_tim.c ****    This section provides functions allowing to:
1477:Drivers/STM32F1xx_HAL_Driver/Src/stm32f1xx_hal_tim.c ****    (+) Initialize and configure the TIM Input Capture.
1478:Drivers/STM32F1xx_HAL_Driver/Src/stm32f1xx_hal_tim.c ****    (+) De-initialize the TIM Input Capture.
1479:Drivers/STM32F1xx_HAL_Driver/Src/stm32f1xx_hal_tim.c ****    (+) Start the Time Input Capture.
1480:Drivers/STM32F1xx_HAL_Driver/Src/stm32f1xx_hal_tim.c ****    (+) Stop the Time Input Capture.
1481:Drivers/STM32F1xx_HAL_Driver/Src/stm32f1xx_hal_tim.c ****    (+) Start the Time Input Capture and enable interrupt.
1482:Drivers/STM32F1xx_HAL_Driver/Src/stm32f1xx_hal_tim.c ****    (+) Stop the Time Input Capture and disable interrupt.
1483:Drivers/STM32F1xx_HAL_Driver/Src/stm32f1xx_hal_tim.c ****    (+) Start the Time Input Capture and enable DMA transfer.
1484:Drivers/STM32F1xx_HAL_Driver/Src/stm32f1xx_hal_tim.c ****    (+) Stop the Time Input Capture and disable DMA transfer.
1485:Drivers/STM32F1xx_HAL_Driver/Src/stm32f1xx_hal_tim.c **** 
1486:Drivers/STM32F1xx_HAL_Driver/Src/stm32f1xx_hal_tim.c **** @endverbatim
1487:Drivers/STM32F1xx_HAL_Driver/Src/stm32f1xx_hal_tim.c ****   * @{
1488:Drivers/STM32F1xx_HAL_Driver/Src/stm32f1xx_hal_tim.c ****   */
1489:Drivers/STM32F1xx_HAL_Driver/Src/stm32f1xx_hal_tim.c **** /**
1490:Drivers/STM32F1xx_HAL_Driver/Src/stm32f1xx_hal_tim.c ****   * @brief  Initializes the TIM Input Capture Time base according to the specified
1491:Drivers/STM32F1xx_HAL_Driver/Src/stm32f1xx_hal_tim.c ****   *         parameters in the TIM_HandleTypeDef and create the associated handle.
1492:Drivers/STM32F1xx_HAL_Driver/Src/stm32f1xx_hal_tim.c ****   * @param  htim : TIM Input Capture handle
1493:Drivers/STM32F1xx_HAL_Driver/Src/stm32f1xx_hal_tim.c ****   * @retval HAL status
1494:Drivers/STM32F1xx_HAL_Driver/Src/stm32f1xx_hal_tim.c ****   */
1495:Drivers/STM32F1xx_HAL_Driver/Src/stm32f1xx_hal_tim.c **** HAL_StatusTypeDef HAL_TIM_IC_Init(TIM_HandleTypeDef *htim)
1496:Drivers/STM32F1xx_HAL_Driver/Src/stm32f1xx_hal_tim.c **** {
1497:Drivers/STM32F1xx_HAL_Driver/Src/stm32f1xx_hal_tim.c ****   /* Check the TIM handle allocation */
1498:Drivers/STM32F1xx_HAL_Driver/Src/stm32f1xx_hal_tim.c ****   if(htim == NULL)
1499:Drivers/STM32F1xx_HAL_Driver/Src/stm32f1xx_hal_tim.c ****   {
1500:Drivers/STM32F1xx_HAL_Driver/Src/stm32f1xx_hal_tim.c ****     return HAL_ERROR;
1501:Drivers/STM32F1xx_HAL_Driver/Src/stm32f1xx_hal_tim.c ****   }
1502:Drivers/STM32F1xx_HAL_Driver/Src/stm32f1xx_hal_tim.c **** 
1503:Drivers/STM32F1xx_HAL_Driver/Src/stm32f1xx_hal_tim.c ****   /* Check the parameters */
1504:Drivers/STM32F1xx_HAL_Driver/Src/stm32f1xx_hal_tim.c ****   assert_param(IS_TIM_INSTANCE(htim->Instance));
1505:Drivers/STM32F1xx_HAL_Driver/Src/stm32f1xx_hal_tim.c ****   assert_param(IS_TIM_COUNTER_MODE(htim->Init.CounterMode));
1506:Drivers/STM32F1xx_HAL_Driver/Src/stm32f1xx_hal_tim.c ****   assert_param(IS_TIM_CLOCKDIVISION_DIV(htim->Init.ClockDivision));
1507:Drivers/STM32F1xx_HAL_Driver/Src/stm32f1xx_hal_tim.c ****   assert_param(IS_TIM_AUTORELOAD_PRELOAD(htim->Init.AutoReloadPreload));
1508:Drivers/STM32F1xx_HAL_Driver/Src/stm32f1xx_hal_tim.c **** 
1509:Drivers/STM32F1xx_HAL_Driver/Src/stm32f1xx_hal_tim.c ****   if(htim->State == HAL_TIM_STATE_RESET)
1510:Drivers/STM32F1xx_HAL_Driver/Src/stm32f1xx_hal_tim.c ****   {
1511:Drivers/STM32F1xx_HAL_Driver/Src/stm32f1xx_hal_tim.c ****     /* Allocate lock resource and initialize it */
1512:Drivers/STM32F1xx_HAL_Driver/Src/stm32f1xx_hal_tim.c ****     htim->Lock = HAL_UNLOCKED;
1513:Drivers/STM32F1xx_HAL_Driver/Src/stm32f1xx_hal_tim.c ****     
ARM GAS  /tmp/ccIpqr7A.s 			page 29


1514:Drivers/STM32F1xx_HAL_Driver/Src/stm32f1xx_hal_tim.c ****     /* Init the low level hardware : GPIO, CLOCK, NVIC and DMA */
1515:Drivers/STM32F1xx_HAL_Driver/Src/stm32f1xx_hal_tim.c ****     HAL_TIM_IC_MspInit(htim);
1516:Drivers/STM32F1xx_HAL_Driver/Src/stm32f1xx_hal_tim.c ****   }
1517:Drivers/STM32F1xx_HAL_Driver/Src/stm32f1xx_hal_tim.c **** 
1518:Drivers/STM32F1xx_HAL_Driver/Src/stm32f1xx_hal_tim.c ****   /* Set the TIM state */
1519:Drivers/STM32F1xx_HAL_Driver/Src/stm32f1xx_hal_tim.c ****   htim->State= HAL_TIM_STATE_BUSY;
1520:Drivers/STM32F1xx_HAL_Driver/Src/stm32f1xx_hal_tim.c **** 
1521:Drivers/STM32F1xx_HAL_Driver/Src/stm32f1xx_hal_tim.c ****   /* Init the base time for the input capture */
1522:Drivers/STM32F1xx_HAL_Driver/Src/stm32f1xx_hal_tim.c ****   TIM_Base_SetConfig(htim->Instance, &htim->Init);
1523:Drivers/STM32F1xx_HAL_Driver/Src/stm32f1xx_hal_tim.c **** 
1524:Drivers/STM32F1xx_HAL_Driver/Src/stm32f1xx_hal_tim.c ****   /* Initialize the TIM state*/
1525:Drivers/STM32F1xx_HAL_Driver/Src/stm32f1xx_hal_tim.c ****   htim->State= HAL_TIM_STATE_READY;
1526:Drivers/STM32F1xx_HAL_Driver/Src/stm32f1xx_hal_tim.c **** 
1527:Drivers/STM32F1xx_HAL_Driver/Src/stm32f1xx_hal_tim.c ****   return HAL_OK;
1528:Drivers/STM32F1xx_HAL_Driver/Src/stm32f1xx_hal_tim.c **** }
1529:Drivers/STM32F1xx_HAL_Driver/Src/stm32f1xx_hal_tim.c **** 
1530:Drivers/STM32F1xx_HAL_Driver/Src/stm32f1xx_hal_tim.c **** /**
1531:Drivers/STM32F1xx_HAL_Driver/Src/stm32f1xx_hal_tim.c ****   * @brief  DeInitializes the TIM peripheral 
1532:Drivers/STM32F1xx_HAL_Driver/Src/stm32f1xx_hal_tim.c ****   * @param  htim : TIM Input Capture handle
1533:Drivers/STM32F1xx_HAL_Driver/Src/stm32f1xx_hal_tim.c ****   * @retval HAL status
1534:Drivers/STM32F1xx_HAL_Driver/Src/stm32f1xx_hal_tim.c ****   */
1535:Drivers/STM32F1xx_HAL_Driver/Src/stm32f1xx_hal_tim.c **** HAL_StatusTypeDef HAL_TIM_IC_DeInit(TIM_HandleTypeDef *htim)
1536:Drivers/STM32F1xx_HAL_Driver/Src/stm32f1xx_hal_tim.c **** {
1537:Drivers/STM32F1xx_HAL_Driver/Src/stm32f1xx_hal_tim.c ****   /* Check the parameters */
1538:Drivers/STM32F1xx_HAL_Driver/Src/stm32f1xx_hal_tim.c ****   assert_param(IS_TIM_INSTANCE(htim->Instance));
1539:Drivers/STM32F1xx_HAL_Driver/Src/stm32f1xx_hal_tim.c **** 
1540:Drivers/STM32F1xx_HAL_Driver/Src/stm32f1xx_hal_tim.c ****   htim->State = HAL_TIM_STATE_BUSY;
1541:Drivers/STM32F1xx_HAL_Driver/Src/stm32f1xx_hal_tim.c **** 
1542:Drivers/STM32F1xx_HAL_Driver/Src/stm32f1xx_hal_tim.c ****   /* Disable the TIM Peripheral Clock */
1543:Drivers/STM32F1xx_HAL_Driver/Src/stm32f1xx_hal_tim.c ****   __HAL_TIM_DISABLE(htim);
1544:Drivers/STM32F1xx_HAL_Driver/Src/stm32f1xx_hal_tim.c **** 
1545:Drivers/STM32F1xx_HAL_Driver/Src/stm32f1xx_hal_tim.c ****   /* DeInit the low level hardware: GPIO, CLOCK, NVIC and DMA */
1546:Drivers/STM32F1xx_HAL_Driver/Src/stm32f1xx_hal_tim.c ****   HAL_TIM_IC_MspDeInit(htim);
1547:Drivers/STM32F1xx_HAL_Driver/Src/stm32f1xx_hal_tim.c **** 
1548:Drivers/STM32F1xx_HAL_Driver/Src/stm32f1xx_hal_tim.c ****   /* Change TIM state */
1549:Drivers/STM32F1xx_HAL_Driver/Src/stm32f1xx_hal_tim.c ****   htim->State = HAL_TIM_STATE_RESET;
1550:Drivers/STM32F1xx_HAL_Driver/Src/stm32f1xx_hal_tim.c **** 
1551:Drivers/STM32F1xx_HAL_Driver/Src/stm32f1xx_hal_tim.c ****   /* Release Lock */
1552:Drivers/STM32F1xx_HAL_Driver/Src/stm32f1xx_hal_tim.c ****   __HAL_UNLOCK(htim);
1553:Drivers/STM32F1xx_HAL_Driver/Src/stm32f1xx_hal_tim.c **** 
1554:Drivers/STM32F1xx_HAL_Driver/Src/stm32f1xx_hal_tim.c ****   return HAL_OK;
1555:Drivers/STM32F1xx_HAL_Driver/Src/stm32f1xx_hal_tim.c **** }
1556:Drivers/STM32F1xx_HAL_Driver/Src/stm32f1xx_hal_tim.c **** 
1557:Drivers/STM32F1xx_HAL_Driver/Src/stm32f1xx_hal_tim.c **** /**
1558:Drivers/STM32F1xx_HAL_Driver/Src/stm32f1xx_hal_tim.c ****   * @brief  Initializes the TIM Input Capture MSP.
1559:Drivers/STM32F1xx_HAL_Driver/Src/stm32f1xx_hal_tim.c ****   * @param  htim : TIM handle
1560:Drivers/STM32F1xx_HAL_Driver/Src/stm32f1xx_hal_tim.c ****   * @retval None
1561:Drivers/STM32F1xx_HAL_Driver/Src/stm32f1xx_hal_tim.c ****   */
1562:Drivers/STM32F1xx_HAL_Driver/Src/stm32f1xx_hal_tim.c **** __weak void HAL_TIM_IC_MspInit(TIM_HandleTypeDef *htim)
1563:Drivers/STM32F1xx_HAL_Driver/Src/stm32f1xx_hal_tim.c **** {
1564:Drivers/STM32F1xx_HAL_Driver/Src/stm32f1xx_hal_tim.c ****   /* Prevent unused argument(s) compilation warning */
1565:Drivers/STM32F1xx_HAL_Driver/Src/stm32f1xx_hal_tim.c ****   UNUSED(htim);
1566:Drivers/STM32F1xx_HAL_Driver/Src/stm32f1xx_hal_tim.c ****   /* NOTE : This function Should not be modified, when the callback is needed,
1567:Drivers/STM32F1xx_HAL_Driver/Src/stm32f1xx_hal_tim.c ****             the HAL_TIM_IC_MspInit could be implemented in the user file
1568:Drivers/STM32F1xx_HAL_Driver/Src/stm32f1xx_hal_tim.c ****    */
1569:Drivers/STM32F1xx_HAL_Driver/Src/stm32f1xx_hal_tim.c **** }
1570:Drivers/STM32F1xx_HAL_Driver/Src/stm32f1xx_hal_tim.c **** 
ARM GAS  /tmp/ccIpqr7A.s 			page 30


1571:Drivers/STM32F1xx_HAL_Driver/Src/stm32f1xx_hal_tim.c **** /**
1572:Drivers/STM32F1xx_HAL_Driver/Src/stm32f1xx_hal_tim.c ****   * @brief  DeInitializes TIM Input Capture MSP.
1573:Drivers/STM32F1xx_HAL_Driver/Src/stm32f1xx_hal_tim.c ****   * @param  htim : TIM handle
1574:Drivers/STM32F1xx_HAL_Driver/Src/stm32f1xx_hal_tim.c ****   * @retval None
1575:Drivers/STM32F1xx_HAL_Driver/Src/stm32f1xx_hal_tim.c ****   */
1576:Drivers/STM32F1xx_HAL_Driver/Src/stm32f1xx_hal_tim.c **** __weak void HAL_TIM_IC_MspDeInit(TIM_HandleTypeDef *htim)
1577:Drivers/STM32F1xx_HAL_Driver/Src/stm32f1xx_hal_tim.c **** {
1578:Drivers/STM32F1xx_HAL_Driver/Src/stm32f1xx_hal_tim.c ****   /* Prevent unused argument(s) compilation warning */
1579:Drivers/STM32F1xx_HAL_Driver/Src/stm32f1xx_hal_tim.c ****   UNUSED(htim);
1580:Drivers/STM32F1xx_HAL_Driver/Src/stm32f1xx_hal_tim.c ****   /* NOTE : This function Should not be modified, when the callback is needed,
1581:Drivers/STM32F1xx_HAL_Driver/Src/stm32f1xx_hal_tim.c ****             the HAL_TIM_IC_MspDeInit could be implemented in the user file
1582:Drivers/STM32F1xx_HAL_Driver/Src/stm32f1xx_hal_tim.c ****    */
1583:Drivers/STM32F1xx_HAL_Driver/Src/stm32f1xx_hal_tim.c **** }
1584:Drivers/STM32F1xx_HAL_Driver/Src/stm32f1xx_hal_tim.c **** 
1585:Drivers/STM32F1xx_HAL_Driver/Src/stm32f1xx_hal_tim.c **** /**
1586:Drivers/STM32F1xx_HAL_Driver/Src/stm32f1xx_hal_tim.c ****   * @brief  Starts the TIM Input Capture measurement.
1587:Drivers/STM32F1xx_HAL_Driver/Src/stm32f1xx_hal_tim.c ****   * @param  htim : TIM Input Capture handle
1588:Drivers/STM32F1xx_HAL_Driver/Src/stm32f1xx_hal_tim.c ****   * @param  Channel : TIM Channels to be enabled
1589:Drivers/STM32F1xx_HAL_Driver/Src/stm32f1xx_hal_tim.c ****   *          This parameter can be one of the following values:
1590:Drivers/STM32F1xx_HAL_Driver/Src/stm32f1xx_hal_tim.c ****   *            @arg TIM_CHANNEL_1: TIM Channel 1 selected
1591:Drivers/STM32F1xx_HAL_Driver/Src/stm32f1xx_hal_tim.c ****   *            @arg TIM_CHANNEL_2: TIM Channel 2 selected
1592:Drivers/STM32F1xx_HAL_Driver/Src/stm32f1xx_hal_tim.c ****   *            @arg TIM_CHANNEL_3: TIM Channel 3 selected
1593:Drivers/STM32F1xx_HAL_Driver/Src/stm32f1xx_hal_tim.c ****   *            @arg TIM_CHANNEL_4: TIM Channel 4 selected
1594:Drivers/STM32F1xx_HAL_Driver/Src/stm32f1xx_hal_tim.c ****   * @retval HAL status
1595:Drivers/STM32F1xx_HAL_Driver/Src/stm32f1xx_hal_tim.c **** */
1596:Drivers/STM32F1xx_HAL_Driver/Src/stm32f1xx_hal_tim.c **** HAL_StatusTypeDef HAL_TIM_IC_Start (TIM_HandleTypeDef *htim, uint32_t Channel)
1597:Drivers/STM32F1xx_HAL_Driver/Src/stm32f1xx_hal_tim.c **** {
1598:Drivers/STM32F1xx_HAL_Driver/Src/stm32f1xx_hal_tim.c ****   /* Check the parameters */
1599:Drivers/STM32F1xx_HAL_Driver/Src/stm32f1xx_hal_tim.c ****   assert_param(IS_TIM_CCX_INSTANCE(htim->Instance, Channel));
1600:Drivers/STM32F1xx_HAL_Driver/Src/stm32f1xx_hal_tim.c **** 
1601:Drivers/STM32F1xx_HAL_Driver/Src/stm32f1xx_hal_tim.c ****   /* Enable the Input Capture channel */
1602:Drivers/STM32F1xx_HAL_Driver/Src/stm32f1xx_hal_tim.c ****   TIM_CCxChannelCmd(htim->Instance, Channel, TIM_CCx_ENABLE);
1603:Drivers/STM32F1xx_HAL_Driver/Src/stm32f1xx_hal_tim.c **** 
1604:Drivers/STM32F1xx_HAL_Driver/Src/stm32f1xx_hal_tim.c ****   /* Enable the Peripheral */
1605:Drivers/STM32F1xx_HAL_Driver/Src/stm32f1xx_hal_tim.c ****   __HAL_TIM_ENABLE(htim);
1606:Drivers/STM32F1xx_HAL_Driver/Src/stm32f1xx_hal_tim.c **** 
1607:Drivers/STM32F1xx_HAL_Driver/Src/stm32f1xx_hal_tim.c ****   /* Return function status */
1608:Drivers/STM32F1xx_HAL_Driver/Src/stm32f1xx_hal_tim.c ****   return HAL_OK;
1609:Drivers/STM32F1xx_HAL_Driver/Src/stm32f1xx_hal_tim.c **** }
1610:Drivers/STM32F1xx_HAL_Driver/Src/stm32f1xx_hal_tim.c **** 
1611:Drivers/STM32F1xx_HAL_Driver/Src/stm32f1xx_hal_tim.c **** /**
1612:Drivers/STM32F1xx_HAL_Driver/Src/stm32f1xx_hal_tim.c ****   * @brief  Stops the TIM Input Capture measurement.
1613:Drivers/STM32F1xx_HAL_Driver/Src/stm32f1xx_hal_tim.c ****   * @param  htim : TIM handle
1614:Drivers/STM32F1xx_HAL_Driver/Src/stm32f1xx_hal_tim.c ****   * @param  Channel : TIM Channels to be disabled
1615:Drivers/STM32F1xx_HAL_Driver/Src/stm32f1xx_hal_tim.c ****   *          This parameter can be one of the following values:
1616:Drivers/STM32F1xx_HAL_Driver/Src/stm32f1xx_hal_tim.c ****   *            @arg TIM_CHANNEL_1: TIM Channel 1 selected
1617:Drivers/STM32F1xx_HAL_Driver/Src/stm32f1xx_hal_tim.c ****   *            @arg TIM_CHANNEL_2: TIM Channel 2 selected
1618:Drivers/STM32F1xx_HAL_Driver/Src/stm32f1xx_hal_tim.c ****   *            @arg TIM_CHANNEL_3: TIM Channel 3 selected
1619:Drivers/STM32F1xx_HAL_Driver/Src/stm32f1xx_hal_tim.c ****   *            @arg TIM_CHANNEL_4: TIM Channel 4 selected
1620:Drivers/STM32F1xx_HAL_Driver/Src/stm32f1xx_hal_tim.c ****   * @retval HAL status
1621:Drivers/STM32F1xx_HAL_Driver/Src/stm32f1xx_hal_tim.c **** */
1622:Drivers/STM32F1xx_HAL_Driver/Src/stm32f1xx_hal_tim.c **** HAL_StatusTypeDef HAL_TIM_IC_Stop(TIM_HandleTypeDef *htim, uint32_t Channel)
1623:Drivers/STM32F1xx_HAL_Driver/Src/stm32f1xx_hal_tim.c **** {
1624:Drivers/STM32F1xx_HAL_Driver/Src/stm32f1xx_hal_tim.c ****   /* Check the parameters */
1625:Drivers/STM32F1xx_HAL_Driver/Src/stm32f1xx_hal_tim.c ****   assert_param(IS_TIM_CCX_INSTANCE(htim->Instance, Channel));
1626:Drivers/STM32F1xx_HAL_Driver/Src/stm32f1xx_hal_tim.c **** 
1627:Drivers/STM32F1xx_HAL_Driver/Src/stm32f1xx_hal_tim.c ****   /* Disable the Input Capture channel */
ARM GAS  /tmp/ccIpqr7A.s 			page 31


1628:Drivers/STM32F1xx_HAL_Driver/Src/stm32f1xx_hal_tim.c ****   TIM_CCxChannelCmd(htim->Instance, Channel, TIM_CCx_DISABLE);
1629:Drivers/STM32F1xx_HAL_Driver/Src/stm32f1xx_hal_tim.c **** 
1630:Drivers/STM32F1xx_HAL_Driver/Src/stm32f1xx_hal_tim.c ****   /* Disable the Peripheral */
1631:Drivers/STM32F1xx_HAL_Driver/Src/stm32f1xx_hal_tim.c ****   __HAL_TIM_DISABLE(htim);
1632:Drivers/STM32F1xx_HAL_Driver/Src/stm32f1xx_hal_tim.c **** 
1633:Drivers/STM32F1xx_HAL_Driver/Src/stm32f1xx_hal_tim.c ****   /* Return function status */
1634:Drivers/STM32F1xx_HAL_Driver/Src/stm32f1xx_hal_tim.c ****   return HAL_OK;
1635:Drivers/STM32F1xx_HAL_Driver/Src/stm32f1xx_hal_tim.c **** }
1636:Drivers/STM32F1xx_HAL_Driver/Src/stm32f1xx_hal_tim.c **** 
1637:Drivers/STM32F1xx_HAL_Driver/Src/stm32f1xx_hal_tim.c **** /**
1638:Drivers/STM32F1xx_HAL_Driver/Src/stm32f1xx_hal_tim.c ****   * @brief  Starts the TIM Input Capture measurement in interrupt mode.
1639:Drivers/STM32F1xx_HAL_Driver/Src/stm32f1xx_hal_tim.c ****   * @param  htim : TIM Input Capture handle
1640:Drivers/STM32F1xx_HAL_Driver/Src/stm32f1xx_hal_tim.c ****   * @param  Channel : TIM Channels to be enabled
1641:Drivers/STM32F1xx_HAL_Driver/Src/stm32f1xx_hal_tim.c ****   *          This parameter can be one of the following values:
1642:Drivers/STM32F1xx_HAL_Driver/Src/stm32f1xx_hal_tim.c ****   *            @arg TIM_CHANNEL_1: TIM Channel 1 selected
1643:Drivers/STM32F1xx_HAL_Driver/Src/stm32f1xx_hal_tim.c ****   *            @arg TIM_CHANNEL_2: TIM Channel 2 selected
1644:Drivers/STM32F1xx_HAL_Driver/Src/stm32f1xx_hal_tim.c ****   *            @arg TIM_CHANNEL_3: TIM Channel 3 selected
1645:Drivers/STM32F1xx_HAL_Driver/Src/stm32f1xx_hal_tim.c ****   *            @arg TIM_CHANNEL_4: TIM Channel 4 selected
1646:Drivers/STM32F1xx_HAL_Driver/Src/stm32f1xx_hal_tim.c ****   * @retval HAL status
1647:Drivers/STM32F1xx_HAL_Driver/Src/stm32f1xx_hal_tim.c **** */
1648:Drivers/STM32F1xx_HAL_Driver/Src/stm32f1xx_hal_tim.c **** HAL_StatusTypeDef HAL_TIM_IC_Start_IT (TIM_HandleTypeDef *htim, uint32_t Channel)
1649:Drivers/STM32F1xx_HAL_Driver/Src/stm32f1xx_hal_tim.c **** {
1650:Drivers/STM32F1xx_HAL_Driver/Src/stm32f1xx_hal_tim.c ****   /* Check the parameters */
1651:Drivers/STM32F1xx_HAL_Driver/Src/stm32f1xx_hal_tim.c ****   assert_param(IS_TIM_CCX_INSTANCE(htim->Instance, Channel));
1652:Drivers/STM32F1xx_HAL_Driver/Src/stm32f1xx_hal_tim.c **** 
1653:Drivers/STM32F1xx_HAL_Driver/Src/stm32f1xx_hal_tim.c ****   switch (Channel)
1654:Drivers/STM32F1xx_HAL_Driver/Src/stm32f1xx_hal_tim.c ****   {
1655:Drivers/STM32F1xx_HAL_Driver/Src/stm32f1xx_hal_tim.c ****     case TIM_CHANNEL_1:
1656:Drivers/STM32F1xx_HAL_Driver/Src/stm32f1xx_hal_tim.c ****     {
1657:Drivers/STM32F1xx_HAL_Driver/Src/stm32f1xx_hal_tim.c ****       /* Enable the TIM Capture/Compare 1 interrupt */
1658:Drivers/STM32F1xx_HAL_Driver/Src/stm32f1xx_hal_tim.c ****       __HAL_TIM_ENABLE_IT(htim, TIM_IT_CC1);
1659:Drivers/STM32F1xx_HAL_Driver/Src/stm32f1xx_hal_tim.c ****     }
1660:Drivers/STM32F1xx_HAL_Driver/Src/stm32f1xx_hal_tim.c ****     break;
1661:Drivers/STM32F1xx_HAL_Driver/Src/stm32f1xx_hal_tim.c **** 
1662:Drivers/STM32F1xx_HAL_Driver/Src/stm32f1xx_hal_tim.c ****     case TIM_CHANNEL_2:
1663:Drivers/STM32F1xx_HAL_Driver/Src/stm32f1xx_hal_tim.c ****     {
1664:Drivers/STM32F1xx_HAL_Driver/Src/stm32f1xx_hal_tim.c ****       /* Enable the TIM Capture/Compare 2 interrupt */
1665:Drivers/STM32F1xx_HAL_Driver/Src/stm32f1xx_hal_tim.c ****       __HAL_TIM_ENABLE_IT(htim, TIM_IT_CC2);
1666:Drivers/STM32F1xx_HAL_Driver/Src/stm32f1xx_hal_tim.c ****     }
1667:Drivers/STM32F1xx_HAL_Driver/Src/stm32f1xx_hal_tim.c ****     break;
1668:Drivers/STM32F1xx_HAL_Driver/Src/stm32f1xx_hal_tim.c **** 
1669:Drivers/STM32F1xx_HAL_Driver/Src/stm32f1xx_hal_tim.c ****     case TIM_CHANNEL_3:
1670:Drivers/STM32F1xx_HAL_Driver/Src/stm32f1xx_hal_tim.c ****     {
1671:Drivers/STM32F1xx_HAL_Driver/Src/stm32f1xx_hal_tim.c ****       /* Enable the TIM Capture/Compare 3 interrupt */
1672:Drivers/STM32F1xx_HAL_Driver/Src/stm32f1xx_hal_tim.c ****       __HAL_TIM_ENABLE_IT(htim, TIM_IT_CC3);
1673:Drivers/STM32F1xx_HAL_Driver/Src/stm32f1xx_hal_tim.c ****     }
1674:Drivers/STM32F1xx_HAL_Driver/Src/stm32f1xx_hal_tim.c ****     break;
1675:Drivers/STM32F1xx_HAL_Driver/Src/stm32f1xx_hal_tim.c **** 
1676:Drivers/STM32F1xx_HAL_Driver/Src/stm32f1xx_hal_tim.c ****     case TIM_CHANNEL_4:
1677:Drivers/STM32F1xx_HAL_Driver/Src/stm32f1xx_hal_tim.c ****     {
1678:Drivers/STM32F1xx_HAL_Driver/Src/stm32f1xx_hal_tim.c ****       /* Enable the TIM Capture/Compare 4 interrupt */
1679:Drivers/STM32F1xx_HAL_Driver/Src/stm32f1xx_hal_tim.c ****       __HAL_TIM_ENABLE_IT(htim, TIM_IT_CC4);
1680:Drivers/STM32F1xx_HAL_Driver/Src/stm32f1xx_hal_tim.c ****     }
1681:Drivers/STM32F1xx_HAL_Driver/Src/stm32f1xx_hal_tim.c ****     break;
1682:Drivers/STM32F1xx_HAL_Driver/Src/stm32f1xx_hal_tim.c **** 
1683:Drivers/STM32F1xx_HAL_Driver/Src/stm32f1xx_hal_tim.c ****     default:
1684:Drivers/STM32F1xx_HAL_Driver/Src/stm32f1xx_hal_tim.c ****     break;
ARM GAS  /tmp/ccIpqr7A.s 			page 32


1685:Drivers/STM32F1xx_HAL_Driver/Src/stm32f1xx_hal_tim.c ****   }
1686:Drivers/STM32F1xx_HAL_Driver/Src/stm32f1xx_hal_tim.c ****   /* Enable the Input Capture channel */
1687:Drivers/STM32F1xx_HAL_Driver/Src/stm32f1xx_hal_tim.c ****   TIM_CCxChannelCmd(htim->Instance, Channel, TIM_CCx_ENABLE);
1688:Drivers/STM32F1xx_HAL_Driver/Src/stm32f1xx_hal_tim.c **** 
1689:Drivers/STM32F1xx_HAL_Driver/Src/stm32f1xx_hal_tim.c ****   /* Enable the Peripheral */
1690:Drivers/STM32F1xx_HAL_Driver/Src/stm32f1xx_hal_tim.c ****   __HAL_TIM_ENABLE(htim);
1691:Drivers/STM32F1xx_HAL_Driver/Src/stm32f1xx_hal_tim.c **** 
1692:Drivers/STM32F1xx_HAL_Driver/Src/stm32f1xx_hal_tim.c ****   /* Return function status */
1693:Drivers/STM32F1xx_HAL_Driver/Src/stm32f1xx_hal_tim.c ****   return HAL_OK;
1694:Drivers/STM32F1xx_HAL_Driver/Src/stm32f1xx_hal_tim.c **** }
1695:Drivers/STM32F1xx_HAL_Driver/Src/stm32f1xx_hal_tim.c **** 
1696:Drivers/STM32F1xx_HAL_Driver/Src/stm32f1xx_hal_tim.c **** /**
1697:Drivers/STM32F1xx_HAL_Driver/Src/stm32f1xx_hal_tim.c ****   * @brief  Stops the TIM Input Capture measurement in interrupt mode.
1698:Drivers/STM32F1xx_HAL_Driver/Src/stm32f1xx_hal_tim.c ****   * @param  htim : TIM handle
1699:Drivers/STM32F1xx_HAL_Driver/Src/stm32f1xx_hal_tim.c ****   * @param  Channel : TIM Channels to be disabled
1700:Drivers/STM32F1xx_HAL_Driver/Src/stm32f1xx_hal_tim.c ****   *          This parameter can be one of the following values:
1701:Drivers/STM32F1xx_HAL_Driver/Src/stm32f1xx_hal_tim.c ****   *            @arg TIM_CHANNEL_1: TIM Channel 1 selected
1702:Drivers/STM32F1xx_HAL_Driver/Src/stm32f1xx_hal_tim.c ****   *            @arg TIM_CHANNEL_2: TIM Channel 2 selected
1703:Drivers/STM32F1xx_HAL_Driver/Src/stm32f1xx_hal_tim.c ****   *            @arg TIM_CHANNEL_3: TIM Channel 3 selected
1704:Drivers/STM32F1xx_HAL_Driver/Src/stm32f1xx_hal_tim.c ****   *            @arg TIM_CHANNEL_4: TIM Channel 4 selected
1705:Drivers/STM32F1xx_HAL_Driver/Src/stm32f1xx_hal_tim.c ****   * @retval HAL status
1706:Drivers/STM32F1xx_HAL_Driver/Src/stm32f1xx_hal_tim.c **** */
1707:Drivers/STM32F1xx_HAL_Driver/Src/stm32f1xx_hal_tim.c **** HAL_StatusTypeDef HAL_TIM_IC_Stop_IT(TIM_HandleTypeDef *htim, uint32_t Channel)
1708:Drivers/STM32F1xx_HAL_Driver/Src/stm32f1xx_hal_tim.c **** {
1709:Drivers/STM32F1xx_HAL_Driver/Src/stm32f1xx_hal_tim.c ****   /* Check the parameters */
1710:Drivers/STM32F1xx_HAL_Driver/Src/stm32f1xx_hal_tim.c ****   assert_param(IS_TIM_CCX_INSTANCE(htim->Instance, Channel));
1711:Drivers/STM32F1xx_HAL_Driver/Src/stm32f1xx_hal_tim.c **** 
1712:Drivers/STM32F1xx_HAL_Driver/Src/stm32f1xx_hal_tim.c ****   switch (Channel)
1713:Drivers/STM32F1xx_HAL_Driver/Src/stm32f1xx_hal_tim.c ****   {
1714:Drivers/STM32F1xx_HAL_Driver/Src/stm32f1xx_hal_tim.c ****     case TIM_CHANNEL_1:
1715:Drivers/STM32F1xx_HAL_Driver/Src/stm32f1xx_hal_tim.c ****     {
1716:Drivers/STM32F1xx_HAL_Driver/Src/stm32f1xx_hal_tim.c ****       /* Disable the TIM Capture/Compare 1 interrupt */
1717:Drivers/STM32F1xx_HAL_Driver/Src/stm32f1xx_hal_tim.c ****       __HAL_TIM_DISABLE_IT(htim, TIM_IT_CC1);
1718:Drivers/STM32F1xx_HAL_Driver/Src/stm32f1xx_hal_tim.c ****     }
1719:Drivers/STM32F1xx_HAL_Driver/Src/stm32f1xx_hal_tim.c ****     break;
1720:Drivers/STM32F1xx_HAL_Driver/Src/stm32f1xx_hal_tim.c **** 
1721:Drivers/STM32F1xx_HAL_Driver/Src/stm32f1xx_hal_tim.c ****     case TIM_CHANNEL_2:
1722:Drivers/STM32F1xx_HAL_Driver/Src/stm32f1xx_hal_tim.c ****     {
1723:Drivers/STM32F1xx_HAL_Driver/Src/stm32f1xx_hal_tim.c ****       /* Disable the TIM Capture/Compare 2 interrupt */
1724:Drivers/STM32F1xx_HAL_Driver/Src/stm32f1xx_hal_tim.c ****       __HAL_TIM_DISABLE_IT(htim, TIM_IT_CC2);
1725:Drivers/STM32F1xx_HAL_Driver/Src/stm32f1xx_hal_tim.c ****     }
1726:Drivers/STM32F1xx_HAL_Driver/Src/stm32f1xx_hal_tim.c ****     break;
1727:Drivers/STM32F1xx_HAL_Driver/Src/stm32f1xx_hal_tim.c **** 
1728:Drivers/STM32F1xx_HAL_Driver/Src/stm32f1xx_hal_tim.c ****     case TIM_CHANNEL_3:
1729:Drivers/STM32F1xx_HAL_Driver/Src/stm32f1xx_hal_tim.c ****     {
1730:Drivers/STM32F1xx_HAL_Driver/Src/stm32f1xx_hal_tim.c ****       /* Disable the TIM Capture/Compare 3 interrupt */
1731:Drivers/STM32F1xx_HAL_Driver/Src/stm32f1xx_hal_tim.c ****       __HAL_TIM_DISABLE_IT(htim, TIM_IT_CC3);
1732:Drivers/STM32F1xx_HAL_Driver/Src/stm32f1xx_hal_tim.c ****     }
1733:Drivers/STM32F1xx_HAL_Driver/Src/stm32f1xx_hal_tim.c ****     break;
1734:Drivers/STM32F1xx_HAL_Driver/Src/stm32f1xx_hal_tim.c **** 
1735:Drivers/STM32F1xx_HAL_Driver/Src/stm32f1xx_hal_tim.c ****     case TIM_CHANNEL_4:
1736:Drivers/STM32F1xx_HAL_Driver/Src/stm32f1xx_hal_tim.c ****     {
1737:Drivers/STM32F1xx_HAL_Driver/Src/stm32f1xx_hal_tim.c ****       /* Disable the TIM Capture/Compare 4 interrupt */
1738:Drivers/STM32F1xx_HAL_Driver/Src/stm32f1xx_hal_tim.c ****       __HAL_TIM_DISABLE_IT(htim, TIM_IT_CC4);
1739:Drivers/STM32F1xx_HAL_Driver/Src/stm32f1xx_hal_tim.c ****     }
1740:Drivers/STM32F1xx_HAL_Driver/Src/stm32f1xx_hal_tim.c ****     break;
1741:Drivers/STM32F1xx_HAL_Driver/Src/stm32f1xx_hal_tim.c **** 
ARM GAS  /tmp/ccIpqr7A.s 			page 33


1742:Drivers/STM32F1xx_HAL_Driver/Src/stm32f1xx_hal_tim.c ****     default:
1743:Drivers/STM32F1xx_HAL_Driver/Src/stm32f1xx_hal_tim.c ****     break;
1744:Drivers/STM32F1xx_HAL_Driver/Src/stm32f1xx_hal_tim.c ****   }
1745:Drivers/STM32F1xx_HAL_Driver/Src/stm32f1xx_hal_tim.c **** 
1746:Drivers/STM32F1xx_HAL_Driver/Src/stm32f1xx_hal_tim.c ****   /* Disable the Input Capture channel */
1747:Drivers/STM32F1xx_HAL_Driver/Src/stm32f1xx_hal_tim.c ****   TIM_CCxChannelCmd(htim->Instance, Channel, TIM_CCx_DISABLE);
1748:Drivers/STM32F1xx_HAL_Driver/Src/stm32f1xx_hal_tim.c **** 
1749:Drivers/STM32F1xx_HAL_Driver/Src/stm32f1xx_hal_tim.c ****   /* Disable the Peripheral */
1750:Drivers/STM32F1xx_HAL_Driver/Src/stm32f1xx_hal_tim.c ****   __HAL_TIM_DISABLE(htim);
1751:Drivers/STM32F1xx_HAL_Driver/Src/stm32f1xx_hal_tim.c **** 
1752:Drivers/STM32F1xx_HAL_Driver/Src/stm32f1xx_hal_tim.c ****   /* Return function status */
1753:Drivers/STM32F1xx_HAL_Driver/Src/stm32f1xx_hal_tim.c ****   return HAL_OK;
1754:Drivers/STM32F1xx_HAL_Driver/Src/stm32f1xx_hal_tim.c **** }
1755:Drivers/STM32F1xx_HAL_Driver/Src/stm32f1xx_hal_tim.c **** 
1756:Drivers/STM32F1xx_HAL_Driver/Src/stm32f1xx_hal_tim.c **** /**
1757:Drivers/STM32F1xx_HAL_Driver/Src/stm32f1xx_hal_tim.c ****   * @brief  Starts the TIM Input Capture measurement in DMA mode.
1758:Drivers/STM32F1xx_HAL_Driver/Src/stm32f1xx_hal_tim.c ****   * @param  htim : TIM Input Capture handle
1759:Drivers/STM32F1xx_HAL_Driver/Src/stm32f1xx_hal_tim.c ****   * @param  Channel : TIM Channels to be enabled
1760:Drivers/STM32F1xx_HAL_Driver/Src/stm32f1xx_hal_tim.c ****   *          This parameter can be one of the following values:
1761:Drivers/STM32F1xx_HAL_Driver/Src/stm32f1xx_hal_tim.c ****   *            @arg TIM_CHANNEL_1: TIM Channel 1 selected
1762:Drivers/STM32F1xx_HAL_Driver/Src/stm32f1xx_hal_tim.c ****   *            @arg TIM_CHANNEL_2: TIM Channel 2 selected
1763:Drivers/STM32F1xx_HAL_Driver/Src/stm32f1xx_hal_tim.c ****   *            @arg TIM_CHANNEL_3: TIM Channel 3 selected
1764:Drivers/STM32F1xx_HAL_Driver/Src/stm32f1xx_hal_tim.c ****   *            @arg TIM_CHANNEL_4: TIM Channel 4 selected
1765:Drivers/STM32F1xx_HAL_Driver/Src/stm32f1xx_hal_tim.c ****   * @param  pData : The destination Buffer address.
1766:Drivers/STM32F1xx_HAL_Driver/Src/stm32f1xx_hal_tim.c ****   * @param  Length : The length of data to be transferred from TIM peripheral to memory.
1767:Drivers/STM32F1xx_HAL_Driver/Src/stm32f1xx_hal_tim.c ****   * @retval HAL status
1768:Drivers/STM32F1xx_HAL_Driver/Src/stm32f1xx_hal_tim.c **** */
1769:Drivers/STM32F1xx_HAL_Driver/Src/stm32f1xx_hal_tim.c **** HAL_StatusTypeDef HAL_TIM_IC_Start_DMA(TIM_HandleTypeDef *htim, uint32_t Channel, uint32_t *pData, 
1770:Drivers/STM32F1xx_HAL_Driver/Src/stm32f1xx_hal_tim.c **** {
1771:Drivers/STM32F1xx_HAL_Driver/Src/stm32f1xx_hal_tim.c ****   /* Check the parameters */
1772:Drivers/STM32F1xx_HAL_Driver/Src/stm32f1xx_hal_tim.c ****   assert_param(IS_TIM_CCX_INSTANCE(htim->Instance, Channel));
1773:Drivers/STM32F1xx_HAL_Driver/Src/stm32f1xx_hal_tim.c ****   assert_param(IS_TIM_DMA_CC_INSTANCE(htim->Instance));
1774:Drivers/STM32F1xx_HAL_Driver/Src/stm32f1xx_hal_tim.c **** 
1775:Drivers/STM32F1xx_HAL_Driver/Src/stm32f1xx_hal_tim.c ****   if((htim->State == HAL_TIM_STATE_BUSY))
1776:Drivers/STM32F1xx_HAL_Driver/Src/stm32f1xx_hal_tim.c ****   {
1777:Drivers/STM32F1xx_HAL_Driver/Src/stm32f1xx_hal_tim.c ****      return HAL_BUSY;
1778:Drivers/STM32F1xx_HAL_Driver/Src/stm32f1xx_hal_tim.c ****   }
1779:Drivers/STM32F1xx_HAL_Driver/Src/stm32f1xx_hal_tim.c ****   else if((htim->State == HAL_TIM_STATE_READY))
1780:Drivers/STM32F1xx_HAL_Driver/Src/stm32f1xx_hal_tim.c ****   {
1781:Drivers/STM32F1xx_HAL_Driver/Src/stm32f1xx_hal_tim.c ****     if((pData == 0U) && (Length > 0U))
1782:Drivers/STM32F1xx_HAL_Driver/Src/stm32f1xx_hal_tim.c ****     {
1783:Drivers/STM32F1xx_HAL_Driver/Src/stm32f1xx_hal_tim.c ****       return HAL_ERROR;
1784:Drivers/STM32F1xx_HAL_Driver/Src/stm32f1xx_hal_tim.c ****     }
1785:Drivers/STM32F1xx_HAL_Driver/Src/stm32f1xx_hal_tim.c ****     else
1786:Drivers/STM32F1xx_HAL_Driver/Src/stm32f1xx_hal_tim.c ****     {
1787:Drivers/STM32F1xx_HAL_Driver/Src/stm32f1xx_hal_tim.c ****       htim->State = HAL_TIM_STATE_BUSY;
1788:Drivers/STM32F1xx_HAL_Driver/Src/stm32f1xx_hal_tim.c ****     }
1789:Drivers/STM32F1xx_HAL_Driver/Src/stm32f1xx_hal_tim.c ****   }
1790:Drivers/STM32F1xx_HAL_Driver/Src/stm32f1xx_hal_tim.c **** 
1791:Drivers/STM32F1xx_HAL_Driver/Src/stm32f1xx_hal_tim.c ****   switch (Channel)
1792:Drivers/STM32F1xx_HAL_Driver/Src/stm32f1xx_hal_tim.c ****   {
1793:Drivers/STM32F1xx_HAL_Driver/Src/stm32f1xx_hal_tim.c ****     case TIM_CHANNEL_1:
1794:Drivers/STM32F1xx_HAL_Driver/Src/stm32f1xx_hal_tim.c ****     {
1795:Drivers/STM32F1xx_HAL_Driver/Src/stm32f1xx_hal_tim.c ****       /* Set the DMA Period elapsed callback */
1796:Drivers/STM32F1xx_HAL_Driver/Src/stm32f1xx_hal_tim.c ****       htim->hdma[TIM_DMA_ID_CC1]->XferCpltCallback = TIM_DMACaptureCplt;
1797:Drivers/STM32F1xx_HAL_Driver/Src/stm32f1xx_hal_tim.c **** 
1798:Drivers/STM32F1xx_HAL_Driver/Src/stm32f1xx_hal_tim.c ****       /* Set the DMA error callback */
ARM GAS  /tmp/ccIpqr7A.s 			page 34


1799:Drivers/STM32F1xx_HAL_Driver/Src/stm32f1xx_hal_tim.c ****       htim->hdma[TIM_DMA_ID_CC1]->XferErrorCallback = TIM_DMAError ;
1800:Drivers/STM32F1xx_HAL_Driver/Src/stm32f1xx_hal_tim.c **** 
1801:Drivers/STM32F1xx_HAL_Driver/Src/stm32f1xx_hal_tim.c ****       /* Enable the DMA channel */
1802:Drivers/STM32F1xx_HAL_Driver/Src/stm32f1xx_hal_tim.c ****       HAL_DMA_Start_IT(htim->hdma[TIM_DMA_ID_CC1], (uint32_t)&htim->Instance->CCR1, (uint32_t)pData
1803:Drivers/STM32F1xx_HAL_Driver/Src/stm32f1xx_hal_tim.c **** 
1804:Drivers/STM32F1xx_HAL_Driver/Src/stm32f1xx_hal_tim.c ****       /* Enable the TIM Capture/Compare 1 DMA request */
1805:Drivers/STM32F1xx_HAL_Driver/Src/stm32f1xx_hal_tim.c ****       __HAL_TIM_ENABLE_DMA(htim, TIM_DMA_CC1);
1806:Drivers/STM32F1xx_HAL_Driver/Src/stm32f1xx_hal_tim.c ****     }
1807:Drivers/STM32F1xx_HAL_Driver/Src/stm32f1xx_hal_tim.c ****     break;
1808:Drivers/STM32F1xx_HAL_Driver/Src/stm32f1xx_hal_tim.c **** 
1809:Drivers/STM32F1xx_HAL_Driver/Src/stm32f1xx_hal_tim.c ****     case TIM_CHANNEL_2:
1810:Drivers/STM32F1xx_HAL_Driver/Src/stm32f1xx_hal_tim.c ****     {
1811:Drivers/STM32F1xx_HAL_Driver/Src/stm32f1xx_hal_tim.c ****       /* Set the DMA Period elapsed callback */
1812:Drivers/STM32F1xx_HAL_Driver/Src/stm32f1xx_hal_tim.c ****       htim->hdma[TIM_DMA_ID_CC2]->XferCpltCallback = TIM_DMACaptureCplt;
1813:Drivers/STM32F1xx_HAL_Driver/Src/stm32f1xx_hal_tim.c **** 
1814:Drivers/STM32F1xx_HAL_Driver/Src/stm32f1xx_hal_tim.c ****       /* Set the DMA error callback */
1815:Drivers/STM32F1xx_HAL_Driver/Src/stm32f1xx_hal_tim.c ****       htim->hdma[TIM_DMA_ID_CC2]->XferErrorCallback = TIM_DMAError ;
1816:Drivers/STM32F1xx_HAL_Driver/Src/stm32f1xx_hal_tim.c **** 
1817:Drivers/STM32F1xx_HAL_Driver/Src/stm32f1xx_hal_tim.c ****       /* Enable the DMA channel */
1818:Drivers/STM32F1xx_HAL_Driver/Src/stm32f1xx_hal_tim.c ****       HAL_DMA_Start_IT(htim->hdma[TIM_DMA_ID_CC2], (uint32_t)&htim->Instance->CCR2, (uint32_t)pData
1819:Drivers/STM32F1xx_HAL_Driver/Src/stm32f1xx_hal_tim.c **** 
1820:Drivers/STM32F1xx_HAL_Driver/Src/stm32f1xx_hal_tim.c ****       /* Enable the TIM Capture/Compare 2  DMA request */
1821:Drivers/STM32F1xx_HAL_Driver/Src/stm32f1xx_hal_tim.c ****       __HAL_TIM_ENABLE_DMA(htim, TIM_DMA_CC2);
1822:Drivers/STM32F1xx_HAL_Driver/Src/stm32f1xx_hal_tim.c ****     }
1823:Drivers/STM32F1xx_HAL_Driver/Src/stm32f1xx_hal_tim.c ****     break;
1824:Drivers/STM32F1xx_HAL_Driver/Src/stm32f1xx_hal_tim.c **** 
1825:Drivers/STM32F1xx_HAL_Driver/Src/stm32f1xx_hal_tim.c ****     case TIM_CHANNEL_3:
1826:Drivers/STM32F1xx_HAL_Driver/Src/stm32f1xx_hal_tim.c ****     {
1827:Drivers/STM32F1xx_HAL_Driver/Src/stm32f1xx_hal_tim.c ****       /* Set the DMA Period elapsed callback */
1828:Drivers/STM32F1xx_HAL_Driver/Src/stm32f1xx_hal_tim.c ****       htim->hdma[TIM_DMA_ID_CC3]->XferCpltCallback = TIM_DMACaptureCplt;
1829:Drivers/STM32F1xx_HAL_Driver/Src/stm32f1xx_hal_tim.c **** 
1830:Drivers/STM32F1xx_HAL_Driver/Src/stm32f1xx_hal_tim.c ****       /* Set the DMA error callback */
1831:Drivers/STM32F1xx_HAL_Driver/Src/stm32f1xx_hal_tim.c ****       htim->hdma[TIM_DMA_ID_CC3]->XferErrorCallback = TIM_DMAError ;
1832:Drivers/STM32F1xx_HAL_Driver/Src/stm32f1xx_hal_tim.c **** 
1833:Drivers/STM32F1xx_HAL_Driver/Src/stm32f1xx_hal_tim.c ****       /* Enable the DMA channel */
1834:Drivers/STM32F1xx_HAL_Driver/Src/stm32f1xx_hal_tim.c ****       HAL_DMA_Start_IT(htim->hdma[TIM_DMA_ID_CC3], (uint32_t)&htim->Instance->CCR3, (uint32_t)pData
1835:Drivers/STM32F1xx_HAL_Driver/Src/stm32f1xx_hal_tim.c **** 
1836:Drivers/STM32F1xx_HAL_Driver/Src/stm32f1xx_hal_tim.c ****       /* Enable the TIM Capture/Compare 3  DMA request */
1837:Drivers/STM32F1xx_HAL_Driver/Src/stm32f1xx_hal_tim.c ****       __HAL_TIM_ENABLE_DMA(htim, TIM_DMA_CC3);
1838:Drivers/STM32F1xx_HAL_Driver/Src/stm32f1xx_hal_tim.c ****     }
1839:Drivers/STM32F1xx_HAL_Driver/Src/stm32f1xx_hal_tim.c ****     break;
1840:Drivers/STM32F1xx_HAL_Driver/Src/stm32f1xx_hal_tim.c **** 
1841:Drivers/STM32F1xx_HAL_Driver/Src/stm32f1xx_hal_tim.c ****     case TIM_CHANNEL_4:
1842:Drivers/STM32F1xx_HAL_Driver/Src/stm32f1xx_hal_tim.c ****     {
1843:Drivers/STM32F1xx_HAL_Driver/Src/stm32f1xx_hal_tim.c ****       /* Set the DMA Period elapsed callback */
1844:Drivers/STM32F1xx_HAL_Driver/Src/stm32f1xx_hal_tim.c ****       htim->hdma[TIM_DMA_ID_CC4]->XferCpltCallback = TIM_DMACaptureCplt;
1845:Drivers/STM32F1xx_HAL_Driver/Src/stm32f1xx_hal_tim.c **** 
1846:Drivers/STM32F1xx_HAL_Driver/Src/stm32f1xx_hal_tim.c ****       /* Set the DMA error callback */
1847:Drivers/STM32F1xx_HAL_Driver/Src/stm32f1xx_hal_tim.c ****       htim->hdma[TIM_DMA_ID_CC4]->XferErrorCallback = TIM_DMAError ;
1848:Drivers/STM32F1xx_HAL_Driver/Src/stm32f1xx_hal_tim.c **** 
1849:Drivers/STM32F1xx_HAL_Driver/Src/stm32f1xx_hal_tim.c ****       /* Enable the DMA channel */
1850:Drivers/STM32F1xx_HAL_Driver/Src/stm32f1xx_hal_tim.c ****       HAL_DMA_Start_IT(htim->hdma[TIM_DMA_ID_CC4], (uint32_t)&htim->Instance->CCR4, (uint32_t)pData
1851:Drivers/STM32F1xx_HAL_Driver/Src/stm32f1xx_hal_tim.c **** 
1852:Drivers/STM32F1xx_HAL_Driver/Src/stm32f1xx_hal_tim.c ****       /* Enable the TIM Capture/Compare 4  DMA request */
1853:Drivers/STM32F1xx_HAL_Driver/Src/stm32f1xx_hal_tim.c ****       __HAL_TIM_ENABLE_DMA(htim, TIM_DMA_CC4);
1854:Drivers/STM32F1xx_HAL_Driver/Src/stm32f1xx_hal_tim.c ****     }
1855:Drivers/STM32F1xx_HAL_Driver/Src/stm32f1xx_hal_tim.c ****     break;
ARM GAS  /tmp/ccIpqr7A.s 			page 35


1856:Drivers/STM32F1xx_HAL_Driver/Src/stm32f1xx_hal_tim.c **** 
1857:Drivers/STM32F1xx_HAL_Driver/Src/stm32f1xx_hal_tim.c ****     default:
1858:Drivers/STM32F1xx_HAL_Driver/Src/stm32f1xx_hal_tim.c ****     break;
1859:Drivers/STM32F1xx_HAL_Driver/Src/stm32f1xx_hal_tim.c ****   }
1860:Drivers/STM32F1xx_HAL_Driver/Src/stm32f1xx_hal_tim.c **** 
1861:Drivers/STM32F1xx_HAL_Driver/Src/stm32f1xx_hal_tim.c ****   /* Enable the Input Capture channel */
1862:Drivers/STM32F1xx_HAL_Driver/Src/stm32f1xx_hal_tim.c ****   TIM_CCxChannelCmd(htim->Instance, Channel, TIM_CCx_ENABLE);
1863:Drivers/STM32F1xx_HAL_Driver/Src/stm32f1xx_hal_tim.c **** 
1864:Drivers/STM32F1xx_HAL_Driver/Src/stm32f1xx_hal_tim.c ****   /* Enable the Peripheral */
1865:Drivers/STM32F1xx_HAL_Driver/Src/stm32f1xx_hal_tim.c ****   __HAL_TIM_ENABLE(htim);
1866:Drivers/STM32F1xx_HAL_Driver/Src/stm32f1xx_hal_tim.c **** 
1867:Drivers/STM32F1xx_HAL_Driver/Src/stm32f1xx_hal_tim.c ****   /* Return function status */
1868:Drivers/STM32F1xx_HAL_Driver/Src/stm32f1xx_hal_tim.c ****   return HAL_OK;
1869:Drivers/STM32F1xx_HAL_Driver/Src/stm32f1xx_hal_tim.c **** }
1870:Drivers/STM32F1xx_HAL_Driver/Src/stm32f1xx_hal_tim.c **** 
1871:Drivers/STM32F1xx_HAL_Driver/Src/stm32f1xx_hal_tim.c **** /**
1872:Drivers/STM32F1xx_HAL_Driver/Src/stm32f1xx_hal_tim.c ****   * @brief  Stops the TIM Input Capture measurement in DMA mode.
1873:Drivers/STM32F1xx_HAL_Driver/Src/stm32f1xx_hal_tim.c ****   * @param  htim : TIM Input Capture handle
1874:Drivers/STM32F1xx_HAL_Driver/Src/stm32f1xx_hal_tim.c ****   * @param  Channel : TIM Channels to be disabled
1875:Drivers/STM32F1xx_HAL_Driver/Src/stm32f1xx_hal_tim.c ****   *          This parameter can be one of the following values:
1876:Drivers/STM32F1xx_HAL_Driver/Src/stm32f1xx_hal_tim.c ****   *            @arg TIM_CHANNEL_1: TIM Channel 1 selected
1877:Drivers/STM32F1xx_HAL_Driver/Src/stm32f1xx_hal_tim.c ****   *            @arg TIM_CHANNEL_2: TIM Channel 2 selected
1878:Drivers/STM32F1xx_HAL_Driver/Src/stm32f1xx_hal_tim.c ****   *            @arg TIM_CHANNEL_3: TIM Channel 3 selected
1879:Drivers/STM32F1xx_HAL_Driver/Src/stm32f1xx_hal_tim.c ****   *            @arg TIM_CHANNEL_4: TIM Channel 4 selected
1880:Drivers/STM32F1xx_HAL_Driver/Src/stm32f1xx_hal_tim.c ****   * @retval HAL status
1881:Drivers/STM32F1xx_HAL_Driver/Src/stm32f1xx_hal_tim.c **** */
1882:Drivers/STM32F1xx_HAL_Driver/Src/stm32f1xx_hal_tim.c **** HAL_StatusTypeDef HAL_TIM_IC_Stop_DMA(TIM_HandleTypeDef *htim, uint32_t Channel)
1883:Drivers/STM32F1xx_HAL_Driver/Src/stm32f1xx_hal_tim.c **** {
1884:Drivers/STM32F1xx_HAL_Driver/Src/stm32f1xx_hal_tim.c ****   /* Check the parameters */
1885:Drivers/STM32F1xx_HAL_Driver/Src/stm32f1xx_hal_tim.c ****   assert_param(IS_TIM_CCX_INSTANCE(htim->Instance, Channel));
1886:Drivers/STM32F1xx_HAL_Driver/Src/stm32f1xx_hal_tim.c ****   assert_param(IS_TIM_DMA_CC_INSTANCE(htim->Instance));
1887:Drivers/STM32F1xx_HAL_Driver/Src/stm32f1xx_hal_tim.c **** 
1888:Drivers/STM32F1xx_HAL_Driver/Src/stm32f1xx_hal_tim.c ****   switch (Channel)
1889:Drivers/STM32F1xx_HAL_Driver/Src/stm32f1xx_hal_tim.c ****   {
1890:Drivers/STM32F1xx_HAL_Driver/Src/stm32f1xx_hal_tim.c ****     case TIM_CHANNEL_1:
1891:Drivers/STM32F1xx_HAL_Driver/Src/stm32f1xx_hal_tim.c ****     {
1892:Drivers/STM32F1xx_HAL_Driver/Src/stm32f1xx_hal_tim.c ****       /* Disable the TIM Capture/Compare 1 DMA request */
1893:Drivers/STM32F1xx_HAL_Driver/Src/stm32f1xx_hal_tim.c ****       __HAL_TIM_DISABLE_DMA(htim, TIM_DMA_CC1);
1894:Drivers/STM32F1xx_HAL_Driver/Src/stm32f1xx_hal_tim.c ****     }
1895:Drivers/STM32F1xx_HAL_Driver/Src/stm32f1xx_hal_tim.c ****     break;
1896:Drivers/STM32F1xx_HAL_Driver/Src/stm32f1xx_hal_tim.c **** 
1897:Drivers/STM32F1xx_HAL_Driver/Src/stm32f1xx_hal_tim.c ****     case TIM_CHANNEL_2:
1898:Drivers/STM32F1xx_HAL_Driver/Src/stm32f1xx_hal_tim.c ****     {
1899:Drivers/STM32F1xx_HAL_Driver/Src/stm32f1xx_hal_tim.c ****       /* Disable the TIM Capture/Compare 2 DMA request */
1900:Drivers/STM32F1xx_HAL_Driver/Src/stm32f1xx_hal_tim.c ****       __HAL_TIM_DISABLE_DMA(htim, TIM_DMA_CC2);
1901:Drivers/STM32F1xx_HAL_Driver/Src/stm32f1xx_hal_tim.c ****     }
1902:Drivers/STM32F1xx_HAL_Driver/Src/stm32f1xx_hal_tim.c ****     break;
1903:Drivers/STM32F1xx_HAL_Driver/Src/stm32f1xx_hal_tim.c **** 
1904:Drivers/STM32F1xx_HAL_Driver/Src/stm32f1xx_hal_tim.c ****     case TIM_CHANNEL_3:
1905:Drivers/STM32F1xx_HAL_Driver/Src/stm32f1xx_hal_tim.c ****     {
1906:Drivers/STM32F1xx_HAL_Driver/Src/stm32f1xx_hal_tim.c ****       /* Disable the TIM Capture/Compare 3  DMA request */
1907:Drivers/STM32F1xx_HAL_Driver/Src/stm32f1xx_hal_tim.c ****       __HAL_TIM_DISABLE_DMA(htim, TIM_DMA_CC3);
1908:Drivers/STM32F1xx_HAL_Driver/Src/stm32f1xx_hal_tim.c ****     }
1909:Drivers/STM32F1xx_HAL_Driver/Src/stm32f1xx_hal_tim.c ****     break;
1910:Drivers/STM32F1xx_HAL_Driver/Src/stm32f1xx_hal_tim.c **** 
1911:Drivers/STM32F1xx_HAL_Driver/Src/stm32f1xx_hal_tim.c ****     case TIM_CHANNEL_4:
1912:Drivers/STM32F1xx_HAL_Driver/Src/stm32f1xx_hal_tim.c ****     {
ARM GAS  /tmp/ccIpqr7A.s 			page 36


1913:Drivers/STM32F1xx_HAL_Driver/Src/stm32f1xx_hal_tim.c ****       /* Disable the TIM Capture/Compare 4  DMA request */
1914:Drivers/STM32F1xx_HAL_Driver/Src/stm32f1xx_hal_tim.c ****       __HAL_TIM_DISABLE_DMA(htim, TIM_DMA_CC4);
1915:Drivers/STM32F1xx_HAL_Driver/Src/stm32f1xx_hal_tim.c ****     }
1916:Drivers/STM32F1xx_HAL_Driver/Src/stm32f1xx_hal_tim.c ****     break;
1917:Drivers/STM32F1xx_HAL_Driver/Src/stm32f1xx_hal_tim.c **** 
1918:Drivers/STM32F1xx_HAL_Driver/Src/stm32f1xx_hal_tim.c ****     default:
1919:Drivers/STM32F1xx_HAL_Driver/Src/stm32f1xx_hal_tim.c ****     break;
1920:Drivers/STM32F1xx_HAL_Driver/Src/stm32f1xx_hal_tim.c ****   }
1921:Drivers/STM32F1xx_HAL_Driver/Src/stm32f1xx_hal_tim.c **** 
1922:Drivers/STM32F1xx_HAL_Driver/Src/stm32f1xx_hal_tim.c ****   /* Disable the Input Capture channel */
1923:Drivers/STM32F1xx_HAL_Driver/Src/stm32f1xx_hal_tim.c ****   TIM_CCxChannelCmd(htim->Instance, Channel, TIM_CCx_DISABLE);
1924:Drivers/STM32F1xx_HAL_Driver/Src/stm32f1xx_hal_tim.c **** 
1925:Drivers/STM32F1xx_HAL_Driver/Src/stm32f1xx_hal_tim.c ****   /* Disable the Peripheral */
1926:Drivers/STM32F1xx_HAL_Driver/Src/stm32f1xx_hal_tim.c ****   __HAL_TIM_DISABLE(htim);
1927:Drivers/STM32F1xx_HAL_Driver/Src/stm32f1xx_hal_tim.c **** 
1928:Drivers/STM32F1xx_HAL_Driver/Src/stm32f1xx_hal_tim.c ****   /* Change the htim state */
1929:Drivers/STM32F1xx_HAL_Driver/Src/stm32f1xx_hal_tim.c ****   htim->State = HAL_TIM_STATE_READY;
1930:Drivers/STM32F1xx_HAL_Driver/Src/stm32f1xx_hal_tim.c **** 
1931:Drivers/STM32F1xx_HAL_Driver/Src/stm32f1xx_hal_tim.c ****   /* Return function status */
1932:Drivers/STM32F1xx_HAL_Driver/Src/stm32f1xx_hal_tim.c ****   return HAL_OK;
1933:Drivers/STM32F1xx_HAL_Driver/Src/stm32f1xx_hal_tim.c **** }
1934:Drivers/STM32F1xx_HAL_Driver/Src/stm32f1xx_hal_tim.c **** /**
1935:Drivers/STM32F1xx_HAL_Driver/Src/stm32f1xx_hal_tim.c ****   * @}
1936:Drivers/STM32F1xx_HAL_Driver/Src/stm32f1xx_hal_tim.c ****   */
1937:Drivers/STM32F1xx_HAL_Driver/Src/stm32f1xx_hal_tim.c **** 
1938:Drivers/STM32F1xx_HAL_Driver/Src/stm32f1xx_hal_tim.c **** /** @defgroup TIM_Exported_Functions_Group5 Time One Pulse functions 
1939:Drivers/STM32F1xx_HAL_Driver/Src/stm32f1xx_hal_tim.c ****  *  @brief    Time One Pulse functions 
1940:Drivers/STM32F1xx_HAL_Driver/Src/stm32f1xx_hal_tim.c ****  *
1941:Drivers/STM32F1xx_HAL_Driver/Src/stm32f1xx_hal_tim.c **** @verbatim 
1942:Drivers/STM32F1xx_HAL_Driver/Src/stm32f1xx_hal_tim.c ****   ==============================================================================
1943:Drivers/STM32F1xx_HAL_Driver/Src/stm32f1xx_hal_tim.c ****                         ##### Time One Pulse functions #####
1944:Drivers/STM32F1xx_HAL_Driver/Src/stm32f1xx_hal_tim.c ****   ==============================================================================
1945:Drivers/STM32F1xx_HAL_Driver/Src/stm32f1xx_hal_tim.c ****   [..]
1946:Drivers/STM32F1xx_HAL_Driver/Src/stm32f1xx_hal_tim.c ****     This section provides functions allowing to:
1947:Drivers/STM32F1xx_HAL_Driver/Src/stm32f1xx_hal_tim.c ****     (+) Initialize and configure the TIM One Pulse.
1948:Drivers/STM32F1xx_HAL_Driver/Src/stm32f1xx_hal_tim.c ****     (+) De-initialize the TIM One Pulse.
1949:Drivers/STM32F1xx_HAL_Driver/Src/stm32f1xx_hal_tim.c ****     (+) Start the Time One Pulse.
1950:Drivers/STM32F1xx_HAL_Driver/Src/stm32f1xx_hal_tim.c ****     (+) Stop the Time One Pulse.
1951:Drivers/STM32F1xx_HAL_Driver/Src/stm32f1xx_hal_tim.c ****     (+) Start the Time One Pulse and enable interrupt.
1952:Drivers/STM32F1xx_HAL_Driver/Src/stm32f1xx_hal_tim.c ****     (+) Stop the Time One Pulse and disable interrupt.
1953:Drivers/STM32F1xx_HAL_Driver/Src/stm32f1xx_hal_tim.c ****     (+) Start the Time One Pulse and enable DMA transfer.
1954:Drivers/STM32F1xx_HAL_Driver/Src/stm32f1xx_hal_tim.c ****     (+) Stop the Time One Pulse and disable DMA transfer.
1955:Drivers/STM32F1xx_HAL_Driver/Src/stm32f1xx_hal_tim.c **** 
1956:Drivers/STM32F1xx_HAL_Driver/Src/stm32f1xx_hal_tim.c **** @endverbatim
1957:Drivers/STM32F1xx_HAL_Driver/Src/stm32f1xx_hal_tim.c ****   * @{
1958:Drivers/STM32F1xx_HAL_Driver/Src/stm32f1xx_hal_tim.c ****   */
1959:Drivers/STM32F1xx_HAL_Driver/Src/stm32f1xx_hal_tim.c **** /**
1960:Drivers/STM32F1xx_HAL_Driver/Src/stm32f1xx_hal_tim.c ****   * @brief  Initializes the TIM One Pulse Time Base according to the specified
1961:Drivers/STM32F1xx_HAL_Driver/Src/stm32f1xx_hal_tim.c ****   *         parameters in the TIM_HandleTypeDef and create the associated handle.
1962:Drivers/STM32F1xx_HAL_Driver/Src/stm32f1xx_hal_tim.c ****   * @param  htim : TIM OnePulse handle
1963:Drivers/STM32F1xx_HAL_Driver/Src/stm32f1xx_hal_tim.c ****   * @param  OnePulseMode : Select the One pulse mode.
1964:Drivers/STM32F1xx_HAL_Driver/Src/stm32f1xx_hal_tim.c ****   *         This parameter can be one of the following values:
1965:Drivers/STM32F1xx_HAL_Driver/Src/stm32f1xx_hal_tim.c ****   *            @arg TIM_OPMODE_SINGLE: Only one pulse will be generated.
1966:Drivers/STM32F1xx_HAL_Driver/Src/stm32f1xx_hal_tim.c ****   *            @arg TIM_OPMODE_REPETITIVE: Repetitive pulses wil be generated.
1967:Drivers/STM32F1xx_HAL_Driver/Src/stm32f1xx_hal_tim.c ****   * @retval HAL status
1968:Drivers/STM32F1xx_HAL_Driver/Src/stm32f1xx_hal_tim.c ****   */
1969:Drivers/STM32F1xx_HAL_Driver/Src/stm32f1xx_hal_tim.c **** HAL_StatusTypeDef HAL_TIM_OnePulse_Init(TIM_HandleTypeDef *htim, uint32_t OnePulseMode)
ARM GAS  /tmp/ccIpqr7A.s 			page 37


1970:Drivers/STM32F1xx_HAL_Driver/Src/stm32f1xx_hal_tim.c **** {
1971:Drivers/STM32F1xx_HAL_Driver/Src/stm32f1xx_hal_tim.c ****   /* Check the TIM handle allocation */
1972:Drivers/STM32F1xx_HAL_Driver/Src/stm32f1xx_hal_tim.c ****   if(htim == NULL)
1973:Drivers/STM32F1xx_HAL_Driver/Src/stm32f1xx_hal_tim.c ****   {
1974:Drivers/STM32F1xx_HAL_Driver/Src/stm32f1xx_hal_tim.c ****     return HAL_ERROR;
1975:Drivers/STM32F1xx_HAL_Driver/Src/stm32f1xx_hal_tim.c ****   }
1976:Drivers/STM32F1xx_HAL_Driver/Src/stm32f1xx_hal_tim.c **** 
1977:Drivers/STM32F1xx_HAL_Driver/Src/stm32f1xx_hal_tim.c ****   /* Check the parameters */
1978:Drivers/STM32F1xx_HAL_Driver/Src/stm32f1xx_hal_tim.c ****   assert_param(IS_TIM_INSTANCE(htim->Instance));
1979:Drivers/STM32F1xx_HAL_Driver/Src/stm32f1xx_hal_tim.c ****   assert_param(IS_TIM_COUNTER_MODE(htim->Init.CounterMode));
1980:Drivers/STM32F1xx_HAL_Driver/Src/stm32f1xx_hal_tim.c ****   assert_param(IS_TIM_CLOCKDIVISION_DIV(htim->Init.ClockDivision));
1981:Drivers/STM32F1xx_HAL_Driver/Src/stm32f1xx_hal_tim.c ****   assert_param(IS_TIM_AUTORELOAD_PRELOAD(htim->Init.AutoReloadPreload));
1982:Drivers/STM32F1xx_HAL_Driver/Src/stm32f1xx_hal_tim.c ****   assert_param(IS_TIM_OPM_MODE(OnePulseMode));
1983:Drivers/STM32F1xx_HAL_Driver/Src/stm32f1xx_hal_tim.c **** 
1984:Drivers/STM32F1xx_HAL_Driver/Src/stm32f1xx_hal_tim.c ****   if(htim->State == HAL_TIM_STATE_RESET)
1985:Drivers/STM32F1xx_HAL_Driver/Src/stm32f1xx_hal_tim.c ****   {
1986:Drivers/STM32F1xx_HAL_Driver/Src/stm32f1xx_hal_tim.c ****     /* Allocate lock resource and initialize it */
1987:Drivers/STM32F1xx_HAL_Driver/Src/stm32f1xx_hal_tim.c ****     htim->Lock = HAL_UNLOCKED;
1988:Drivers/STM32F1xx_HAL_Driver/Src/stm32f1xx_hal_tim.c ****     
1989:Drivers/STM32F1xx_HAL_Driver/Src/stm32f1xx_hal_tim.c ****     /* Init the low level hardware : GPIO, CLOCK, NVIC and DMA */
1990:Drivers/STM32F1xx_HAL_Driver/Src/stm32f1xx_hal_tim.c ****     HAL_TIM_OnePulse_MspInit(htim);
1991:Drivers/STM32F1xx_HAL_Driver/Src/stm32f1xx_hal_tim.c ****   }
1992:Drivers/STM32F1xx_HAL_Driver/Src/stm32f1xx_hal_tim.c **** 
1993:Drivers/STM32F1xx_HAL_Driver/Src/stm32f1xx_hal_tim.c ****   /* Set the TIM state */
1994:Drivers/STM32F1xx_HAL_Driver/Src/stm32f1xx_hal_tim.c ****   htim->State= HAL_TIM_STATE_BUSY;
1995:Drivers/STM32F1xx_HAL_Driver/Src/stm32f1xx_hal_tim.c **** 
1996:Drivers/STM32F1xx_HAL_Driver/Src/stm32f1xx_hal_tim.c ****   /* Configure the Time base in the One Pulse Mode */
1997:Drivers/STM32F1xx_HAL_Driver/Src/stm32f1xx_hal_tim.c ****   TIM_Base_SetConfig(htim->Instance, &htim->Init);
1998:Drivers/STM32F1xx_HAL_Driver/Src/stm32f1xx_hal_tim.c **** 
1999:Drivers/STM32F1xx_HAL_Driver/Src/stm32f1xx_hal_tim.c ****   /* Reset the OPM Bit */
2000:Drivers/STM32F1xx_HAL_Driver/Src/stm32f1xx_hal_tim.c ****   htim->Instance->CR1 &= ~TIM_CR1_OPM;
2001:Drivers/STM32F1xx_HAL_Driver/Src/stm32f1xx_hal_tim.c **** 
2002:Drivers/STM32F1xx_HAL_Driver/Src/stm32f1xx_hal_tim.c ****   /* Configure the OPM Mode */
2003:Drivers/STM32F1xx_HAL_Driver/Src/stm32f1xx_hal_tim.c ****   htim->Instance->CR1 |= OnePulseMode;
2004:Drivers/STM32F1xx_HAL_Driver/Src/stm32f1xx_hal_tim.c **** 
2005:Drivers/STM32F1xx_HAL_Driver/Src/stm32f1xx_hal_tim.c ****   /* Initialize the TIM state*/
2006:Drivers/STM32F1xx_HAL_Driver/Src/stm32f1xx_hal_tim.c ****   htim->State= HAL_TIM_STATE_READY;
2007:Drivers/STM32F1xx_HAL_Driver/Src/stm32f1xx_hal_tim.c **** 
2008:Drivers/STM32F1xx_HAL_Driver/Src/stm32f1xx_hal_tim.c ****   return HAL_OK;
2009:Drivers/STM32F1xx_HAL_Driver/Src/stm32f1xx_hal_tim.c **** }
2010:Drivers/STM32F1xx_HAL_Driver/Src/stm32f1xx_hal_tim.c **** 
2011:Drivers/STM32F1xx_HAL_Driver/Src/stm32f1xx_hal_tim.c **** /**
2012:Drivers/STM32F1xx_HAL_Driver/Src/stm32f1xx_hal_tim.c ****   * @brief  DeInitializes the TIM One Pulse 
2013:Drivers/STM32F1xx_HAL_Driver/Src/stm32f1xx_hal_tim.c ****   * @param  htim : TIM One Pulse handle
2014:Drivers/STM32F1xx_HAL_Driver/Src/stm32f1xx_hal_tim.c ****   * @retval HAL status
2015:Drivers/STM32F1xx_HAL_Driver/Src/stm32f1xx_hal_tim.c ****   */
2016:Drivers/STM32F1xx_HAL_Driver/Src/stm32f1xx_hal_tim.c **** HAL_StatusTypeDef HAL_TIM_OnePulse_DeInit(TIM_HandleTypeDef *htim)
2017:Drivers/STM32F1xx_HAL_Driver/Src/stm32f1xx_hal_tim.c **** {
2018:Drivers/STM32F1xx_HAL_Driver/Src/stm32f1xx_hal_tim.c ****   /* Check the parameters */
2019:Drivers/STM32F1xx_HAL_Driver/Src/stm32f1xx_hal_tim.c ****   assert_param(IS_TIM_INSTANCE(htim->Instance));
2020:Drivers/STM32F1xx_HAL_Driver/Src/stm32f1xx_hal_tim.c **** 
2021:Drivers/STM32F1xx_HAL_Driver/Src/stm32f1xx_hal_tim.c ****   htim->State = HAL_TIM_STATE_BUSY;
2022:Drivers/STM32F1xx_HAL_Driver/Src/stm32f1xx_hal_tim.c **** 
2023:Drivers/STM32F1xx_HAL_Driver/Src/stm32f1xx_hal_tim.c ****   /* Disable the TIM Peripheral Clock */
2024:Drivers/STM32F1xx_HAL_Driver/Src/stm32f1xx_hal_tim.c ****   __HAL_TIM_DISABLE(htim);
2025:Drivers/STM32F1xx_HAL_Driver/Src/stm32f1xx_hal_tim.c **** 
2026:Drivers/STM32F1xx_HAL_Driver/Src/stm32f1xx_hal_tim.c ****   /* DeInit the low level hardware: GPIO, CLOCK, NVIC */
ARM GAS  /tmp/ccIpqr7A.s 			page 38


2027:Drivers/STM32F1xx_HAL_Driver/Src/stm32f1xx_hal_tim.c ****   HAL_TIM_OnePulse_MspDeInit(htim);
2028:Drivers/STM32F1xx_HAL_Driver/Src/stm32f1xx_hal_tim.c **** 
2029:Drivers/STM32F1xx_HAL_Driver/Src/stm32f1xx_hal_tim.c ****   /* Change TIM state */
2030:Drivers/STM32F1xx_HAL_Driver/Src/stm32f1xx_hal_tim.c ****   htim->State = HAL_TIM_STATE_RESET;
2031:Drivers/STM32F1xx_HAL_Driver/Src/stm32f1xx_hal_tim.c **** 
2032:Drivers/STM32F1xx_HAL_Driver/Src/stm32f1xx_hal_tim.c ****   /* Release Lock */
2033:Drivers/STM32F1xx_HAL_Driver/Src/stm32f1xx_hal_tim.c ****   __HAL_UNLOCK(htim);
2034:Drivers/STM32F1xx_HAL_Driver/Src/stm32f1xx_hal_tim.c **** 
2035:Drivers/STM32F1xx_HAL_Driver/Src/stm32f1xx_hal_tim.c ****   return HAL_OK;
2036:Drivers/STM32F1xx_HAL_Driver/Src/stm32f1xx_hal_tim.c **** }
2037:Drivers/STM32F1xx_HAL_Driver/Src/stm32f1xx_hal_tim.c **** 
2038:Drivers/STM32F1xx_HAL_Driver/Src/stm32f1xx_hal_tim.c **** /**
2039:Drivers/STM32F1xx_HAL_Driver/Src/stm32f1xx_hal_tim.c ****   * @brief  Initializes the TIM One Pulse MSP.
2040:Drivers/STM32F1xx_HAL_Driver/Src/stm32f1xx_hal_tim.c ****   * @param  htim : TIM handle
2041:Drivers/STM32F1xx_HAL_Driver/Src/stm32f1xx_hal_tim.c ****   * @retval None
2042:Drivers/STM32F1xx_HAL_Driver/Src/stm32f1xx_hal_tim.c ****   */
2043:Drivers/STM32F1xx_HAL_Driver/Src/stm32f1xx_hal_tim.c **** __weak void HAL_TIM_OnePulse_MspInit(TIM_HandleTypeDef *htim)
2044:Drivers/STM32F1xx_HAL_Driver/Src/stm32f1xx_hal_tim.c **** {
2045:Drivers/STM32F1xx_HAL_Driver/Src/stm32f1xx_hal_tim.c ****   /* Prevent unused argument(s) compilation warning */
2046:Drivers/STM32F1xx_HAL_Driver/Src/stm32f1xx_hal_tim.c ****   UNUSED(htim);
2047:Drivers/STM32F1xx_HAL_Driver/Src/stm32f1xx_hal_tim.c ****   /* NOTE : This function Should not be modified, when the callback is needed,
2048:Drivers/STM32F1xx_HAL_Driver/Src/stm32f1xx_hal_tim.c ****             the HAL_TIM_OnePulse_MspInit could be implemented in the user file
2049:Drivers/STM32F1xx_HAL_Driver/Src/stm32f1xx_hal_tim.c ****    */
2050:Drivers/STM32F1xx_HAL_Driver/Src/stm32f1xx_hal_tim.c **** }
2051:Drivers/STM32F1xx_HAL_Driver/Src/stm32f1xx_hal_tim.c **** 
2052:Drivers/STM32F1xx_HAL_Driver/Src/stm32f1xx_hal_tim.c **** /**
2053:Drivers/STM32F1xx_HAL_Driver/Src/stm32f1xx_hal_tim.c ****   * @brief  DeInitializes TIM One Pulse MSP.
2054:Drivers/STM32F1xx_HAL_Driver/Src/stm32f1xx_hal_tim.c ****   * @param  htim : TIM handle
2055:Drivers/STM32F1xx_HAL_Driver/Src/stm32f1xx_hal_tim.c ****   * @retval None
2056:Drivers/STM32F1xx_HAL_Driver/Src/stm32f1xx_hal_tim.c ****   */
2057:Drivers/STM32F1xx_HAL_Driver/Src/stm32f1xx_hal_tim.c **** __weak void HAL_TIM_OnePulse_MspDeInit(TIM_HandleTypeDef *htim)
2058:Drivers/STM32F1xx_HAL_Driver/Src/stm32f1xx_hal_tim.c **** {
2059:Drivers/STM32F1xx_HAL_Driver/Src/stm32f1xx_hal_tim.c ****   /* Prevent unused argument(s) compilation warning */
2060:Drivers/STM32F1xx_HAL_Driver/Src/stm32f1xx_hal_tim.c ****   UNUSED(htim);
2061:Drivers/STM32F1xx_HAL_Driver/Src/stm32f1xx_hal_tim.c ****   /* NOTE : This function Should not be modified, when the callback is needed,
2062:Drivers/STM32F1xx_HAL_Driver/Src/stm32f1xx_hal_tim.c ****             the HAL_TIM_OnePulse_MspDeInit could be implemented in the user file
2063:Drivers/STM32F1xx_HAL_Driver/Src/stm32f1xx_hal_tim.c ****    */
2064:Drivers/STM32F1xx_HAL_Driver/Src/stm32f1xx_hal_tim.c **** }
2065:Drivers/STM32F1xx_HAL_Driver/Src/stm32f1xx_hal_tim.c **** 
2066:Drivers/STM32F1xx_HAL_Driver/Src/stm32f1xx_hal_tim.c **** /**
2067:Drivers/STM32F1xx_HAL_Driver/Src/stm32f1xx_hal_tim.c ****   * @brief  Starts the TIM One Pulse signal generation.
2068:Drivers/STM32F1xx_HAL_Driver/Src/stm32f1xx_hal_tim.c ****   * @param  htim : TIM One Pulse handle
2069:Drivers/STM32F1xx_HAL_Driver/Src/stm32f1xx_hal_tim.c ****   * @param  OutputChannel : TIM Channels to be enabled
2070:Drivers/STM32F1xx_HAL_Driver/Src/stm32f1xx_hal_tim.c ****   *          This parameter can be one of the following values:
2071:Drivers/STM32F1xx_HAL_Driver/Src/stm32f1xx_hal_tim.c ****   *            @arg TIM_CHANNEL_1: TIM Channel 1 selected
2072:Drivers/STM32F1xx_HAL_Driver/Src/stm32f1xx_hal_tim.c ****   *            @arg TIM_CHANNEL_2: TIM Channel 2 selected
2073:Drivers/STM32F1xx_HAL_Driver/Src/stm32f1xx_hal_tim.c ****   * @retval HAL status
2074:Drivers/STM32F1xx_HAL_Driver/Src/stm32f1xx_hal_tim.c **** */
2075:Drivers/STM32F1xx_HAL_Driver/Src/stm32f1xx_hal_tim.c **** HAL_StatusTypeDef HAL_TIM_OnePulse_Start(TIM_HandleTypeDef *htim, uint32_t OutputChannel)
2076:Drivers/STM32F1xx_HAL_Driver/Src/stm32f1xx_hal_tim.c **** {
2077:Drivers/STM32F1xx_HAL_Driver/Src/stm32f1xx_hal_tim.c ****   /* Prevent unused argument(s) compilation warning */
2078:Drivers/STM32F1xx_HAL_Driver/Src/stm32f1xx_hal_tim.c ****   UNUSED(OutputChannel);
2079:Drivers/STM32F1xx_HAL_Driver/Src/stm32f1xx_hal_tim.c **** 
2080:Drivers/STM32F1xx_HAL_Driver/Src/stm32f1xx_hal_tim.c ****   /* Enable the Capture compare and the Input Capture channels 
2081:Drivers/STM32F1xx_HAL_Driver/Src/stm32f1xx_hal_tim.c ****     (in the OPM Mode the two possible channels that can be used are TIM_CHANNEL_1 and TIM_CHANNEL_2
2082:Drivers/STM32F1xx_HAL_Driver/Src/stm32f1xx_hal_tim.c ****     if TIM_CHANNEL_1 is used as output, the TIM_CHANNEL_2 will be used as input and
2083:Drivers/STM32F1xx_HAL_Driver/Src/stm32f1xx_hal_tim.c ****     if TIM_CHANNEL_1 is used as input, the TIM_CHANNEL_2 will be used as output 
ARM GAS  /tmp/ccIpqr7A.s 			page 39


2084:Drivers/STM32F1xx_HAL_Driver/Src/stm32f1xx_hal_tim.c ****     in all combinations, the TIM_CHANNEL_1 and TIM_CHANNEL_2 should be enabled together 
2085:Drivers/STM32F1xx_HAL_Driver/Src/stm32f1xx_hal_tim.c **** 
2086:Drivers/STM32F1xx_HAL_Driver/Src/stm32f1xx_hal_tim.c ****     No need to enable the counter, it's enabled automatically by hardware 
2087:Drivers/STM32F1xx_HAL_Driver/Src/stm32f1xx_hal_tim.c ****     (the counter starts in response to a stimulus and generate a pulse */
2088:Drivers/STM32F1xx_HAL_Driver/Src/stm32f1xx_hal_tim.c **** 
2089:Drivers/STM32F1xx_HAL_Driver/Src/stm32f1xx_hal_tim.c ****   TIM_CCxChannelCmd(htim->Instance, TIM_CHANNEL_1, TIM_CCx_ENABLE);
2090:Drivers/STM32F1xx_HAL_Driver/Src/stm32f1xx_hal_tim.c ****   TIM_CCxChannelCmd(htim->Instance, TIM_CHANNEL_2, TIM_CCx_ENABLE);
2091:Drivers/STM32F1xx_HAL_Driver/Src/stm32f1xx_hal_tim.c **** 
2092:Drivers/STM32F1xx_HAL_Driver/Src/stm32f1xx_hal_tim.c ****   if(IS_TIM_BREAK_INSTANCE(htim->Instance) != RESET)
2093:Drivers/STM32F1xx_HAL_Driver/Src/stm32f1xx_hal_tim.c ****   {
2094:Drivers/STM32F1xx_HAL_Driver/Src/stm32f1xx_hal_tim.c ****     /* Enable the main output */
2095:Drivers/STM32F1xx_HAL_Driver/Src/stm32f1xx_hal_tim.c ****     __HAL_TIM_MOE_ENABLE(htim);
2096:Drivers/STM32F1xx_HAL_Driver/Src/stm32f1xx_hal_tim.c ****   }
2097:Drivers/STM32F1xx_HAL_Driver/Src/stm32f1xx_hal_tim.c **** 
2098:Drivers/STM32F1xx_HAL_Driver/Src/stm32f1xx_hal_tim.c ****   /* Return function status */
2099:Drivers/STM32F1xx_HAL_Driver/Src/stm32f1xx_hal_tim.c ****   return HAL_OK;
2100:Drivers/STM32F1xx_HAL_Driver/Src/stm32f1xx_hal_tim.c **** }
2101:Drivers/STM32F1xx_HAL_Driver/Src/stm32f1xx_hal_tim.c **** 
2102:Drivers/STM32F1xx_HAL_Driver/Src/stm32f1xx_hal_tim.c **** /**
2103:Drivers/STM32F1xx_HAL_Driver/Src/stm32f1xx_hal_tim.c ****   * @brief  Stops the TIM One Pulse signal generation.
2104:Drivers/STM32F1xx_HAL_Driver/Src/stm32f1xx_hal_tim.c ****   * @param  htim : TIM One Pulse handle
2105:Drivers/STM32F1xx_HAL_Driver/Src/stm32f1xx_hal_tim.c ****   * @param  OutputChannel : TIM Channels to be disable
2106:Drivers/STM32F1xx_HAL_Driver/Src/stm32f1xx_hal_tim.c ****   *          This parameter can be one of the following values:
2107:Drivers/STM32F1xx_HAL_Driver/Src/stm32f1xx_hal_tim.c ****   *            @arg TIM_CHANNEL_1: TIM Channel 1 selected
2108:Drivers/STM32F1xx_HAL_Driver/Src/stm32f1xx_hal_tim.c ****   *            @arg TIM_CHANNEL_2: TIM Channel 2 selected
2109:Drivers/STM32F1xx_HAL_Driver/Src/stm32f1xx_hal_tim.c ****   * @retval HAL status
2110:Drivers/STM32F1xx_HAL_Driver/Src/stm32f1xx_hal_tim.c **** */
2111:Drivers/STM32F1xx_HAL_Driver/Src/stm32f1xx_hal_tim.c **** HAL_StatusTypeDef HAL_TIM_OnePulse_Stop(TIM_HandleTypeDef *htim, uint32_t OutputChannel)
2112:Drivers/STM32F1xx_HAL_Driver/Src/stm32f1xx_hal_tim.c **** {
2113:Drivers/STM32F1xx_HAL_Driver/Src/stm32f1xx_hal_tim.c ****   /* Prevent unused argument(s) compilation warning */
2114:Drivers/STM32F1xx_HAL_Driver/Src/stm32f1xx_hal_tim.c ****   UNUSED(OutputChannel);
2115:Drivers/STM32F1xx_HAL_Driver/Src/stm32f1xx_hal_tim.c **** 
2116:Drivers/STM32F1xx_HAL_Driver/Src/stm32f1xx_hal_tim.c ****   /* Disable the Capture compare and the Input Capture channels
2117:Drivers/STM32F1xx_HAL_Driver/Src/stm32f1xx_hal_tim.c ****   (in the OPM Mode the two possible channels that can be used are TIM_CHANNEL_1 and TIM_CHANNEL_2)
2118:Drivers/STM32F1xx_HAL_Driver/Src/stm32f1xx_hal_tim.c ****   if TIM_CHANNEL_1 is used as output, the TIM_CHANNEL_2 will be used as input and
2119:Drivers/STM32F1xx_HAL_Driver/Src/stm32f1xx_hal_tim.c ****   if TIM_CHANNEL_1 is used as input, the TIM_CHANNEL_2 will be used as output 
2120:Drivers/STM32F1xx_HAL_Driver/Src/stm32f1xx_hal_tim.c ****   in all combinations, the TIM_CHANNEL_1 and TIM_CHANNEL_2 should be disabled together */
2121:Drivers/STM32F1xx_HAL_Driver/Src/stm32f1xx_hal_tim.c **** 
2122:Drivers/STM32F1xx_HAL_Driver/Src/stm32f1xx_hal_tim.c ****   TIM_CCxChannelCmd(htim->Instance, TIM_CHANNEL_1, TIM_CCx_DISABLE);
2123:Drivers/STM32F1xx_HAL_Driver/Src/stm32f1xx_hal_tim.c ****   TIM_CCxChannelCmd(htim->Instance, TIM_CHANNEL_2, TIM_CCx_DISABLE);
2124:Drivers/STM32F1xx_HAL_Driver/Src/stm32f1xx_hal_tim.c **** 
2125:Drivers/STM32F1xx_HAL_Driver/Src/stm32f1xx_hal_tim.c ****   if(IS_TIM_BREAK_INSTANCE(htim->Instance) != RESET)
2126:Drivers/STM32F1xx_HAL_Driver/Src/stm32f1xx_hal_tim.c ****   {
2127:Drivers/STM32F1xx_HAL_Driver/Src/stm32f1xx_hal_tim.c ****     /* Disable the Main Ouput */
2128:Drivers/STM32F1xx_HAL_Driver/Src/stm32f1xx_hal_tim.c ****     __HAL_TIM_MOE_DISABLE(htim);
2129:Drivers/STM32F1xx_HAL_Driver/Src/stm32f1xx_hal_tim.c ****   }
2130:Drivers/STM32F1xx_HAL_Driver/Src/stm32f1xx_hal_tim.c **** 
2131:Drivers/STM32F1xx_HAL_Driver/Src/stm32f1xx_hal_tim.c ****   /* Disable the Peripheral */
2132:Drivers/STM32F1xx_HAL_Driver/Src/stm32f1xx_hal_tim.c ****   __HAL_TIM_DISABLE(htim);
2133:Drivers/STM32F1xx_HAL_Driver/Src/stm32f1xx_hal_tim.c **** 
2134:Drivers/STM32F1xx_HAL_Driver/Src/stm32f1xx_hal_tim.c ****   /* Return function status */
2135:Drivers/STM32F1xx_HAL_Driver/Src/stm32f1xx_hal_tim.c ****   return HAL_OK;
2136:Drivers/STM32F1xx_HAL_Driver/Src/stm32f1xx_hal_tim.c **** }
2137:Drivers/STM32F1xx_HAL_Driver/Src/stm32f1xx_hal_tim.c **** 
2138:Drivers/STM32F1xx_HAL_Driver/Src/stm32f1xx_hal_tim.c **** /**
2139:Drivers/STM32F1xx_HAL_Driver/Src/stm32f1xx_hal_tim.c ****   * @brief  Starts the TIM One Pulse signal generation in interrupt mode.
2140:Drivers/STM32F1xx_HAL_Driver/Src/stm32f1xx_hal_tim.c ****   * @param  htim : TIM One Pulse handle
ARM GAS  /tmp/ccIpqr7A.s 			page 40


2141:Drivers/STM32F1xx_HAL_Driver/Src/stm32f1xx_hal_tim.c ****   * @param  OutputChannel : TIM Channels to be enabled
2142:Drivers/STM32F1xx_HAL_Driver/Src/stm32f1xx_hal_tim.c ****   *          This parameter can be one of the following values:
2143:Drivers/STM32F1xx_HAL_Driver/Src/stm32f1xx_hal_tim.c ****   *            @arg TIM_CHANNEL_1: TIM Channel 1 selected
2144:Drivers/STM32F1xx_HAL_Driver/Src/stm32f1xx_hal_tim.c ****   *            @arg TIM_CHANNEL_2: TIM Channel 2 selected
2145:Drivers/STM32F1xx_HAL_Driver/Src/stm32f1xx_hal_tim.c ****   * @retval HAL status
2146:Drivers/STM32F1xx_HAL_Driver/Src/stm32f1xx_hal_tim.c **** */
2147:Drivers/STM32F1xx_HAL_Driver/Src/stm32f1xx_hal_tim.c **** HAL_StatusTypeDef HAL_TIM_OnePulse_Start_IT(TIM_HandleTypeDef *htim, uint32_t OutputChannel)
2148:Drivers/STM32F1xx_HAL_Driver/Src/stm32f1xx_hal_tim.c **** {
2149:Drivers/STM32F1xx_HAL_Driver/Src/stm32f1xx_hal_tim.c ****   /* Prevent unused argument(s) compilation warning */
2150:Drivers/STM32F1xx_HAL_Driver/Src/stm32f1xx_hal_tim.c ****   UNUSED(OutputChannel);
2151:Drivers/STM32F1xx_HAL_Driver/Src/stm32f1xx_hal_tim.c **** 
2152:Drivers/STM32F1xx_HAL_Driver/Src/stm32f1xx_hal_tim.c ****   /* Enable the Capture compare and the Input Capture channels 
2153:Drivers/STM32F1xx_HAL_Driver/Src/stm32f1xx_hal_tim.c ****     (in the OPM Mode the two possible channels that can be used are TIM_CHANNEL_1 and TIM_CHANNEL_2
2154:Drivers/STM32F1xx_HAL_Driver/Src/stm32f1xx_hal_tim.c ****     if TIM_CHANNEL_1 is used as output, the TIM_CHANNEL_2 will be used as input and
2155:Drivers/STM32F1xx_HAL_Driver/Src/stm32f1xx_hal_tim.c ****     if TIM_CHANNEL_1 is used as input, the TIM_CHANNEL_2 will be used as output 
2156:Drivers/STM32F1xx_HAL_Driver/Src/stm32f1xx_hal_tim.c ****     in all combinations, the TIM_CHANNEL_1 and TIM_CHANNEL_2 should be enabled together 
2157:Drivers/STM32F1xx_HAL_Driver/Src/stm32f1xx_hal_tim.c **** 
2158:Drivers/STM32F1xx_HAL_Driver/Src/stm32f1xx_hal_tim.c ****     No need to enable the counter, it's enabled automatically by hardware 
2159:Drivers/STM32F1xx_HAL_Driver/Src/stm32f1xx_hal_tim.c ****     (the counter starts in response to a stimulus and generate a pulse */
2160:Drivers/STM32F1xx_HAL_Driver/Src/stm32f1xx_hal_tim.c **** 
2161:Drivers/STM32F1xx_HAL_Driver/Src/stm32f1xx_hal_tim.c ****   /* Enable the TIM Capture/Compare 1 interrupt */
2162:Drivers/STM32F1xx_HAL_Driver/Src/stm32f1xx_hal_tim.c ****   __HAL_TIM_ENABLE_IT(htim, TIM_IT_CC1);
2163:Drivers/STM32F1xx_HAL_Driver/Src/stm32f1xx_hal_tim.c **** 
2164:Drivers/STM32F1xx_HAL_Driver/Src/stm32f1xx_hal_tim.c ****   /* Enable the TIM Capture/Compare 2 interrupt */
2165:Drivers/STM32F1xx_HAL_Driver/Src/stm32f1xx_hal_tim.c ****   __HAL_TIM_ENABLE_IT(htim, TIM_IT_CC2);
2166:Drivers/STM32F1xx_HAL_Driver/Src/stm32f1xx_hal_tim.c **** 
2167:Drivers/STM32F1xx_HAL_Driver/Src/stm32f1xx_hal_tim.c ****   TIM_CCxChannelCmd(htim->Instance, TIM_CHANNEL_1, TIM_CCx_ENABLE);
2168:Drivers/STM32F1xx_HAL_Driver/Src/stm32f1xx_hal_tim.c ****   TIM_CCxChannelCmd(htim->Instance, TIM_CHANNEL_2, TIM_CCx_ENABLE);
2169:Drivers/STM32F1xx_HAL_Driver/Src/stm32f1xx_hal_tim.c **** 
2170:Drivers/STM32F1xx_HAL_Driver/Src/stm32f1xx_hal_tim.c ****   if(IS_TIM_BREAK_INSTANCE(htim->Instance) != RESET)
2171:Drivers/STM32F1xx_HAL_Driver/Src/stm32f1xx_hal_tim.c ****   {
2172:Drivers/STM32F1xx_HAL_Driver/Src/stm32f1xx_hal_tim.c ****     /* Enable the main output */
2173:Drivers/STM32F1xx_HAL_Driver/Src/stm32f1xx_hal_tim.c ****     __HAL_TIM_MOE_ENABLE(htim);
2174:Drivers/STM32F1xx_HAL_Driver/Src/stm32f1xx_hal_tim.c ****   }
2175:Drivers/STM32F1xx_HAL_Driver/Src/stm32f1xx_hal_tim.c **** 
2176:Drivers/STM32F1xx_HAL_Driver/Src/stm32f1xx_hal_tim.c ****   /* Return function status */
2177:Drivers/STM32F1xx_HAL_Driver/Src/stm32f1xx_hal_tim.c ****   return HAL_OK;
2178:Drivers/STM32F1xx_HAL_Driver/Src/stm32f1xx_hal_tim.c **** }
2179:Drivers/STM32F1xx_HAL_Driver/Src/stm32f1xx_hal_tim.c **** 
2180:Drivers/STM32F1xx_HAL_Driver/Src/stm32f1xx_hal_tim.c **** /**
2181:Drivers/STM32F1xx_HAL_Driver/Src/stm32f1xx_hal_tim.c ****   * @brief  Stops the TIM One Pulse signal generation in interrupt mode.
2182:Drivers/STM32F1xx_HAL_Driver/Src/stm32f1xx_hal_tim.c ****   * @param  htim : TIM One Pulse handle
2183:Drivers/STM32F1xx_HAL_Driver/Src/stm32f1xx_hal_tim.c ****   * @param  OutputChannel : TIM Channels to be enabled
2184:Drivers/STM32F1xx_HAL_Driver/Src/stm32f1xx_hal_tim.c ****   *          This parameter can be one of the following values:
2185:Drivers/STM32F1xx_HAL_Driver/Src/stm32f1xx_hal_tim.c ****   *            @arg TIM_CHANNEL_1: TIM Channel 1 selected
2186:Drivers/STM32F1xx_HAL_Driver/Src/stm32f1xx_hal_tim.c ****   *            @arg TIM_CHANNEL_2: TIM Channel 2 selected
2187:Drivers/STM32F1xx_HAL_Driver/Src/stm32f1xx_hal_tim.c ****   * @retval HAL status
2188:Drivers/STM32F1xx_HAL_Driver/Src/stm32f1xx_hal_tim.c **** */
2189:Drivers/STM32F1xx_HAL_Driver/Src/stm32f1xx_hal_tim.c **** HAL_StatusTypeDef HAL_TIM_OnePulse_Stop_IT(TIM_HandleTypeDef *htim, uint32_t OutputChannel)
2190:Drivers/STM32F1xx_HAL_Driver/Src/stm32f1xx_hal_tim.c **** {
2191:Drivers/STM32F1xx_HAL_Driver/Src/stm32f1xx_hal_tim.c ****   /* Prevent unused argument(s) compilation warning */
2192:Drivers/STM32F1xx_HAL_Driver/Src/stm32f1xx_hal_tim.c ****   UNUSED(OutputChannel);
2193:Drivers/STM32F1xx_HAL_Driver/Src/stm32f1xx_hal_tim.c **** 
2194:Drivers/STM32F1xx_HAL_Driver/Src/stm32f1xx_hal_tim.c ****   /* Disable the TIM Capture/Compare 1 interrupt */
2195:Drivers/STM32F1xx_HAL_Driver/Src/stm32f1xx_hal_tim.c ****   __HAL_TIM_DISABLE_IT(htim, TIM_IT_CC1);
2196:Drivers/STM32F1xx_HAL_Driver/Src/stm32f1xx_hal_tim.c **** 
2197:Drivers/STM32F1xx_HAL_Driver/Src/stm32f1xx_hal_tim.c ****   /* Disable the TIM Capture/Compare 2 interrupt */
ARM GAS  /tmp/ccIpqr7A.s 			page 41


2198:Drivers/STM32F1xx_HAL_Driver/Src/stm32f1xx_hal_tim.c ****   __HAL_TIM_DISABLE_IT(htim, TIM_IT_CC2);
2199:Drivers/STM32F1xx_HAL_Driver/Src/stm32f1xx_hal_tim.c **** 
2200:Drivers/STM32F1xx_HAL_Driver/Src/stm32f1xx_hal_tim.c ****   /* Disable the Capture compare and the Input Capture channels 
2201:Drivers/STM32F1xx_HAL_Driver/Src/stm32f1xx_hal_tim.c ****   (in the OPM Mode the two possible channels that can be used are TIM_CHANNEL_1 and TIM_CHANNEL_2)
2202:Drivers/STM32F1xx_HAL_Driver/Src/stm32f1xx_hal_tim.c ****   if TIM_CHANNEL_1 is used as output, the TIM_CHANNEL_2 will be used as input and
2203:Drivers/STM32F1xx_HAL_Driver/Src/stm32f1xx_hal_tim.c ****   if TIM_CHANNEL_1 is used as input, the TIM_CHANNEL_2 will be used as output 
2204:Drivers/STM32F1xx_HAL_Driver/Src/stm32f1xx_hal_tim.c ****   in all combinations, the TIM_CHANNEL_1 and TIM_CHANNEL_2 should be disabled together */
2205:Drivers/STM32F1xx_HAL_Driver/Src/stm32f1xx_hal_tim.c ****   TIM_CCxChannelCmd(htim->Instance, TIM_CHANNEL_1, TIM_CCx_DISABLE);
2206:Drivers/STM32F1xx_HAL_Driver/Src/stm32f1xx_hal_tim.c ****   TIM_CCxChannelCmd(htim->Instance, TIM_CHANNEL_2, TIM_CCx_DISABLE);
2207:Drivers/STM32F1xx_HAL_Driver/Src/stm32f1xx_hal_tim.c **** 
2208:Drivers/STM32F1xx_HAL_Driver/Src/stm32f1xx_hal_tim.c ****   if(IS_TIM_BREAK_INSTANCE(htim->Instance) != RESET)
2209:Drivers/STM32F1xx_HAL_Driver/Src/stm32f1xx_hal_tim.c ****   {
2210:Drivers/STM32F1xx_HAL_Driver/Src/stm32f1xx_hal_tim.c ****     /* Disable the Main Ouput */
2211:Drivers/STM32F1xx_HAL_Driver/Src/stm32f1xx_hal_tim.c ****     __HAL_TIM_MOE_DISABLE(htim);
2212:Drivers/STM32F1xx_HAL_Driver/Src/stm32f1xx_hal_tim.c ****   }
2213:Drivers/STM32F1xx_HAL_Driver/Src/stm32f1xx_hal_tim.c **** 
2214:Drivers/STM32F1xx_HAL_Driver/Src/stm32f1xx_hal_tim.c ****   /* Disable the Peripheral */
2215:Drivers/STM32F1xx_HAL_Driver/Src/stm32f1xx_hal_tim.c ****    __HAL_TIM_DISABLE(htim);
2216:Drivers/STM32F1xx_HAL_Driver/Src/stm32f1xx_hal_tim.c **** 
2217:Drivers/STM32F1xx_HAL_Driver/Src/stm32f1xx_hal_tim.c ****   /* Return function status */
2218:Drivers/STM32F1xx_HAL_Driver/Src/stm32f1xx_hal_tim.c ****   return HAL_OK;
2219:Drivers/STM32F1xx_HAL_Driver/Src/stm32f1xx_hal_tim.c **** }
2220:Drivers/STM32F1xx_HAL_Driver/Src/stm32f1xx_hal_tim.c **** 
2221:Drivers/STM32F1xx_HAL_Driver/Src/stm32f1xx_hal_tim.c **** /**
2222:Drivers/STM32F1xx_HAL_Driver/Src/stm32f1xx_hal_tim.c ****   * @}
2223:Drivers/STM32F1xx_HAL_Driver/Src/stm32f1xx_hal_tim.c ****   */
2224:Drivers/STM32F1xx_HAL_Driver/Src/stm32f1xx_hal_tim.c **** 
2225:Drivers/STM32F1xx_HAL_Driver/Src/stm32f1xx_hal_tim.c **** /** @defgroup TIM_Exported_Functions_Group6 Time Encoder functions 
2226:Drivers/STM32F1xx_HAL_Driver/Src/stm32f1xx_hal_tim.c ****  *  @brief    Time Encoder functions 
2227:Drivers/STM32F1xx_HAL_Driver/Src/stm32f1xx_hal_tim.c ****  *
2228:Drivers/STM32F1xx_HAL_Driver/Src/stm32f1xx_hal_tim.c **** @verbatim 
2229:Drivers/STM32F1xx_HAL_Driver/Src/stm32f1xx_hal_tim.c ****   ==============================================================================
2230:Drivers/STM32F1xx_HAL_Driver/Src/stm32f1xx_hal_tim.c ****                           ##### Time Encoder functions #####
2231:Drivers/STM32F1xx_HAL_Driver/Src/stm32f1xx_hal_tim.c ****   ==============================================================================
2232:Drivers/STM32F1xx_HAL_Driver/Src/stm32f1xx_hal_tim.c ****   [..]
2233:Drivers/STM32F1xx_HAL_Driver/Src/stm32f1xx_hal_tim.c ****     This section provides functions allowing to:
2234:Drivers/STM32F1xx_HAL_Driver/Src/stm32f1xx_hal_tim.c ****     (+) Initialize and configure the TIM Encoder.
2235:Drivers/STM32F1xx_HAL_Driver/Src/stm32f1xx_hal_tim.c ****     (+) De-initialize the TIM Encoder.
2236:Drivers/STM32F1xx_HAL_Driver/Src/stm32f1xx_hal_tim.c ****     (+) Start the Time Encoder.
2237:Drivers/STM32F1xx_HAL_Driver/Src/stm32f1xx_hal_tim.c ****     (+) Stop the Time Encoder.
2238:Drivers/STM32F1xx_HAL_Driver/Src/stm32f1xx_hal_tim.c ****     (+) Start the Time Encoder and enable interrupt.
2239:Drivers/STM32F1xx_HAL_Driver/Src/stm32f1xx_hal_tim.c ****     (+) Stop the Time Encoder and disable interrupt.
2240:Drivers/STM32F1xx_HAL_Driver/Src/stm32f1xx_hal_tim.c ****     (+) Start the Time Encoder and enable DMA transfer.
2241:Drivers/STM32F1xx_HAL_Driver/Src/stm32f1xx_hal_tim.c ****     (+) Stop the Time Encoder and disable DMA transfer.
2242:Drivers/STM32F1xx_HAL_Driver/Src/stm32f1xx_hal_tim.c **** 
2243:Drivers/STM32F1xx_HAL_Driver/Src/stm32f1xx_hal_tim.c **** @endverbatim
2244:Drivers/STM32F1xx_HAL_Driver/Src/stm32f1xx_hal_tim.c ****   * @{
2245:Drivers/STM32F1xx_HAL_Driver/Src/stm32f1xx_hal_tim.c ****   */
2246:Drivers/STM32F1xx_HAL_Driver/Src/stm32f1xx_hal_tim.c **** /**
2247:Drivers/STM32F1xx_HAL_Driver/Src/stm32f1xx_hal_tim.c ****   * @brief  Initializes the TIM Encoder Interface and create the associated handle.
2248:Drivers/STM32F1xx_HAL_Driver/Src/stm32f1xx_hal_tim.c ****   * @param  htim : TIM Encoder Interface handle
2249:Drivers/STM32F1xx_HAL_Driver/Src/stm32f1xx_hal_tim.c ****   * @param  sConfig : TIM Encoder Interface configuration structure
2250:Drivers/STM32F1xx_HAL_Driver/Src/stm32f1xx_hal_tim.c ****   * @retval HAL status
2251:Drivers/STM32F1xx_HAL_Driver/Src/stm32f1xx_hal_tim.c ****   */
2252:Drivers/STM32F1xx_HAL_Driver/Src/stm32f1xx_hal_tim.c **** HAL_StatusTypeDef HAL_TIM_Encoder_Init(TIM_HandleTypeDef *htim,  TIM_Encoder_InitTypeDef* sConfig)
2253:Drivers/STM32F1xx_HAL_Driver/Src/stm32f1xx_hal_tim.c **** {
2254:Drivers/STM32F1xx_HAL_Driver/Src/stm32f1xx_hal_tim.c ****   uint32_t tmpsmcr = 0U;
ARM GAS  /tmp/ccIpqr7A.s 			page 42


2255:Drivers/STM32F1xx_HAL_Driver/Src/stm32f1xx_hal_tim.c ****   uint32_t tmpccmr1 = 0U;
2256:Drivers/STM32F1xx_HAL_Driver/Src/stm32f1xx_hal_tim.c ****   uint32_t tmpccer = 0U;
2257:Drivers/STM32F1xx_HAL_Driver/Src/stm32f1xx_hal_tim.c **** 
2258:Drivers/STM32F1xx_HAL_Driver/Src/stm32f1xx_hal_tim.c ****   /* Check the TIM handle allocation */
2259:Drivers/STM32F1xx_HAL_Driver/Src/stm32f1xx_hal_tim.c ****   if(htim == NULL)
2260:Drivers/STM32F1xx_HAL_Driver/Src/stm32f1xx_hal_tim.c ****   {
2261:Drivers/STM32F1xx_HAL_Driver/Src/stm32f1xx_hal_tim.c ****     return HAL_ERROR;
2262:Drivers/STM32F1xx_HAL_Driver/Src/stm32f1xx_hal_tim.c ****   }
2263:Drivers/STM32F1xx_HAL_Driver/Src/stm32f1xx_hal_tim.c **** 
2264:Drivers/STM32F1xx_HAL_Driver/Src/stm32f1xx_hal_tim.c ****   /* Check the parameters */
2265:Drivers/STM32F1xx_HAL_Driver/Src/stm32f1xx_hal_tim.c ****   assert_param(IS_TIM_CC2_INSTANCE(htim->Instance));
2266:Drivers/STM32F1xx_HAL_Driver/Src/stm32f1xx_hal_tim.c ****   assert_param(IS_TIM_COUNTER_MODE(htim->Init.CounterMode));
2267:Drivers/STM32F1xx_HAL_Driver/Src/stm32f1xx_hal_tim.c ****   assert_param(IS_TIM_CLOCKDIVISION_DIV(htim->Init.ClockDivision));
2268:Drivers/STM32F1xx_HAL_Driver/Src/stm32f1xx_hal_tim.c ****   assert_param(IS_TIM_AUTORELOAD_PRELOAD(htim->Init.AutoReloadPreload));
2269:Drivers/STM32F1xx_HAL_Driver/Src/stm32f1xx_hal_tim.c ****   assert_param(IS_TIM_ENCODER_MODE(sConfig->EncoderMode));
2270:Drivers/STM32F1xx_HAL_Driver/Src/stm32f1xx_hal_tim.c ****   assert_param(IS_TIM_IC_SELECTION(sConfig->IC1Selection));
2271:Drivers/STM32F1xx_HAL_Driver/Src/stm32f1xx_hal_tim.c ****   assert_param(IS_TIM_IC_SELECTION(sConfig->IC2Selection));
2272:Drivers/STM32F1xx_HAL_Driver/Src/stm32f1xx_hal_tim.c ****   assert_param(IS_TIM_IC_POLARITY(sConfig->IC1Polarity));
2273:Drivers/STM32F1xx_HAL_Driver/Src/stm32f1xx_hal_tim.c ****   assert_param(IS_TIM_IC_POLARITY(sConfig->IC2Polarity));
2274:Drivers/STM32F1xx_HAL_Driver/Src/stm32f1xx_hal_tim.c ****   assert_param(IS_TIM_IC_PRESCALER(sConfig->IC1Prescaler));
2275:Drivers/STM32F1xx_HAL_Driver/Src/stm32f1xx_hal_tim.c ****   assert_param(IS_TIM_IC_PRESCALER(sConfig->IC2Prescaler));
2276:Drivers/STM32F1xx_HAL_Driver/Src/stm32f1xx_hal_tim.c ****   assert_param(IS_TIM_IC_FILTER(sConfig->IC1Filter));
2277:Drivers/STM32F1xx_HAL_Driver/Src/stm32f1xx_hal_tim.c ****   assert_param(IS_TIM_IC_FILTER(sConfig->IC2Filter));
2278:Drivers/STM32F1xx_HAL_Driver/Src/stm32f1xx_hal_tim.c **** 
2279:Drivers/STM32F1xx_HAL_Driver/Src/stm32f1xx_hal_tim.c ****   if(htim->State == HAL_TIM_STATE_RESET)
2280:Drivers/STM32F1xx_HAL_Driver/Src/stm32f1xx_hal_tim.c ****   {
2281:Drivers/STM32F1xx_HAL_Driver/Src/stm32f1xx_hal_tim.c ****     /* Allocate lock resource and initialize it */
2282:Drivers/STM32F1xx_HAL_Driver/Src/stm32f1xx_hal_tim.c ****     htim->Lock = HAL_UNLOCKED;
2283:Drivers/STM32F1xx_HAL_Driver/Src/stm32f1xx_hal_tim.c ****     
2284:Drivers/STM32F1xx_HAL_Driver/Src/stm32f1xx_hal_tim.c ****     /* Init the low level hardware : GPIO, CLOCK, NVIC and DMA */
2285:Drivers/STM32F1xx_HAL_Driver/Src/stm32f1xx_hal_tim.c ****     HAL_TIM_Encoder_MspInit(htim);
2286:Drivers/STM32F1xx_HAL_Driver/Src/stm32f1xx_hal_tim.c ****   }
2287:Drivers/STM32F1xx_HAL_Driver/Src/stm32f1xx_hal_tim.c **** 
2288:Drivers/STM32F1xx_HAL_Driver/Src/stm32f1xx_hal_tim.c ****   /* Set the TIM state */
2289:Drivers/STM32F1xx_HAL_Driver/Src/stm32f1xx_hal_tim.c ****   htim->State= HAL_TIM_STATE_BUSY;
2290:Drivers/STM32F1xx_HAL_Driver/Src/stm32f1xx_hal_tim.c **** 
2291:Drivers/STM32F1xx_HAL_Driver/Src/stm32f1xx_hal_tim.c ****   /* Reset the SMS bits */
2292:Drivers/STM32F1xx_HAL_Driver/Src/stm32f1xx_hal_tim.c ****   htim->Instance->SMCR &= ~TIM_SMCR_SMS;
2293:Drivers/STM32F1xx_HAL_Driver/Src/stm32f1xx_hal_tim.c **** 
2294:Drivers/STM32F1xx_HAL_Driver/Src/stm32f1xx_hal_tim.c ****   /* Configure the Time base in the Encoder Mode */
2295:Drivers/STM32F1xx_HAL_Driver/Src/stm32f1xx_hal_tim.c ****   TIM_Base_SetConfig(htim->Instance, &htim->Init);
2296:Drivers/STM32F1xx_HAL_Driver/Src/stm32f1xx_hal_tim.c **** 
2297:Drivers/STM32F1xx_HAL_Driver/Src/stm32f1xx_hal_tim.c ****   /* Get the TIMx SMCR register value */
2298:Drivers/STM32F1xx_HAL_Driver/Src/stm32f1xx_hal_tim.c ****   tmpsmcr = htim->Instance->SMCR;
2299:Drivers/STM32F1xx_HAL_Driver/Src/stm32f1xx_hal_tim.c **** 
2300:Drivers/STM32F1xx_HAL_Driver/Src/stm32f1xx_hal_tim.c ****   /* Get the TIMx CCMR1 register value */
2301:Drivers/STM32F1xx_HAL_Driver/Src/stm32f1xx_hal_tim.c ****   tmpccmr1 = htim->Instance->CCMR1;
2302:Drivers/STM32F1xx_HAL_Driver/Src/stm32f1xx_hal_tim.c **** 
2303:Drivers/STM32F1xx_HAL_Driver/Src/stm32f1xx_hal_tim.c ****   /* Get the TIMx CCER register value */
2304:Drivers/STM32F1xx_HAL_Driver/Src/stm32f1xx_hal_tim.c ****   tmpccer = htim->Instance->CCER;
2305:Drivers/STM32F1xx_HAL_Driver/Src/stm32f1xx_hal_tim.c **** 
2306:Drivers/STM32F1xx_HAL_Driver/Src/stm32f1xx_hal_tim.c ****   /* Set the encoder Mode */
2307:Drivers/STM32F1xx_HAL_Driver/Src/stm32f1xx_hal_tim.c ****   tmpsmcr |= sConfig->EncoderMode;
2308:Drivers/STM32F1xx_HAL_Driver/Src/stm32f1xx_hal_tim.c **** 
2309:Drivers/STM32F1xx_HAL_Driver/Src/stm32f1xx_hal_tim.c ****   /* Select the Capture Compare 1 and the Capture Compare 2 as input */
2310:Drivers/STM32F1xx_HAL_Driver/Src/stm32f1xx_hal_tim.c ****   tmpccmr1 &= ~(TIM_CCMR1_CC1S | TIM_CCMR1_CC2S);
2311:Drivers/STM32F1xx_HAL_Driver/Src/stm32f1xx_hal_tim.c ****   tmpccmr1 |= (sConfig->IC1Selection | (sConfig->IC2Selection << 8U));
ARM GAS  /tmp/ccIpqr7A.s 			page 43


2312:Drivers/STM32F1xx_HAL_Driver/Src/stm32f1xx_hal_tim.c **** 
2313:Drivers/STM32F1xx_HAL_Driver/Src/stm32f1xx_hal_tim.c ****   /* Set the the Capture Compare 1 and the Capture Compare 2 prescalers and filters */
2314:Drivers/STM32F1xx_HAL_Driver/Src/stm32f1xx_hal_tim.c ****   tmpccmr1 &= ~(TIM_CCMR1_IC1PSC | TIM_CCMR1_IC2PSC);
2315:Drivers/STM32F1xx_HAL_Driver/Src/stm32f1xx_hal_tim.c ****   tmpccmr1 &= ~(TIM_CCMR1_IC1F | TIM_CCMR1_IC2F);
2316:Drivers/STM32F1xx_HAL_Driver/Src/stm32f1xx_hal_tim.c ****   tmpccmr1 |= sConfig->IC1Prescaler | (sConfig->IC2Prescaler << 8U);
2317:Drivers/STM32F1xx_HAL_Driver/Src/stm32f1xx_hal_tim.c ****   tmpccmr1 |= (sConfig->IC1Filter << 4U) | (sConfig->IC2Filter << 12U);
2318:Drivers/STM32F1xx_HAL_Driver/Src/stm32f1xx_hal_tim.c **** 
2319:Drivers/STM32F1xx_HAL_Driver/Src/stm32f1xx_hal_tim.c ****   /* Set the TI1 and the TI2 Polarities */
2320:Drivers/STM32F1xx_HAL_Driver/Src/stm32f1xx_hal_tim.c ****   tmpccer &= ~(TIM_CCER_CC1P | TIM_CCER_CC2P);
2321:Drivers/STM32F1xx_HAL_Driver/Src/stm32f1xx_hal_tim.c ****   tmpccer &= ~(TIM_CCER_CC1NP | TIM_CCER_CC2NP);
2322:Drivers/STM32F1xx_HAL_Driver/Src/stm32f1xx_hal_tim.c ****   tmpccer |= sConfig->IC1Polarity | (sConfig->IC2Polarity << 4U);
2323:Drivers/STM32F1xx_HAL_Driver/Src/stm32f1xx_hal_tim.c **** 
2324:Drivers/STM32F1xx_HAL_Driver/Src/stm32f1xx_hal_tim.c ****   /* Write to TIMx SMCR */
2325:Drivers/STM32F1xx_HAL_Driver/Src/stm32f1xx_hal_tim.c ****   htim->Instance->SMCR = tmpsmcr;
2326:Drivers/STM32F1xx_HAL_Driver/Src/stm32f1xx_hal_tim.c **** 
2327:Drivers/STM32F1xx_HAL_Driver/Src/stm32f1xx_hal_tim.c ****   /* Write to TIMx CCMR1 */
2328:Drivers/STM32F1xx_HAL_Driver/Src/stm32f1xx_hal_tim.c ****   htim->Instance->CCMR1 = tmpccmr1;
2329:Drivers/STM32F1xx_HAL_Driver/Src/stm32f1xx_hal_tim.c **** 
2330:Drivers/STM32F1xx_HAL_Driver/Src/stm32f1xx_hal_tim.c ****   /* Write to TIMx CCER */
2331:Drivers/STM32F1xx_HAL_Driver/Src/stm32f1xx_hal_tim.c ****   htim->Instance->CCER = tmpccer;
2332:Drivers/STM32F1xx_HAL_Driver/Src/stm32f1xx_hal_tim.c **** 
2333:Drivers/STM32F1xx_HAL_Driver/Src/stm32f1xx_hal_tim.c ****   /* Initialize the TIM state*/
2334:Drivers/STM32F1xx_HAL_Driver/Src/stm32f1xx_hal_tim.c ****   htim->State= HAL_TIM_STATE_READY;
2335:Drivers/STM32F1xx_HAL_Driver/Src/stm32f1xx_hal_tim.c **** 
2336:Drivers/STM32F1xx_HAL_Driver/Src/stm32f1xx_hal_tim.c ****   return HAL_OK;
2337:Drivers/STM32F1xx_HAL_Driver/Src/stm32f1xx_hal_tim.c **** }
2338:Drivers/STM32F1xx_HAL_Driver/Src/stm32f1xx_hal_tim.c **** 
2339:Drivers/STM32F1xx_HAL_Driver/Src/stm32f1xx_hal_tim.c **** 
2340:Drivers/STM32F1xx_HAL_Driver/Src/stm32f1xx_hal_tim.c **** /**
2341:Drivers/STM32F1xx_HAL_Driver/Src/stm32f1xx_hal_tim.c ****   * @brief  DeInitializes the TIM Encoder interface 
2342:Drivers/STM32F1xx_HAL_Driver/Src/stm32f1xx_hal_tim.c ****   * @param  htim : TIM Encoder handle
2343:Drivers/STM32F1xx_HAL_Driver/Src/stm32f1xx_hal_tim.c ****   * @retval HAL status
2344:Drivers/STM32F1xx_HAL_Driver/Src/stm32f1xx_hal_tim.c ****   */
2345:Drivers/STM32F1xx_HAL_Driver/Src/stm32f1xx_hal_tim.c **** HAL_StatusTypeDef HAL_TIM_Encoder_DeInit(TIM_HandleTypeDef *htim)
2346:Drivers/STM32F1xx_HAL_Driver/Src/stm32f1xx_hal_tim.c **** {
2347:Drivers/STM32F1xx_HAL_Driver/Src/stm32f1xx_hal_tim.c ****   /* Check the parameters */
2348:Drivers/STM32F1xx_HAL_Driver/Src/stm32f1xx_hal_tim.c ****   assert_param(IS_TIM_INSTANCE(htim->Instance));
2349:Drivers/STM32F1xx_HAL_Driver/Src/stm32f1xx_hal_tim.c **** 
2350:Drivers/STM32F1xx_HAL_Driver/Src/stm32f1xx_hal_tim.c ****   htim->State = HAL_TIM_STATE_BUSY;
2351:Drivers/STM32F1xx_HAL_Driver/Src/stm32f1xx_hal_tim.c **** 
2352:Drivers/STM32F1xx_HAL_Driver/Src/stm32f1xx_hal_tim.c ****   /* Disable the TIM Peripheral Clock */
2353:Drivers/STM32F1xx_HAL_Driver/Src/stm32f1xx_hal_tim.c ****   __HAL_TIM_DISABLE(htim);
2354:Drivers/STM32F1xx_HAL_Driver/Src/stm32f1xx_hal_tim.c **** 
2355:Drivers/STM32F1xx_HAL_Driver/Src/stm32f1xx_hal_tim.c ****   /* DeInit the low level hardware: GPIO, CLOCK, NVIC */
2356:Drivers/STM32F1xx_HAL_Driver/Src/stm32f1xx_hal_tim.c ****   HAL_TIM_Encoder_MspDeInit(htim);
2357:Drivers/STM32F1xx_HAL_Driver/Src/stm32f1xx_hal_tim.c **** 
2358:Drivers/STM32F1xx_HAL_Driver/Src/stm32f1xx_hal_tim.c ****   /* Change TIM state */
2359:Drivers/STM32F1xx_HAL_Driver/Src/stm32f1xx_hal_tim.c ****   htim->State = HAL_TIM_STATE_RESET;
2360:Drivers/STM32F1xx_HAL_Driver/Src/stm32f1xx_hal_tim.c **** 
2361:Drivers/STM32F1xx_HAL_Driver/Src/stm32f1xx_hal_tim.c ****   /* Release Lock */
2362:Drivers/STM32F1xx_HAL_Driver/Src/stm32f1xx_hal_tim.c ****   __HAL_UNLOCK(htim);
2363:Drivers/STM32F1xx_HAL_Driver/Src/stm32f1xx_hal_tim.c **** 
2364:Drivers/STM32F1xx_HAL_Driver/Src/stm32f1xx_hal_tim.c ****   return HAL_OK;
2365:Drivers/STM32F1xx_HAL_Driver/Src/stm32f1xx_hal_tim.c **** }
2366:Drivers/STM32F1xx_HAL_Driver/Src/stm32f1xx_hal_tim.c **** 
2367:Drivers/STM32F1xx_HAL_Driver/Src/stm32f1xx_hal_tim.c **** /**
2368:Drivers/STM32F1xx_HAL_Driver/Src/stm32f1xx_hal_tim.c ****   * @brief  Initializes the TIM Encoder Interface MSP.
ARM GAS  /tmp/ccIpqr7A.s 			page 44


2369:Drivers/STM32F1xx_HAL_Driver/Src/stm32f1xx_hal_tim.c ****   * @param  htim : TIM handle
2370:Drivers/STM32F1xx_HAL_Driver/Src/stm32f1xx_hal_tim.c ****   * @retval None
2371:Drivers/STM32F1xx_HAL_Driver/Src/stm32f1xx_hal_tim.c ****   */
2372:Drivers/STM32F1xx_HAL_Driver/Src/stm32f1xx_hal_tim.c **** __weak void HAL_TIM_Encoder_MspInit(TIM_HandleTypeDef *htim)
2373:Drivers/STM32F1xx_HAL_Driver/Src/stm32f1xx_hal_tim.c **** {
2374:Drivers/STM32F1xx_HAL_Driver/Src/stm32f1xx_hal_tim.c ****   /* Prevent unused argument(s) compilation warning */
2375:Drivers/STM32F1xx_HAL_Driver/Src/stm32f1xx_hal_tim.c ****   UNUSED(htim);
2376:Drivers/STM32F1xx_HAL_Driver/Src/stm32f1xx_hal_tim.c ****   /* NOTE : This function Should not be modified, when the callback is needed,
2377:Drivers/STM32F1xx_HAL_Driver/Src/stm32f1xx_hal_tim.c ****             the HAL_TIM_Encoder_MspInit could be implemented in the user file
2378:Drivers/STM32F1xx_HAL_Driver/Src/stm32f1xx_hal_tim.c ****    */
2379:Drivers/STM32F1xx_HAL_Driver/Src/stm32f1xx_hal_tim.c **** }
2380:Drivers/STM32F1xx_HAL_Driver/Src/stm32f1xx_hal_tim.c **** 
2381:Drivers/STM32F1xx_HAL_Driver/Src/stm32f1xx_hal_tim.c **** /**
2382:Drivers/STM32F1xx_HAL_Driver/Src/stm32f1xx_hal_tim.c ****   * @brief  DeInitializes TIM Encoder Interface MSP.
2383:Drivers/STM32F1xx_HAL_Driver/Src/stm32f1xx_hal_tim.c ****   * @param  htim : TIM handle
2384:Drivers/STM32F1xx_HAL_Driver/Src/stm32f1xx_hal_tim.c ****   * @retval None
2385:Drivers/STM32F1xx_HAL_Driver/Src/stm32f1xx_hal_tim.c ****   */
2386:Drivers/STM32F1xx_HAL_Driver/Src/stm32f1xx_hal_tim.c **** __weak void HAL_TIM_Encoder_MspDeInit(TIM_HandleTypeDef *htim)
2387:Drivers/STM32F1xx_HAL_Driver/Src/stm32f1xx_hal_tim.c **** {
2388:Drivers/STM32F1xx_HAL_Driver/Src/stm32f1xx_hal_tim.c ****   /* Prevent unused argument(s) compilation warning */
2389:Drivers/STM32F1xx_HAL_Driver/Src/stm32f1xx_hal_tim.c ****   UNUSED(htim);
2390:Drivers/STM32F1xx_HAL_Driver/Src/stm32f1xx_hal_tim.c ****   /* NOTE : This function Should not be modified, when the callback is needed,
2391:Drivers/STM32F1xx_HAL_Driver/Src/stm32f1xx_hal_tim.c ****             the HAL_TIM_Encoder_MspDeInit could be implemented in the user file
2392:Drivers/STM32F1xx_HAL_Driver/Src/stm32f1xx_hal_tim.c ****    */
2393:Drivers/STM32F1xx_HAL_Driver/Src/stm32f1xx_hal_tim.c **** }
2394:Drivers/STM32F1xx_HAL_Driver/Src/stm32f1xx_hal_tim.c **** 
2395:Drivers/STM32F1xx_HAL_Driver/Src/stm32f1xx_hal_tim.c **** /**
2396:Drivers/STM32F1xx_HAL_Driver/Src/stm32f1xx_hal_tim.c ****   * @brief  Starts the TIM Encoder Interface.
2397:Drivers/STM32F1xx_HAL_Driver/Src/stm32f1xx_hal_tim.c ****   * @param  htim : TIM Encoder Interface handle
2398:Drivers/STM32F1xx_HAL_Driver/Src/stm32f1xx_hal_tim.c ****   * @param  Channel : TIM Channels to be enabled
2399:Drivers/STM32F1xx_HAL_Driver/Src/stm32f1xx_hal_tim.c ****   *          This parameter can be one of the following values:
2400:Drivers/STM32F1xx_HAL_Driver/Src/stm32f1xx_hal_tim.c ****   *            @arg TIM_CHANNEL_1: TIM Channel 1 selected
2401:Drivers/STM32F1xx_HAL_Driver/Src/stm32f1xx_hal_tim.c ****   *            @arg TIM_CHANNEL_2: TIM Channel 2 selected
2402:Drivers/STM32F1xx_HAL_Driver/Src/stm32f1xx_hal_tim.c ****   *            @arg TIM_CHANNEL_ALL: TIM Channel 1 and TIM Channel 2 are selected
2403:Drivers/STM32F1xx_HAL_Driver/Src/stm32f1xx_hal_tim.c ****   * @retval HAL status
2404:Drivers/STM32F1xx_HAL_Driver/Src/stm32f1xx_hal_tim.c **** */
2405:Drivers/STM32F1xx_HAL_Driver/Src/stm32f1xx_hal_tim.c **** HAL_StatusTypeDef HAL_TIM_Encoder_Start(TIM_HandleTypeDef *htim, uint32_t Channel)
2406:Drivers/STM32F1xx_HAL_Driver/Src/stm32f1xx_hal_tim.c **** {
2407:Drivers/STM32F1xx_HAL_Driver/Src/stm32f1xx_hal_tim.c ****   /* Check the parameters */
2408:Drivers/STM32F1xx_HAL_Driver/Src/stm32f1xx_hal_tim.c ****   assert_param(IS_TIM_CC2_INSTANCE(htim->Instance));
2409:Drivers/STM32F1xx_HAL_Driver/Src/stm32f1xx_hal_tim.c **** 
2410:Drivers/STM32F1xx_HAL_Driver/Src/stm32f1xx_hal_tim.c ****   /* Enable the encoder interface channels */
2411:Drivers/STM32F1xx_HAL_Driver/Src/stm32f1xx_hal_tim.c ****   switch (Channel)
2412:Drivers/STM32F1xx_HAL_Driver/Src/stm32f1xx_hal_tim.c ****   {
2413:Drivers/STM32F1xx_HAL_Driver/Src/stm32f1xx_hal_tim.c ****     case TIM_CHANNEL_1:
2414:Drivers/STM32F1xx_HAL_Driver/Src/stm32f1xx_hal_tim.c ****   {
2415:Drivers/STM32F1xx_HAL_Driver/Src/stm32f1xx_hal_tim.c ****     TIM_CCxChannelCmd(htim->Instance, TIM_CHANNEL_1, TIM_CCx_ENABLE);
2416:Drivers/STM32F1xx_HAL_Driver/Src/stm32f1xx_hal_tim.c ****       break;
2417:Drivers/STM32F1xx_HAL_Driver/Src/stm32f1xx_hal_tim.c ****   }
2418:Drivers/STM32F1xx_HAL_Driver/Src/stm32f1xx_hal_tim.c ****     case TIM_CHANNEL_2:
2419:Drivers/STM32F1xx_HAL_Driver/Src/stm32f1xx_hal_tim.c ****   {
2420:Drivers/STM32F1xx_HAL_Driver/Src/stm32f1xx_hal_tim.c ****     TIM_CCxChannelCmd(htim->Instance, TIM_CHANNEL_2, TIM_CCx_ENABLE);
2421:Drivers/STM32F1xx_HAL_Driver/Src/stm32f1xx_hal_tim.c ****       break;
2422:Drivers/STM32F1xx_HAL_Driver/Src/stm32f1xx_hal_tim.c ****   }
2423:Drivers/STM32F1xx_HAL_Driver/Src/stm32f1xx_hal_tim.c ****     default :
2424:Drivers/STM32F1xx_HAL_Driver/Src/stm32f1xx_hal_tim.c ****   {
2425:Drivers/STM32F1xx_HAL_Driver/Src/stm32f1xx_hal_tim.c ****      TIM_CCxChannelCmd(htim->Instance, TIM_CHANNEL_1, TIM_CCx_ENABLE);
ARM GAS  /tmp/ccIpqr7A.s 			page 45


2426:Drivers/STM32F1xx_HAL_Driver/Src/stm32f1xx_hal_tim.c ****      TIM_CCxChannelCmd(htim->Instance, TIM_CHANNEL_2, TIM_CCx_ENABLE);
2427:Drivers/STM32F1xx_HAL_Driver/Src/stm32f1xx_hal_tim.c ****      break;
2428:Drivers/STM32F1xx_HAL_Driver/Src/stm32f1xx_hal_tim.c ****     }
2429:Drivers/STM32F1xx_HAL_Driver/Src/stm32f1xx_hal_tim.c ****   }
2430:Drivers/STM32F1xx_HAL_Driver/Src/stm32f1xx_hal_tim.c ****   /* Enable the Peripheral */
2431:Drivers/STM32F1xx_HAL_Driver/Src/stm32f1xx_hal_tim.c ****   __HAL_TIM_ENABLE(htim);
2432:Drivers/STM32F1xx_HAL_Driver/Src/stm32f1xx_hal_tim.c **** 
2433:Drivers/STM32F1xx_HAL_Driver/Src/stm32f1xx_hal_tim.c ****   /* Return function status */
2434:Drivers/STM32F1xx_HAL_Driver/Src/stm32f1xx_hal_tim.c ****   return HAL_OK;
2435:Drivers/STM32F1xx_HAL_Driver/Src/stm32f1xx_hal_tim.c **** }
2436:Drivers/STM32F1xx_HAL_Driver/Src/stm32f1xx_hal_tim.c **** 
2437:Drivers/STM32F1xx_HAL_Driver/Src/stm32f1xx_hal_tim.c **** /**
2438:Drivers/STM32F1xx_HAL_Driver/Src/stm32f1xx_hal_tim.c ****   * @brief  Stops the TIM Encoder Interface.
2439:Drivers/STM32F1xx_HAL_Driver/Src/stm32f1xx_hal_tim.c ****   * @param  htim : TIM Encoder Interface handle
2440:Drivers/STM32F1xx_HAL_Driver/Src/stm32f1xx_hal_tim.c ****   * @param  Channel : TIM Channels to be disabled
2441:Drivers/STM32F1xx_HAL_Driver/Src/stm32f1xx_hal_tim.c ****   *          This parameter can be one of the following values:
2442:Drivers/STM32F1xx_HAL_Driver/Src/stm32f1xx_hal_tim.c ****   *            @arg TIM_CHANNEL_1: TIM Channel 1 selected
2443:Drivers/STM32F1xx_HAL_Driver/Src/stm32f1xx_hal_tim.c ****   *            @arg TIM_CHANNEL_2: TIM Channel 2 selected
2444:Drivers/STM32F1xx_HAL_Driver/Src/stm32f1xx_hal_tim.c ****   *            @arg TIM_CHANNEL_ALL: TIM Channel 1 and TIM Channel 2 are selected
2445:Drivers/STM32F1xx_HAL_Driver/Src/stm32f1xx_hal_tim.c ****   * @retval HAL status
2446:Drivers/STM32F1xx_HAL_Driver/Src/stm32f1xx_hal_tim.c **** */
2447:Drivers/STM32F1xx_HAL_Driver/Src/stm32f1xx_hal_tim.c **** HAL_StatusTypeDef HAL_TIM_Encoder_Stop(TIM_HandleTypeDef *htim, uint32_t Channel)
2448:Drivers/STM32F1xx_HAL_Driver/Src/stm32f1xx_hal_tim.c **** {
2449:Drivers/STM32F1xx_HAL_Driver/Src/stm32f1xx_hal_tim.c ****   /* Check the parameters */
2450:Drivers/STM32F1xx_HAL_Driver/Src/stm32f1xx_hal_tim.c ****     assert_param(IS_TIM_CC2_INSTANCE(htim->Instance));
2451:Drivers/STM32F1xx_HAL_Driver/Src/stm32f1xx_hal_tim.c **** 
2452:Drivers/STM32F1xx_HAL_Driver/Src/stm32f1xx_hal_tim.c ****    /* Disable the Input Capture channels 1 and 2
2453:Drivers/STM32F1xx_HAL_Driver/Src/stm32f1xx_hal_tim.c ****     (in the EncoderInterface the two possible channels that can be used are TIM_CHANNEL_1 and TIM_C
2454:Drivers/STM32F1xx_HAL_Driver/Src/stm32f1xx_hal_tim.c ****   switch (Channel)
2455:Drivers/STM32F1xx_HAL_Driver/Src/stm32f1xx_hal_tim.c ****   {
2456:Drivers/STM32F1xx_HAL_Driver/Src/stm32f1xx_hal_tim.c ****     case TIM_CHANNEL_1:
2457:Drivers/STM32F1xx_HAL_Driver/Src/stm32f1xx_hal_tim.c ****   {
2458:Drivers/STM32F1xx_HAL_Driver/Src/stm32f1xx_hal_tim.c ****      TIM_CCxChannelCmd(htim->Instance, TIM_CHANNEL_1, TIM_CCx_DISABLE);
2459:Drivers/STM32F1xx_HAL_Driver/Src/stm32f1xx_hal_tim.c ****       break;
2460:Drivers/STM32F1xx_HAL_Driver/Src/stm32f1xx_hal_tim.c ****   }
2461:Drivers/STM32F1xx_HAL_Driver/Src/stm32f1xx_hal_tim.c ****     case TIM_CHANNEL_2:
2462:Drivers/STM32F1xx_HAL_Driver/Src/stm32f1xx_hal_tim.c ****   {
2463:Drivers/STM32F1xx_HAL_Driver/Src/stm32f1xx_hal_tim.c ****     TIM_CCxChannelCmd(htim->Instance, TIM_CHANNEL_2, TIM_CCx_DISABLE);
2464:Drivers/STM32F1xx_HAL_Driver/Src/stm32f1xx_hal_tim.c ****       break;
2465:Drivers/STM32F1xx_HAL_Driver/Src/stm32f1xx_hal_tim.c ****   }
2466:Drivers/STM32F1xx_HAL_Driver/Src/stm32f1xx_hal_tim.c ****     default :
2467:Drivers/STM32F1xx_HAL_Driver/Src/stm32f1xx_hal_tim.c ****   {
2468:Drivers/STM32F1xx_HAL_Driver/Src/stm32f1xx_hal_tim.c ****     TIM_CCxChannelCmd(htim->Instance, TIM_CHANNEL_1, TIM_CCx_DISABLE);
2469:Drivers/STM32F1xx_HAL_Driver/Src/stm32f1xx_hal_tim.c ****     TIM_CCxChannelCmd(htim->Instance, TIM_CHANNEL_2, TIM_CCx_DISABLE);
2470:Drivers/STM32F1xx_HAL_Driver/Src/stm32f1xx_hal_tim.c ****      break;
2471:Drivers/STM32F1xx_HAL_Driver/Src/stm32f1xx_hal_tim.c ****     }
2472:Drivers/STM32F1xx_HAL_Driver/Src/stm32f1xx_hal_tim.c ****   }
2473:Drivers/STM32F1xx_HAL_Driver/Src/stm32f1xx_hal_tim.c **** 
2474:Drivers/STM32F1xx_HAL_Driver/Src/stm32f1xx_hal_tim.c ****   /* Disable the Peripheral */
2475:Drivers/STM32F1xx_HAL_Driver/Src/stm32f1xx_hal_tim.c ****   __HAL_TIM_DISABLE(htim);
2476:Drivers/STM32F1xx_HAL_Driver/Src/stm32f1xx_hal_tim.c **** 
2477:Drivers/STM32F1xx_HAL_Driver/Src/stm32f1xx_hal_tim.c ****   /* Return function status */
2478:Drivers/STM32F1xx_HAL_Driver/Src/stm32f1xx_hal_tim.c ****   return HAL_OK;
2479:Drivers/STM32F1xx_HAL_Driver/Src/stm32f1xx_hal_tim.c **** }
2480:Drivers/STM32F1xx_HAL_Driver/Src/stm32f1xx_hal_tim.c **** 
2481:Drivers/STM32F1xx_HAL_Driver/Src/stm32f1xx_hal_tim.c **** /**
2482:Drivers/STM32F1xx_HAL_Driver/Src/stm32f1xx_hal_tim.c ****   * @brief  Starts the TIM Encoder Interface in interrupt mode.
ARM GAS  /tmp/ccIpqr7A.s 			page 46


2483:Drivers/STM32F1xx_HAL_Driver/Src/stm32f1xx_hal_tim.c ****   * @param  htim : TIM Encoder Interface handle
2484:Drivers/STM32F1xx_HAL_Driver/Src/stm32f1xx_hal_tim.c ****   * @param  Channel : TIM Channels to be enabled
2485:Drivers/STM32F1xx_HAL_Driver/Src/stm32f1xx_hal_tim.c ****   *          This parameter can be one of the following values:
2486:Drivers/STM32F1xx_HAL_Driver/Src/stm32f1xx_hal_tim.c ****   *            @arg TIM_CHANNEL_1: TIM Channel 1 selected
2487:Drivers/STM32F1xx_HAL_Driver/Src/stm32f1xx_hal_tim.c ****   *            @arg TIM_CHANNEL_2: TIM Channel 2 selected
2488:Drivers/STM32F1xx_HAL_Driver/Src/stm32f1xx_hal_tim.c ****   *            @arg TIM_CHANNEL_ALL: TIM Channel 1 and TIM Channel 2 are selected
2489:Drivers/STM32F1xx_HAL_Driver/Src/stm32f1xx_hal_tim.c ****   * @retval HAL status
2490:Drivers/STM32F1xx_HAL_Driver/Src/stm32f1xx_hal_tim.c **** */
2491:Drivers/STM32F1xx_HAL_Driver/Src/stm32f1xx_hal_tim.c **** HAL_StatusTypeDef HAL_TIM_Encoder_Start_IT(TIM_HandleTypeDef *htim, uint32_t Channel)
2492:Drivers/STM32F1xx_HAL_Driver/Src/stm32f1xx_hal_tim.c **** {
2493:Drivers/STM32F1xx_HAL_Driver/Src/stm32f1xx_hal_tim.c ****   /* Check the parameters */
2494:Drivers/STM32F1xx_HAL_Driver/Src/stm32f1xx_hal_tim.c ****   assert_param(IS_TIM_CC2_INSTANCE(htim->Instance));
2495:Drivers/STM32F1xx_HAL_Driver/Src/stm32f1xx_hal_tim.c **** 
2496:Drivers/STM32F1xx_HAL_Driver/Src/stm32f1xx_hal_tim.c ****   /* Enable the encoder interface channels */
2497:Drivers/STM32F1xx_HAL_Driver/Src/stm32f1xx_hal_tim.c ****   /* Enable the capture compare Interrupts 1 and/or 2 */
2498:Drivers/STM32F1xx_HAL_Driver/Src/stm32f1xx_hal_tim.c ****   switch (Channel)
2499:Drivers/STM32F1xx_HAL_Driver/Src/stm32f1xx_hal_tim.c ****   {
2500:Drivers/STM32F1xx_HAL_Driver/Src/stm32f1xx_hal_tim.c ****     case TIM_CHANNEL_1:
2501:Drivers/STM32F1xx_HAL_Driver/Src/stm32f1xx_hal_tim.c ****   {
2502:Drivers/STM32F1xx_HAL_Driver/Src/stm32f1xx_hal_tim.c ****     TIM_CCxChannelCmd(htim->Instance, TIM_CHANNEL_1, TIM_CCx_ENABLE);
2503:Drivers/STM32F1xx_HAL_Driver/Src/stm32f1xx_hal_tim.c ****     __HAL_TIM_ENABLE_IT(htim, TIM_IT_CC1);
2504:Drivers/STM32F1xx_HAL_Driver/Src/stm32f1xx_hal_tim.c ****       break;
2505:Drivers/STM32F1xx_HAL_Driver/Src/stm32f1xx_hal_tim.c ****   }
2506:Drivers/STM32F1xx_HAL_Driver/Src/stm32f1xx_hal_tim.c ****     case TIM_CHANNEL_2:
2507:Drivers/STM32F1xx_HAL_Driver/Src/stm32f1xx_hal_tim.c ****   {
2508:Drivers/STM32F1xx_HAL_Driver/Src/stm32f1xx_hal_tim.c ****     TIM_CCxChannelCmd(htim->Instance, TIM_CHANNEL_2, TIM_CCx_ENABLE);
2509:Drivers/STM32F1xx_HAL_Driver/Src/stm32f1xx_hal_tim.c ****     __HAL_TIM_ENABLE_IT(htim, TIM_IT_CC2);
2510:Drivers/STM32F1xx_HAL_Driver/Src/stm32f1xx_hal_tim.c ****       break;
2511:Drivers/STM32F1xx_HAL_Driver/Src/stm32f1xx_hal_tim.c ****   }
2512:Drivers/STM32F1xx_HAL_Driver/Src/stm32f1xx_hal_tim.c ****     default :
2513:Drivers/STM32F1xx_HAL_Driver/Src/stm32f1xx_hal_tim.c ****   {
2514:Drivers/STM32F1xx_HAL_Driver/Src/stm32f1xx_hal_tim.c ****      TIM_CCxChannelCmd(htim->Instance, TIM_CHANNEL_1, TIM_CCx_ENABLE);
2515:Drivers/STM32F1xx_HAL_Driver/Src/stm32f1xx_hal_tim.c ****      TIM_CCxChannelCmd(htim->Instance, TIM_CHANNEL_2, TIM_CCx_ENABLE);
2516:Drivers/STM32F1xx_HAL_Driver/Src/stm32f1xx_hal_tim.c ****      __HAL_TIM_ENABLE_IT(htim, TIM_IT_CC1);
2517:Drivers/STM32F1xx_HAL_Driver/Src/stm32f1xx_hal_tim.c ****      __HAL_TIM_ENABLE_IT(htim, TIM_IT_CC2);
2518:Drivers/STM32F1xx_HAL_Driver/Src/stm32f1xx_hal_tim.c ****      break;
2519:Drivers/STM32F1xx_HAL_Driver/Src/stm32f1xx_hal_tim.c ****     }
2520:Drivers/STM32F1xx_HAL_Driver/Src/stm32f1xx_hal_tim.c ****   }
2521:Drivers/STM32F1xx_HAL_Driver/Src/stm32f1xx_hal_tim.c **** 
2522:Drivers/STM32F1xx_HAL_Driver/Src/stm32f1xx_hal_tim.c ****   /* Enable the Peripheral */
2523:Drivers/STM32F1xx_HAL_Driver/Src/stm32f1xx_hal_tim.c ****   __HAL_TIM_ENABLE(htim);
2524:Drivers/STM32F1xx_HAL_Driver/Src/stm32f1xx_hal_tim.c **** 
2525:Drivers/STM32F1xx_HAL_Driver/Src/stm32f1xx_hal_tim.c ****   /* Return function status */
2526:Drivers/STM32F1xx_HAL_Driver/Src/stm32f1xx_hal_tim.c ****   return HAL_OK;
2527:Drivers/STM32F1xx_HAL_Driver/Src/stm32f1xx_hal_tim.c **** }
2528:Drivers/STM32F1xx_HAL_Driver/Src/stm32f1xx_hal_tim.c **** 
2529:Drivers/STM32F1xx_HAL_Driver/Src/stm32f1xx_hal_tim.c **** /**
2530:Drivers/STM32F1xx_HAL_Driver/Src/stm32f1xx_hal_tim.c ****   * @brief  Stops the TIM Encoder Interface in interrupt mode.
2531:Drivers/STM32F1xx_HAL_Driver/Src/stm32f1xx_hal_tim.c ****   * @param  htim : TIM Encoder Interface handle
2532:Drivers/STM32F1xx_HAL_Driver/Src/stm32f1xx_hal_tim.c ****   * @param  Channel : TIM Channels to be disabled
2533:Drivers/STM32F1xx_HAL_Driver/Src/stm32f1xx_hal_tim.c ****   *          This parameter can be one of the following values:
2534:Drivers/STM32F1xx_HAL_Driver/Src/stm32f1xx_hal_tim.c ****   *            @arg TIM_CHANNEL_1: TIM Channel 1 selected
2535:Drivers/STM32F1xx_HAL_Driver/Src/stm32f1xx_hal_tim.c ****   *            @arg TIM_CHANNEL_2: TIM Channel 2 selected
2536:Drivers/STM32F1xx_HAL_Driver/Src/stm32f1xx_hal_tim.c ****   *            @arg TIM_CHANNEL_ALL: TIM Channel 1 and TIM Channel 2 are selected
2537:Drivers/STM32F1xx_HAL_Driver/Src/stm32f1xx_hal_tim.c ****   * @retval HAL status
2538:Drivers/STM32F1xx_HAL_Driver/Src/stm32f1xx_hal_tim.c **** */
2539:Drivers/STM32F1xx_HAL_Driver/Src/stm32f1xx_hal_tim.c **** HAL_StatusTypeDef HAL_TIM_Encoder_Stop_IT(TIM_HandleTypeDef *htim, uint32_t Channel)
ARM GAS  /tmp/ccIpqr7A.s 			page 47


2540:Drivers/STM32F1xx_HAL_Driver/Src/stm32f1xx_hal_tim.c **** {
2541:Drivers/STM32F1xx_HAL_Driver/Src/stm32f1xx_hal_tim.c ****   /* Check the parameters */
2542:Drivers/STM32F1xx_HAL_Driver/Src/stm32f1xx_hal_tim.c ****   assert_param(IS_TIM_CC2_INSTANCE(htim->Instance));
2543:Drivers/STM32F1xx_HAL_Driver/Src/stm32f1xx_hal_tim.c **** 
2544:Drivers/STM32F1xx_HAL_Driver/Src/stm32f1xx_hal_tim.c ****   /* Disable the Input Capture channels 1 and 2
2545:Drivers/STM32F1xx_HAL_Driver/Src/stm32f1xx_hal_tim.c ****     (in the EncoderInterface the two possible channels that can be used are TIM_CHANNEL_1 and TIM_C
2546:Drivers/STM32F1xx_HAL_Driver/Src/stm32f1xx_hal_tim.c ****   if(Channel == TIM_CHANNEL_1)
2547:Drivers/STM32F1xx_HAL_Driver/Src/stm32f1xx_hal_tim.c ****   {
2548:Drivers/STM32F1xx_HAL_Driver/Src/stm32f1xx_hal_tim.c ****     TIM_CCxChannelCmd(htim->Instance, TIM_CHANNEL_1, TIM_CCx_DISABLE);
2549:Drivers/STM32F1xx_HAL_Driver/Src/stm32f1xx_hal_tim.c **** 
2550:Drivers/STM32F1xx_HAL_Driver/Src/stm32f1xx_hal_tim.c ****     /* Disable the capture compare Interrupts 1 */
2551:Drivers/STM32F1xx_HAL_Driver/Src/stm32f1xx_hal_tim.c ****   __HAL_TIM_DISABLE_IT(htim, TIM_IT_CC1);
2552:Drivers/STM32F1xx_HAL_Driver/Src/stm32f1xx_hal_tim.c ****   }
2553:Drivers/STM32F1xx_HAL_Driver/Src/stm32f1xx_hal_tim.c ****   else if(Channel == TIM_CHANNEL_2)
2554:Drivers/STM32F1xx_HAL_Driver/Src/stm32f1xx_hal_tim.c ****   {
2555:Drivers/STM32F1xx_HAL_Driver/Src/stm32f1xx_hal_tim.c ****     TIM_CCxChannelCmd(htim->Instance, TIM_CHANNEL_2, TIM_CCx_DISABLE);
2556:Drivers/STM32F1xx_HAL_Driver/Src/stm32f1xx_hal_tim.c **** 
2557:Drivers/STM32F1xx_HAL_Driver/Src/stm32f1xx_hal_tim.c ****     /* Disable the capture compare Interrupts 2 */
2558:Drivers/STM32F1xx_HAL_Driver/Src/stm32f1xx_hal_tim.c ****   __HAL_TIM_DISABLE_IT(htim, TIM_IT_CC2);
2559:Drivers/STM32F1xx_HAL_Driver/Src/stm32f1xx_hal_tim.c ****   }
2560:Drivers/STM32F1xx_HAL_Driver/Src/stm32f1xx_hal_tim.c ****   else
2561:Drivers/STM32F1xx_HAL_Driver/Src/stm32f1xx_hal_tim.c ****   {
2562:Drivers/STM32F1xx_HAL_Driver/Src/stm32f1xx_hal_tim.c ****     TIM_CCxChannelCmd(htim->Instance, TIM_CHANNEL_1, TIM_CCx_DISABLE);
2563:Drivers/STM32F1xx_HAL_Driver/Src/stm32f1xx_hal_tim.c ****     TIM_CCxChannelCmd(htim->Instance, TIM_CHANNEL_2, TIM_CCx_DISABLE);
2564:Drivers/STM32F1xx_HAL_Driver/Src/stm32f1xx_hal_tim.c **** 
2565:Drivers/STM32F1xx_HAL_Driver/Src/stm32f1xx_hal_tim.c ****     /* Disable the capture compare Interrupts 1 and 2 */
2566:Drivers/STM32F1xx_HAL_Driver/Src/stm32f1xx_hal_tim.c ****     __HAL_TIM_DISABLE_IT(htim, TIM_IT_CC1);
2567:Drivers/STM32F1xx_HAL_Driver/Src/stm32f1xx_hal_tim.c ****     __HAL_TIM_DISABLE_IT(htim, TIM_IT_CC2);
2568:Drivers/STM32F1xx_HAL_Driver/Src/stm32f1xx_hal_tim.c ****   }
2569:Drivers/STM32F1xx_HAL_Driver/Src/stm32f1xx_hal_tim.c **** 
2570:Drivers/STM32F1xx_HAL_Driver/Src/stm32f1xx_hal_tim.c ****   /* Disable the Peripheral */
2571:Drivers/STM32F1xx_HAL_Driver/Src/stm32f1xx_hal_tim.c ****   __HAL_TIM_DISABLE(htim);
2572:Drivers/STM32F1xx_HAL_Driver/Src/stm32f1xx_hal_tim.c **** 
2573:Drivers/STM32F1xx_HAL_Driver/Src/stm32f1xx_hal_tim.c ****   /* Change the htim state */
2574:Drivers/STM32F1xx_HAL_Driver/Src/stm32f1xx_hal_tim.c ****   htim->State = HAL_TIM_STATE_READY;
2575:Drivers/STM32F1xx_HAL_Driver/Src/stm32f1xx_hal_tim.c **** 
2576:Drivers/STM32F1xx_HAL_Driver/Src/stm32f1xx_hal_tim.c ****   /* Return function status */
2577:Drivers/STM32F1xx_HAL_Driver/Src/stm32f1xx_hal_tim.c ****   return HAL_OK;
2578:Drivers/STM32F1xx_HAL_Driver/Src/stm32f1xx_hal_tim.c **** }
2579:Drivers/STM32F1xx_HAL_Driver/Src/stm32f1xx_hal_tim.c **** 
2580:Drivers/STM32F1xx_HAL_Driver/Src/stm32f1xx_hal_tim.c **** /**
2581:Drivers/STM32F1xx_HAL_Driver/Src/stm32f1xx_hal_tim.c ****   * @brief  Starts the TIM Encoder Interface in DMA mode.
2582:Drivers/STM32F1xx_HAL_Driver/Src/stm32f1xx_hal_tim.c ****   * @param  htim : TIM Encoder Interface handle
2583:Drivers/STM32F1xx_HAL_Driver/Src/stm32f1xx_hal_tim.c ****   * @param  Channel : TIM Channels to be enabled
2584:Drivers/STM32F1xx_HAL_Driver/Src/stm32f1xx_hal_tim.c ****   *          This parameter can be one of the following values:
2585:Drivers/STM32F1xx_HAL_Driver/Src/stm32f1xx_hal_tim.c ****   *            @arg TIM_CHANNEL_1: TIM Channel 1 selected
2586:Drivers/STM32F1xx_HAL_Driver/Src/stm32f1xx_hal_tim.c ****   *            @arg TIM_CHANNEL_2: TIM Channel 2 selected
2587:Drivers/STM32F1xx_HAL_Driver/Src/stm32f1xx_hal_tim.c ****   *            @arg TIM_CHANNEL_ALL: TIM Channel 1 and TIM Channel 2 are selected
2588:Drivers/STM32F1xx_HAL_Driver/Src/stm32f1xx_hal_tim.c ****   * @param  pData1 : The destination Buffer address for IC1.
2589:Drivers/STM32F1xx_HAL_Driver/Src/stm32f1xx_hal_tim.c ****   * @param  pData2 : The destination Buffer address for IC2.
2590:Drivers/STM32F1xx_HAL_Driver/Src/stm32f1xx_hal_tim.c ****   * @param  Length : The length of data to be transferred from TIM peripheral to memory.
2591:Drivers/STM32F1xx_HAL_Driver/Src/stm32f1xx_hal_tim.c ****   * @retval HAL status
2592:Drivers/STM32F1xx_HAL_Driver/Src/stm32f1xx_hal_tim.c **** */
2593:Drivers/STM32F1xx_HAL_Driver/Src/stm32f1xx_hal_tim.c **** HAL_StatusTypeDef HAL_TIM_Encoder_Start_DMA(TIM_HandleTypeDef *htim, uint32_t Channel, uint32_t *pD
2594:Drivers/STM32F1xx_HAL_Driver/Src/stm32f1xx_hal_tim.c **** {
2595:Drivers/STM32F1xx_HAL_Driver/Src/stm32f1xx_hal_tim.c ****   /* Check the parameters */
2596:Drivers/STM32F1xx_HAL_Driver/Src/stm32f1xx_hal_tim.c ****   assert_param(IS_TIM_DMA_CC_INSTANCE(htim->Instance));
ARM GAS  /tmp/ccIpqr7A.s 			page 48


2597:Drivers/STM32F1xx_HAL_Driver/Src/stm32f1xx_hal_tim.c **** 
2598:Drivers/STM32F1xx_HAL_Driver/Src/stm32f1xx_hal_tim.c ****   if((htim->State == HAL_TIM_STATE_BUSY))
2599:Drivers/STM32F1xx_HAL_Driver/Src/stm32f1xx_hal_tim.c ****   {
2600:Drivers/STM32F1xx_HAL_Driver/Src/stm32f1xx_hal_tim.c ****      return HAL_BUSY;
2601:Drivers/STM32F1xx_HAL_Driver/Src/stm32f1xx_hal_tim.c ****   }
2602:Drivers/STM32F1xx_HAL_Driver/Src/stm32f1xx_hal_tim.c ****   else if((htim->State == HAL_TIM_STATE_READY))
2603:Drivers/STM32F1xx_HAL_Driver/Src/stm32f1xx_hal_tim.c ****   {
2604:Drivers/STM32F1xx_HAL_Driver/Src/stm32f1xx_hal_tim.c ****     if((((pData1 == 0U) || (pData2 == 0U) )) && (Length > 0U))
2605:Drivers/STM32F1xx_HAL_Driver/Src/stm32f1xx_hal_tim.c ****     {
2606:Drivers/STM32F1xx_HAL_Driver/Src/stm32f1xx_hal_tim.c ****       return HAL_ERROR;
2607:Drivers/STM32F1xx_HAL_Driver/Src/stm32f1xx_hal_tim.c ****     }
2608:Drivers/STM32F1xx_HAL_Driver/Src/stm32f1xx_hal_tim.c ****     else
2609:Drivers/STM32F1xx_HAL_Driver/Src/stm32f1xx_hal_tim.c ****     {
2610:Drivers/STM32F1xx_HAL_Driver/Src/stm32f1xx_hal_tim.c ****       htim->State = HAL_TIM_STATE_BUSY;
2611:Drivers/STM32F1xx_HAL_Driver/Src/stm32f1xx_hal_tim.c ****     }
2612:Drivers/STM32F1xx_HAL_Driver/Src/stm32f1xx_hal_tim.c ****   }
2613:Drivers/STM32F1xx_HAL_Driver/Src/stm32f1xx_hal_tim.c **** 
2614:Drivers/STM32F1xx_HAL_Driver/Src/stm32f1xx_hal_tim.c ****   switch (Channel)
2615:Drivers/STM32F1xx_HAL_Driver/Src/stm32f1xx_hal_tim.c ****   {
2616:Drivers/STM32F1xx_HAL_Driver/Src/stm32f1xx_hal_tim.c ****     case TIM_CHANNEL_1:
2617:Drivers/STM32F1xx_HAL_Driver/Src/stm32f1xx_hal_tim.c ****     {
2618:Drivers/STM32F1xx_HAL_Driver/Src/stm32f1xx_hal_tim.c ****       /* Set the DMA Period elapsed callback */
2619:Drivers/STM32F1xx_HAL_Driver/Src/stm32f1xx_hal_tim.c ****       htim->hdma[TIM_DMA_ID_CC1]->XferCpltCallback = TIM_DMACaptureCplt;
2620:Drivers/STM32F1xx_HAL_Driver/Src/stm32f1xx_hal_tim.c **** 
2621:Drivers/STM32F1xx_HAL_Driver/Src/stm32f1xx_hal_tim.c ****       /* Set the DMA error callback */
2622:Drivers/STM32F1xx_HAL_Driver/Src/stm32f1xx_hal_tim.c ****       htim->hdma[TIM_DMA_ID_CC1]->XferErrorCallback = TIM_DMAError ;
2623:Drivers/STM32F1xx_HAL_Driver/Src/stm32f1xx_hal_tim.c **** 
